
target/riscv64imac-unknown-none-elf/debug/r_freertos:     file format elf64-littleriscv


Disassembly of section .init:

0000000080000000 <_start>:
    80000000:	02001197          	auipc	gp,0x2001
    80000004:	80018193          	addi	gp,gp,-2048 # 82000800 <__global_pointer$>
    80000008:	f1402573          	csrr	a0,mhartid
    8000000c:	4581                	li	a1,0
    8000000e:	06b51563          	bne	a0,a1,80000078 <secondary>

0000000080000012 <.Lpcrel_hi1>:
    80000012:	02804117          	auipc	sp,0x2804
    80000016:	61e10113          	addi	sp,sp,1566 # 82804630 <_stack_top>

000000008000001a <.Lpcrel_hi2>:
    8000001a:	00010517          	auipc	a0,0x10
    8000001e:	97e50513          	addi	a0,a0,-1666 # 8000f998 <_data_lma>

0000000080000022 <.Lpcrel_hi3>:
    80000022:	02000597          	auipc	a1,0x2000
    80000026:	fde58593          	addi	a1,a1,-34 # 82000000 <_data>

000000008000002a <.Lpcrel_hi4>:
    8000002a:	02000617          	auipc	a2,0x2000
    8000002e:	33e60613          	addi	a2,a2,830 # 82000368 <_ZN10r_freertos6kernel5tasks17XSCHEDULERRUNNING17h1ede12874a4f8eeaE>
    80000032:	00c5fa63          	bgeu	a1,a2,80000046 <.Lpcrel_hi5>
    80000036:	00053283          	ld	t0,0(a0)
    8000003a:	0055b023          	sd	t0,0(a1)
    8000003e:	0521                	addi	a0,a0,8
    80000040:	05a1                	addi	a1,a1,8
    80000042:	fec5eae3          	bltu	a1,a2,80000036 <.Lpcrel_hi4+0xc>

0000000080000046 <.Lpcrel_hi5>:
    80000046:	02000517          	auipc	a0,0x2000
    8000004a:	32250513          	addi	a0,a0,802 # 82000368 <_ZN10r_freertos6kernel5tasks17XSCHEDULERRUNNING17h1ede12874a4f8eeaE>

000000008000004e <.Lpcrel_hi6>:
    8000004e:	02604597          	auipc	a1,0x2604
    80000052:	5e258593          	addi	a1,a1,1506 # 82604630 <_ebss>
    80000056:	00b57763          	bgeu	a0,a1,80000064 <.Lpcrel_hi6+0x16>
    8000005a:	00053023          	sd	zero,0(a0)
    8000005e:	0521                	addi	a0,a0,8
    80000060:	feb56de3          	bltu	a0,a1,8000005a <.Lpcrel_hi6+0xc>
    80000064:	4501                	li	a0,0
    80000066:	4581                	li	a1,0
    80000068:	4601                	li	a2,0
    8000006a:	339070ef          	jal	ra,80007ba2 <kernel_init>
    8000006e:	76e040ef          	jal	ra,800047dc <main>
    80000072:	10500073          	wfi
    80000076:	bff5                	j	80000072 <.Lpcrel_hi6+0x24>

0000000080000078 <secondary>:
    80000078:	10500073          	wfi
    8000007c:	bff5                	j	80000078 <secondary>

Disassembly of section .text:

0000000080000080 <_ZN5alloc7raw_vec19RawVec$LT$T$C$A$GT$7reserve21do_reserve_and_handle17h53aac509d2fcb49dE>:
    80000080:	715d                	addi	sp,sp,-80
    80000082:	e486                	sd	ra,72(sp)
    80000084:	e0a2                	sd	s0,64(sp)
    80000086:	fc26                	sd	s1,56(sp)
    80000088:	962e                	add	a2,a2,a1
    8000008a:	04b66d63          	bltu	a2,a1,800000e4 <_ZN5alloc7raw_vec19RawVec$LT$T$C$A$GT$7reserve21do_reserve_and_handle17h53aac509d2fcb49dE+0x64>
    8000008e:	842a                	mv	s0,a0
    80000090:	6508                	ld	a0,8(a0)
    80000092:	00151493          	slli	s1,a0,0x1
    80000096:	00967b63          	bgeu	a2,s1,800000ac <_ZN5alloc7raw_vec19RawVec$LT$T$C$A$GT$7reserve21do_reserve_and_handle17h53aac509d2fcb49dE+0x2c>
    8000009a:	45a1                	li	a1,8
    8000009c:	0095fc63          	bgeu	a1,s1,800000b4 <_ZN5alloc7raw_vec19RawVec$LT$T$C$A$GT$7reserve21do_reserve_and_handle17h53aac509d2fcb49dE+0x34>
    800000a0:	cd01                	beqz	a0,800000b8 <_ZN5alloc7raw_vec19RawVec$LT$T$C$A$GT$7reserve21do_reserve_and_handle17h53aac509d2fcb49dE+0x38>
    800000a2:	600c                	ld	a1,0(s0)
    800000a4:	f02e                	sd	a1,32(sp)
    800000a6:	f42a                	sd	a0,40(sp)
    800000a8:	4505                	li	a0,1
    800000aa:	a801                	j	800000ba <_ZN5alloc7raw_vec19RawVec$LT$T$C$A$GT$7reserve21do_reserve_and_handle17h53aac509d2fcb49dE+0x3a>
    800000ac:	84b2                	mv	s1,a2
    800000ae:	45a1                	li	a1,8
    800000b0:	fe95e8e3          	bltu	a1,s1,800000a0 <_ZN5alloc7raw_vec19RawVec$LT$T$C$A$GT$7reserve21do_reserve_and_handle17h53aac509d2fcb49dE+0x20>
    800000b4:	44a1                	li	s1,8
    800000b6:	f575                	bnez	a0,800000a2 <_ZN5alloc7raw_vec19RawVec$LT$T$C$A$GT$7reserve21do_reserve_and_handle17h53aac509d2fcb49dE+0x22>
    800000b8:	4501                	li	a0,0
    800000ba:	f82a                	sd	a0,48(sp)
    800000bc:	0028                	addi	a0,sp,8
    800000be:	4605                	li	a2,1
    800000c0:	1014                	addi	a3,sp,32
    800000c2:	85a6                	mv	a1,s1
    800000c4:	0000c097          	auipc	ra,0xc
    800000c8:	b0a080e7          	jalr	-1270(ra) # 8000bbce <_ZN5alloc7raw_vec11finish_grow17h94d2988d67bf1132E>
    800000cc:	6522                	ld	a0,8(sp)
    800000ce:	e909                	bnez	a0,800000e0 <_ZN5alloc7raw_vec19RawVec$LT$T$C$A$GT$7reserve21do_reserve_and_handle17h53aac509d2fcb49dE+0x60>
    800000d0:	6542                	ld	a0,16(sp)
    800000d2:	e008                	sd	a0,0(s0)
    800000d4:	e404                	sd	s1,8(s0)
    800000d6:	60a6                	ld	ra,72(sp)
    800000d8:	6406                	ld	s0,64(sp)
    800000da:	74e2                	ld	s1,56(sp)
    800000dc:	6161                	addi	sp,sp,80
    800000de:	8082                	ret
    800000e0:	65e2                	ld	a1,24(sp)
    800000e2:	e591                	bnez	a1,800000ee <_ZN5alloc7raw_vec19RawVec$LT$T$C$A$GT$7reserve21do_reserve_and_handle17h53aac509d2fcb49dE+0x6e>
    800000e4:	0000c097          	auipc	ra,0xc
    800000e8:	b4e080e7          	jalr	-1202(ra) # 8000bc32 <_ZN5alloc7raw_vec17capacity_overflow17hccad00cafb389c0cE>
    800000ec:	0000                	unimp
    800000ee:	6542                	ld	a0,16(sp)
    800000f0:	00000097          	auipc	ra,0x0
    800000f4:	00a080e7          	jalr	10(ra) # 800000fa <_ZN5alloc5alloc18handle_alloc_error17hb1dc0cd1c45ebcfaE>
	...

00000000800000fa <_ZN5alloc5alloc18handle_alloc_error17hb1dc0cd1c45ebcfaE>:
    800000fa:	1141                	addi	sp,sp,-16
    800000fc:	e406                	sd	ra,8(sp)
    800000fe:	0000c097          	auipc	ra,0xc
    80000102:	992080e7          	jalr	-1646(ra) # 8000ba90 <_ZN4core10intrinsics17const_eval_select17hd387518a557e26b1E>
	...

0000000080000108 <_ZN4core6option13expect_failed17h51f1a863e76ccae9E>:
    80000108:	1141                	addi	sp,sp,-16
    8000010a:	e406                	sd	ra,8(sp)
    8000010c:	0000c097          	auipc	ra,0xc
    80000110:	e96080e7          	jalr	-362(ra) # 8000bfa2 <_ZN4core9panicking9panic_str17h4be4df05af71c8b4E>
	...

0000000080000116 <_ZN4core9panicking5panic17h7cbb7101b8ec6f33E>:
    80000116:	715d                	addi	sp,sp,-80
    80000118:	e486                	sd	ra,72(sp)
    8000011a:	fc2a                	sd	a0,56(sp)
    8000011c:	e0ae                	sd	a1,64(sp)
    8000011e:	1828                	addi	a0,sp,56
    80000120:	e42a                	sd	a0,8(sp)
    80000122:	4505                	li	a0,1
    80000124:	e82a                	sd	a0,16(sp)
    80000126:	ec02                	sd	zero,24(sp)

0000000080000128 <.LBB146_1>:
    80000128:	0000f517          	auipc	a0,0xf
    8000012c:	e0050513          	addi	a0,a0,-512 # 8000ef28 <.Lanon.5f282270f775da30586238d680e8d43a.87>
    80000130:	f42a                	sd	a0,40(sp)
    80000132:	f802                	sd	zero,48(sp)
    80000134:	0028                	addi	a0,sp,8
    80000136:	85b2                	mv	a1,a2
    80000138:	00000097          	auipc	ra,0x0
    8000013c:	04a080e7          	jalr	74(ra) # 80000182 <_ZN4core9panicking9panic_fmt17h6b2572f97fe23736E>
	...

0000000080000142 <_ZN4core9panicking18panic_bounds_check17h2da567a7b5b0ce7aE>:
    80000142:	7159                	addi	sp,sp,-112
    80000144:	f486                	sd	ra,104(sp)
    80000146:	e42a                	sd	a0,8(sp)
    80000148:	e82e                	sd	a1,16(sp)
    8000014a:	0808                	addi	a0,sp,16
    8000014c:	e4aa                	sd	a0,72(sp)

000000008000014e <.LBB149_1>:
    8000014e:	0000d517          	auipc	a0,0xd
    80000152:	bce50513          	addi	a0,a0,-1074 # 8000cd1c <_ZN4core3fmt3num3imp52_$LT$impl$u20$core..fmt..Display$u20$for$u20$u64$GT$3fmt17hd6f7394cb3013e59E>
    80000156:	e8aa                	sd	a0,80(sp)
    80000158:	002c                	addi	a1,sp,8
    8000015a:	ecae                	sd	a1,88(sp)
    8000015c:	f0aa                	sd	a0,96(sp)

000000008000015e <.LBB149_2>:
    8000015e:	0000f517          	auipc	a0,0xf
    80000162:	e0250513          	addi	a0,a0,-510 # 8000ef60 <.Lanon.5f282270f775da30586238d680e8d43a.142>
    80000166:	ec2a                	sd	a0,24(sp)
    80000168:	4509                	li	a0,2
    8000016a:	f02a                	sd	a0,32(sp)
    8000016c:	f402                	sd	zero,40(sp)
    8000016e:	00ac                	addi	a1,sp,72
    80000170:	fc2e                	sd	a1,56(sp)
    80000172:	e0aa                	sd	a0,64(sp)
    80000174:	0828                	addi	a0,sp,24
    80000176:	85b2                	mv	a1,a2
    80000178:	00000097          	auipc	ra,0x0
    8000017c:	00a080e7          	jalr	10(ra) # 80000182 <_ZN4core9panicking9panic_fmt17h6b2572f97fe23736E>
	...

0000000080000182 <_ZN4core9panicking9panic_fmt17h6b2572f97fe23736E>:
    80000182:	7179                	addi	sp,sp,-48
    80000184:	f406                	sd	ra,40(sp)

0000000080000186 <.LBB151_1>:
    80000186:	0000f617          	auipc	a2,0xf
    8000018a:	da260613          	addi	a2,a2,-606 # 8000ef28 <.Lanon.5f282270f775da30586238d680e8d43a.87>
    8000018e:	e032                	sd	a2,0(sp)

0000000080000190 <.LBB151_2>:
    80000190:	0000f617          	auipc	a2,0xf
    80000194:	df060613          	addi	a2,a2,-528 # 8000ef80 <.Lanon.5f282270f775da30586238d680e8d43a.164>
    80000198:	e432                	sd	a2,8(sp)
    8000019a:	e82a                	sd	a0,16(sp)
    8000019c:	ec2e                	sd	a1,24(sp)
    8000019e:	4505                	li	a0,1
    800001a0:	02a10023          	sb	a0,32(sp)
    800001a4:	850a                	mv	a0,sp
    800001a6:	00008097          	auipc	ra,0x8
    800001aa:	a10080e7          	jalr	-1520(ra) # 80007bb6 <rust_begin_unwind>
	...

00000000800001b0 <_ZN4core6result13unwrap_failed17h56dfb3300970bcedE>:
    800001b0:	7119                	addi	sp,sp,-128
    800001b2:	fc86                	sd	ra,120(sp)
    800001b4:	e42a                	sd	a0,8(sp)
    800001b6:	e82e                	sd	a1,16(sp)
    800001b8:	ec32                	sd	a2,24(sp)
    800001ba:	f036                	sd	a3,32(sp)
    800001bc:	0028                	addi	a0,sp,8
    800001be:	ecaa                	sd	a0,88(sp)

00000000800001c0 <.LBB156_1>:
    800001c0:	0000d517          	auipc	a0,0xd
    800001c4:	b8450513          	addi	a0,a0,-1148 # 8000cd44 <_ZN44_$LT$$RF$T$u20$as$u20$core..fmt..Display$GT$3fmt17h7f8cb259729602b9E>
    800001c8:	f0aa                	sd	a0,96(sp)
    800001ca:	0828                	addi	a0,sp,24
    800001cc:	f4aa                	sd	a0,104(sp)

00000000800001ce <.LBB156_2>:
    800001ce:	0000d517          	auipc	a0,0xd
    800001d2:	b6e50513          	addi	a0,a0,-1170 # 8000cd3c <_ZN42_$LT$$RF$T$u20$as$u20$core..fmt..Debug$GT$3fmt17h309dea1dae61b5a2E>
    800001d6:	f8aa                	sd	a0,112(sp)

00000000800001d8 <.LBB156_3>:
    800001d8:	0000f517          	auipc	a0,0xf
    800001dc:	eb050513          	addi	a0,a0,-336 # 8000f088 <.Lanon.5f282270f775da30586238d680e8d43a.188>
    800001e0:	f42a                	sd	a0,40(sp)
    800001e2:	4509                	li	a0,2
    800001e4:	f82a                	sd	a0,48(sp)
    800001e6:	fc02                	sd	zero,56(sp)
    800001e8:	08ac                	addi	a1,sp,88
    800001ea:	e4ae                	sd	a1,72(sp)
    800001ec:	e8aa                	sd	a0,80(sp)
    800001ee:	1028                	addi	a0,sp,40
    800001f0:	85ba                	mv	a1,a4
    800001f2:	00000097          	auipc	ra,0x0
    800001f6:	f90080e7          	jalr	-112(ra) # 80000182 <_ZN4core9panicking9panic_fmt17h6b2572f97fe23736E>
	...

00000000800001fc <_ZN4core5slice5index26slice_start_index_len_fail17h4f920b7f3dad48faE>:
    800001fc:	1141                	addi	sp,sp,-16
    800001fe:	e406                	sd	ra,8(sp)
    80000200:	0000c097          	auipc	ra,0xc
    80000204:	d88080e7          	jalr	-632(ra) # 8000bf88 <_ZN4core10intrinsics17const_eval_select17hfac88725b8f766e7E>
	...

000000008000020a <_ZN4core5slice5index24slice_end_index_len_fail17h50acd3805615c6dcE>:
    8000020a:	1141                	addi	sp,sp,-16
    8000020c:	e406                	sd	ra,8(sp)
    8000020e:	0000c097          	auipc	ra,0xc
    80000212:	d5e080e7          	jalr	-674(ra) # 8000bf6c <_ZN4core10intrinsics17const_eval_select17hf44cf38e17b09cfbE>
	...

0000000080000218 <_ZN4core5slice5index22slice_index_order_fail17h9823c22aab25aa16E>:
    80000218:	1141                	addi	sp,sp,-16
    8000021a:	e406                	sd	ra,8(sp)
    8000021c:	0000c097          	auipc	ra,0xc
    80000220:	d5e080e7          	jalr	-674(ra) # 8000bf7a <_ZN4core10intrinsics17const_eval_select17hf95c9abd32fe5807E>
	...

0000000080000226 <_ZN5alloc2rc11is_dangling17h4f13e83f0ae96261E>:
    80000226:	1101                	addi	sp,sp,-32
    80000228:	ec06                	sd	ra,24(sp)
    8000022a:	e82a                	sd	a0,16(sp)
    8000022c:	00001097          	auipc	ra,0x1
    80000230:	0a4080e7          	jalr	164(ra) # 800012d0 <_ZN4core3ptr7mut_ptr31_$LT$impl$u20$$BP$mut$u20$T$GT$4addr17h6d3d245cd89e1d74E>
    80000234:	e42a                	sd	a0,8(sp)
    80000236:	a009                	j	80000238 <_ZN5alloc2rc11is_dangling17h4f13e83f0ae96261E+0x12>
    80000238:	6522                	ld	a0,8(sp)
    8000023a:	0505                	addi	a0,a0,1
    8000023c:	00153513          	seqz	a0,a0
    80000240:	60e2                	ld	ra,24(sp)
    80000242:	6105                	addi	sp,sp,32
    80000244:	8082                	ret

0000000080000246 <_ZN5alloc2rc11is_dangling17h50a208b34e69ae1eE>:
    80000246:	1101                	addi	sp,sp,-32
    80000248:	ec06                	sd	ra,24(sp)
    8000024a:	e82a                	sd	a0,16(sp)
    8000024c:	00001097          	auipc	ra,0x1
    80000250:	084080e7          	jalr	132(ra) # 800012d0 <_ZN4core3ptr7mut_ptr31_$LT$impl$u20$$BP$mut$u20$T$GT$4addr17h6d3d245cd89e1d74E>
    80000254:	e42a                	sd	a0,8(sp)
    80000256:	a009                	j	80000258 <_ZN5alloc2rc11is_dangling17h50a208b34e69ae1eE+0x12>
    80000258:	6522                	ld	a0,8(sp)
    8000025a:	0505                	addi	a0,a0,1
    8000025c:	00153513          	seqz	a0,a0
    80000260:	60e2                	ld	ra,24(sp)
    80000262:	6105                	addi	sp,sp,32
    80000264:	8082                	ret

0000000080000266 <_ZN5alloc2rc11is_dangling17hb88f8d3ce734e988E>:
    80000266:	1101                	addi	sp,sp,-32
    80000268:	ec06                	sd	ra,24(sp)
    8000026a:	e82a                	sd	a0,16(sp)
    8000026c:	00001097          	auipc	ra,0x1
    80000270:	064080e7          	jalr	100(ra) # 800012d0 <_ZN4core3ptr7mut_ptr31_$LT$impl$u20$$BP$mut$u20$T$GT$4addr17h6d3d245cd89e1d74E>
    80000274:	e42a                	sd	a0,8(sp)
    80000276:	a009                	j	80000278 <_ZN5alloc2rc11is_dangling17hb88f8d3ce734e988E+0x12>
    80000278:	6522                	ld	a0,8(sp)
    8000027a:	0505                	addi	a0,a0,1
    8000027c:	00153513          	seqz	a0,a0
    80000280:	60e2                	ld	ra,24(sp)
    80000282:	6105                	addi	sp,sp,32
    80000284:	8082                	ret

0000000080000286 <_ZN119_$LT$core..ptr..non_null..NonNull$LT$T$GT$$u20$as$u20$core..convert..From$LT$core..ptr..unique..Unique$LT$T$GT$$GT$$GT$4from17h967901d7d97e3ee7E>:
    80000286:	1101                	addi	sp,sp,-32
    80000288:	ec06                	sd	ra,24(sp)
    8000028a:	e82a                	sd	a0,16(sp)
    8000028c:	00000097          	auipc	ra,0x0
    80000290:	53a080e7          	jalr	1338(ra) # 800007c6 <_ZN4core3ptr6unique15Unique$LT$T$GT$6as_ptr17hdee3c3378d47d07eE>
    80000294:	e42a                	sd	a0,8(sp)
    80000296:	a009                	j	80000298 <_ZN119_$LT$core..ptr..non_null..NonNull$LT$T$GT$$u20$as$u20$core..convert..From$LT$core..ptr..unique..Unique$LT$T$GT$$GT$$GT$4from17h967901d7d97e3ee7E+0x12>
    80000298:	6522                	ld	a0,8(sp)
    8000029a:	0000b097          	auipc	ra,0xb
    8000029e:	026080e7          	jalr	38(ra) # 8000b2c0 <_ZN4core3ptr8non_null16NonNull$LT$T$GT$13new_unchecked17hc7cc5342eb94e042E>
    800002a2:	e02a                	sd	a0,0(sp)
    800002a4:	a009                	j	800002a6 <_ZN119_$LT$core..ptr..non_null..NonNull$LT$T$GT$$u20$as$u20$core..convert..From$LT$core..ptr..unique..Unique$LT$T$GT$$GT$$GT$4from17h967901d7d97e3ee7E+0x20>
    800002a6:	6502                	ld	a0,0(sp)
    800002a8:	60e2                	ld	ra,24(sp)
    800002aa:	6105                	addi	sp,sp,32
    800002ac:	8082                	ret

00000000800002ae <_ZN4core3ptr8non_null16NonNull$LT$T$GT$13new_unchecked17h4076f92bc8b31ec6E>:
    800002ae:	1141                	addi	sp,sp,-16
    800002b0:	e42a                	sd	a0,8(sp)
    800002b2:	e02a                	sd	a0,0(sp)
    800002b4:	0141                	addi	sp,sp,16
    800002b6:	8082                	ret

00000000800002b8 <_ZN4core3ptr8non_null16NonNull$LT$T$GT$13new_unchecked17h40a0a1a06336fffcE>:
    800002b8:	1141                	addi	sp,sp,-16
    800002ba:	e42a                	sd	a0,8(sp)
    800002bc:	e02a                	sd	a0,0(sp)
    800002be:	0141                	addi	sp,sp,16
    800002c0:	8082                	ret

00000000800002c2 <_ZN4core3ptr8non_null16NonNull$LT$T$GT$13new_unchecked17h4b2eaa68aa96b6a2E>:
    800002c2:	1141                	addi	sp,sp,-16
    800002c4:	e42a                	sd	a0,8(sp)
    800002c6:	e02a                	sd	a0,0(sp)
    800002c8:	0141                	addi	sp,sp,16
    800002ca:	8082                	ret

00000000800002cc <_ZN4core3ptr8non_null16NonNull$LT$T$GT$13new_unchecked17h4e886fc4c7dc1f87E>:
    800002cc:	1141                	addi	sp,sp,-16
    800002ce:	e42a                	sd	a0,8(sp)
    800002d0:	e02a                	sd	a0,0(sp)
    800002d2:	0141                	addi	sp,sp,16
    800002d4:	8082                	ret

00000000800002d6 <_ZN4core3ptr8non_null16NonNull$LT$T$GT$13new_unchecked17h8ce961c8711ef849E>:
    800002d6:	1141                	addi	sp,sp,-16
    800002d8:	e42a                	sd	a0,8(sp)
    800002da:	e02a                	sd	a0,0(sp)
    800002dc:	0141                	addi	sp,sp,16
    800002de:	8082                	ret

00000000800002e0 <_ZN4core3ptr8non_null16NonNull$LT$T$GT$13new_unchecked17hfc4501417e07806dE>:
    800002e0:	1141                	addi	sp,sp,-16
    800002e2:	e42a                	sd	a0,8(sp)
    800002e4:	e02a                	sd	a0,0(sp)
    800002e6:	0141                	addi	sp,sp,16
    800002e8:	8082                	ret

00000000800002ea <_ZN4core3ptr8non_null16NonNull$LT$T$GT$4cast17h158d3eb43b8ce0b7E>:
    800002ea:	1101                	addi	sp,sp,-32
    800002ec:	ec06                	sd	ra,24(sp)
    800002ee:	e82a                	sd	a0,16(sp)
    800002f0:	00000097          	auipc	ra,0x0
    800002f4:	128080e7          	jalr	296(ra) # 80000418 <_ZN4core3ptr8non_null16NonNull$LT$T$GT$6as_ptr17h562e01aee3272836E>
    800002f8:	e42a                	sd	a0,8(sp)
    800002fa:	a009                	j	800002fc <_ZN4core3ptr8non_null16NonNull$LT$T$GT$4cast17h158d3eb43b8ce0b7E+0x12>
    800002fc:	6522                	ld	a0,8(sp)
    800002fe:	0000b097          	auipc	ra,0xb
    80000302:	fc2080e7          	jalr	-62(ra) # 8000b2c0 <_ZN4core3ptr8non_null16NonNull$LT$T$GT$13new_unchecked17hc7cc5342eb94e042E>
    80000306:	e02a                	sd	a0,0(sp)
    80000308:	a009                	j	8000030a <_ZN4core3ptr8non_null16NonNull$LT$T$GT$4cast17h158d3eb43b8ce0b7E+0x20>
    8000030a:	6502                	ld	a0,0(sp)
    8000030c:	60e2                	ld	ra,24(sp)
    8000030e:	6105                	addi	sp,sp,32
    80000310:	8082                	ret

0000000080000312 <_ZN4core3ptr8non_null16NonNull$LT$T$GT$4cast17h1f4157b50ef843c3E>:
    80000312:	1101                	addi	sp,sp,-32
    80000314:	ec06                	sd	ra,24(sp)
    80000316:	e82a                	sd	a0,16(sp)
    80000318:	00000097          	auipc	ra,0x0
    8000031c:	118080e7          	jalr	280(ra) # 80000430 <_ZN4core3ptr8non_null16NonNull$LT$T$GT$6as_ptr17hf15c6279b255414aE>
    80000320:	e42a                	sd	a0,8(sp)
    80000322:	a009                	j	80000324 <_ZN4core3ptr8non_null16NonNull$LT$T$GT$4cast17h1f4157b50ef843c3E+0x12>
    80000324:	6522                	ld	a0,8(sp)
    80000326:	0000b097          	auipc	ra,0xb
    8000032a:	f9a080e7          	jalr	-102(ra) # 8000b2c0 <_ZN4core3ptr8non_null16NonNull$LT$T$GT$13new_unchecked17hc7cc5342eb94e042E>
    8000032e:	e02a                	sd	a0,0(sp)
    80000330:	a009                	j	80000332 <_ZN4core3ptr8non_null16NonNull$LT$T$GT$4cast17h1f4157b50ef843c3E+0x20>
    80000332:	6502                	ld	a0,0(sp)
    80000334:	60e2                	ld	ra,24(sp)
    80000336:	6105                	addi	sp,sp,32
    80000338:	8082                	ret

000000008000033a <_ZN4core3ptr8non_null16NonNull$LT$T$GT$4cast17h25013ebb6b924cc4E>:
    8000033a:	1101                	addi	sp,sp,-32
    8000033c:	ec06                	sd	ra,24(sp)
    8000033e:	e82a                	sd	a0,16(sp)
    80000340:	0000b097          	auipc	ra,0xb
    80000344:	fca080e7          	jalr	-54(ra) # 8000b30a <_ZN4core3ptr8non_null16NonNull$LT$T$GT$6as_ptr17h1b65225553c65292E>
    80000348:	e42a                	sd	a0,8(sp)
    8000034a:	a009                	j	8000034c <_ZN4core3ptr8non_null16NonNull$LT$T$GT$4cast17h25013ebb6b924cc4E+0x12>
    8000034c:	6522                	ld	a0,8(sp)
    8000034e:	0000b097          	auipc	ra,0xb
    80000352:	f72080e7          	jalr	-142(ra) # 8000b2c0 <_ZN4core3ptr8non_null16NonNull$LT$T$GT$13new_unchecked17hc7cc5342eb94e042E>
    80000356:	e02a                	sd	a0,0(sp)
    80000358:	a009                	j	8000035a <_ZN4core3ptr8non_null16NonNull$LT$T$GT$4cast17h25013ebb6b924cc4E+0x20>
    8000035a:	6502                	ld	a0,0(sp)
    8000035c:	60e2                	ld	ra,24(sp)
    8000035e:	6105                	addi	sp,sp,32
    80000360:	8082                	ret

0000000080000362 <_ZN4core3ptr8non_null16NonNull$LT$T$GT$4cast17h5ad582386cdc7f20E>:
    80000362:	1101                	addi	sp,sp,-32
    80000364:	ec06                	sd	ra,24(sp)
    80000366:	e82a                	sd	a0,16(sp)
    80000368:	00000097          	auipc	ra,0x0
    8000036c:	0a8080e7          	jalr	168(ra) # 80000410 <_ZN4core3ptr8non_null16NonNull$LT$T$GT$6as_ptr17h4ce5ce63b20c5568E>
    80000370:	e42a                	sd	a0,8(sp)
    80000372:	a009                	j	80000374 <_ZN4core3ptr8non_null16NonNull$LT$T$GT$4cast17h5ad582386cdc7f20E+0x12>
    80000374:	6522                	ld	a0,8(sp)
    80000376:	0000b097          	auipc	ra,0xb
    8000037a:	f4a080e7          	jalr	-182(ra) # 8000b2c0 <_ZN4core3ptr8non_null16NonNull$LT$T$GT$13new_unchecked17hc7cc5342eb94e042E>
    8000037e:	e02a                	sd	a0,0(sp)
    80000380:	a009                	j	80000382 <_ZN4core3ptr8non_null16NonNull$LT$T$GT$4cast17h5ad582386cdc7f20E+0x20>
    80000382:	6502                	ld	a0,0(sp)
    80000384:	60e2                	ld	ra,24(sp)
    80000386:	6105                	addi	sp,sp,32
    80000388:	8082                	ret

000000008000038a <_ZN4core3ptr8non_null16NonNull$LT$T$GT$4cast17h7d7fe26edb79229fE>:
    8000038a:	7179                	addi	sp,sp,-48
    8000038c:	f406                	sd	ra,40(sp)
    8000038e:	ec2a                	sd	a0,24(sp)
    80000390:	f02e                	sd	a1,32(sp)
    80000392:	0000b097          	auipc	ra,0xb
    80000396:	f80080e7          	jalr	-128(ra) # 8000b312 <_ZN4core3ptr8non_null16NonNull$LT$T$GT$6as_ptr17h3a49b6f3d2efaa39E>
    8000039a:	e82a                	sd	a0,16(sp)
    8000039c:	a009                	j	8000039e <_ZN4core3ptr8non_null16NonNull$LT$T$GT$4cast17h7d7fe26edb79229fE+0x14>
    8000039e:	6542                	ld	a0,16(sp)
    800003a0:	0000b097          	auipc	ra,0xb
    800003a4:	f20080e7          	jalr	-224(ra) # 8000b2c0 <_ZN4core3ptr8non_null16NonNull$LT$T$GT$13new_unchecked17hc7cc5342eb94e042E>
    800003a8:	e42a                	sd	a0,8(sp)
    800003aa:	a009                	j	800003ac <_ZN4core3ptr8non_null16NonNull$LT$T$GT$4cast17h7d7fe26edb79229fE+0x22>
    800003ac:	6522                	ld	a0,8(sp)
    800003ae:	70a2                	ld	ra,40(sp)
    800003b0:	6145                	addi	sp,sp,48
    800003b2:	8082                	ret

00000000800003b4 <_ZN4core3ptr8non_null16NonNull$LT$T$GT$6as_mut17h9c581d26c3e1b9f3E>:
    800003b4:	1101                	addi	sp,sp,-32
    800003b6:	ec06                	sd	ra,24(sp)
    800003b8:	e82a                	sd	a0,16(sp)
    800003ba:	6108                	ld	a0,0(a0)
    800003bc:	00000097          	auipc	ra,0x0
    800003c0:	06c080e7          	jalr	108(ra) # 80000428 <_ZN4core3ptr8non_null16NonNull$LT$T$GT$6as_ptr17hd655ec0688590a3bE>
    800003c4:	e42a                	sd	a0,8(sp)
    800003c6:	a009                	j	800003c8 <_ZN4core3ptr8non_null16NonNull$LT$T$GT$6as_mut17h9c581d26c3e1b9f3E+0x14>
    800003c8:	6522                	ld	a0,8(sp)
    800003ca:	60e2                	ld	ra,24(sp)
    800003cc:	6105                	addi	sp,sp,32
    800003ce:	8082                	ret

00000000800003d0 <_ZN4core3ptr8non_null16NonNull$LT$T$GT$6as_mut17h9d8d9a1547e48271E>:
    800003d0:	1101                	addi	sp,sp,-32
    800003d2:	ec06                	sd	ra,24(sp)
    800003d4:	e82a                	sd	a0,16(sp)
    800003d6:	6108                	ld	a0,0(a0)
    800003d8:	00000097          	auipc	ra,0x0
    800003dc:	048080e7          	jalr	72(ra) # 80000420 <_ZN4core3ptr8non_null16NonNull$LT$T$GT$6as_ptr17h89ead8799e224053E>
    800003e0:	e42a                	sd	a0,8(sp)
    800003e2:	a009                	j	800003e4 <_ZN4core3ptr8non_null16NonNull$LT$T$GT$6as_mut17h9d8d9a1547e48271E+0x14>
    800003e4:	6522                	ld	a0,8(sp)
    800003e6:	60e2                	ld	ra,24(sp)
    800003e8:	6105                	addi	sp,sp,32
    800003ea:	8082                	ret

00000000800003ec <_ZN4core3ptr8non_null16NonNull$LT$T$GT$6as_mut17hb9582caa28fb9065E>:
    800003ec:	1101                	addi	sp,sp,-32
    800003ee:	ec06                	sd	ra,24(sp)
    800003f0:	e82a                	sd	a0,16(sp)
    800003f2:	6108                	ld	a0,0(a0)
    800003f4:	00000097          	auipc	ra,0x0
    800003f8:	014080e7          	jalr	20(ra) # 80000408 <_ZN4core3ptr8non_null16NonNull$LT$T$GT$6as_ptr17h246cb5533d9d4750E>
    800003fc:	e42a                	sd	a0,8(sp)
    800003fe:	a009                	j	80000400 <_ZN4core3ptr8non_null16NonNull$LT$T$GT$6as_mut17hb9582caa28fb9065E+0x14>
    80000400:	6522                	ld	a0,8(sp)
    80000402:	60e2                	ld	ra,24(sp)
    80000404:	6105                	addi	sp,sp,32
    80000406:	8082                	ret

0000000080000408 <_ZN4core3ptr8non_null16NonNull$LT$T$GT$6as_ptr17h246cb5533d9d4750E>:
    80000408:	1141                	addi	sp,sp,-16
    8000040a:	e42a                	sd	a0,8(sp)
    8000040c:	0141                	addi	sp,sp,16
    8000040e:	8082                	ret

0000000080000410 <_ZN4core3ptr8non_null16NonNull$LT$T$GT$6as_ptr17h4ce5ce63b20c5568E>:
    80000410:	1141                	addi	sp,sp,-16
    80000412:	e42a                	sd	a0,8(sp)
    80000414:	0141                	addi	sp,sp,16
    80000416:	8082                	ret

0000000080000418 <_ZN4core3ptr8non_null16NonNull$LT$T$GT$6as_ptr17h562e01aee3272836E>:
    80000418:	1141                	addi	sp,sp,-16
    8000041a:	e42a                	sd	a0,8(sp)
    8000041c:	0141                	addi	sp,sp,16
    8000041e:	8082                	ret

0000000080000420 <_ZN4core3ptr8non_null16NonNull$LT$T$GT$6as_ptr17h89ead8799e224053E>:
    80000420:	1141                	addi	sp,sp,-16
    80000422:	e42a                	sd	a0,8(sp)
    80000424:	0141                	addi	sp,sp,16
    80000426:	8082                	ret

0000000080000428 <_ZN4core3ptr8non_null16NonNull$LT$T$GT$6as_ptr17hd655ec0688590a3bE>:
    80000428:	1141                	addi	sp,sp,-16
    8000042a:	e42a                	sd	a0,8(sp)
    8000042c:	0141                	addi	sp,sp,16
    8000042e:	8082                	ret

0000000080000430 <_ZN4core3ptr8non_null16NonNull$LT$T$GT$6as_ptr17hf15c6279b255414aE>:
    80000430:	1141                	addi	sp,sp,-16
    80000432:	e42a                	sd	a0,8(sp)
    80000434:	0141                	addi	sp,sp,16
    80000436:	8082                	ret

0000000080000438 <_ZN4core3ptr8non_null16NonNull$LT$T$GT$6as_ref17h752a3d30e5924419E>:
    80000438:	1101                	addi	sp,sp,-32
    8000043a:	ec06                	sd	ra,24(sp)
    8000043c:	e82a                	sd	a0,16(sp)
    8000043e:	6108                	ld	a0,0(a0)
    80000440:	00000097          	auipc	ra,0x0
    80000444:	fc8080e7          	jalr	-56(ra) # 80000408 <_ZN4core3ptr8non_null16NonNull$LT$T$GT$6as_ptr17h246cb5533d9d4750E>
    80000448:	e42a                	sd	a0,8(sp)
    8000044a:	a009                	j	8000044c <_ZN4core3ptr8non_null16NonNull$LT$T$GT$6as_ref17h752a3d30e5924419E+0x14>
    8000044c:	6522                	ld	a0,8(sp)
    8000044e:	60e2                	ld	ra,24(sp)
    80000450:	6105                	addi	sp,sp,32
    80000452:	8082                	ret

0000000080000454 <_ZN4core3ptr8non_null16NonNull$LT$T$GT$6as_ref17ha923d4309c2a0f71E>:
    80000454:	1101                	addi	sp,sp,-32
    80000456:	ec06                	sd	ra,24(sp)
    80000458:	e82a                	sd	a0,16(sp)
    8000045a:	6108                	ld	a0,0(a0)
    8000045c:	00000097          	auipc	ra,0x0
    80000460:	fd4080e7          	jalr	-44(ra) # 80000430 <_ZN4core3ptr8non_null16NonNull$LT$T$GT$6as_ptr17hf15c6279b255414aE>
    80000464:	e42a                	sd	a0,8(sp)
    80000466:	a009                	j	80000468 <_ZN4core3ptr8non_null16NonNull$LT$T$GT$6as_ref17ha923d4309c2a0f71E+0x14>
    80000468:	6522                	ld	a0,8(sp)
    8000046a:	60e2                	ld	ra,24(sp)
    8000046c:	6105                	addi	sp,sp,32
    8000046e:	8082                	ret

0000000080000470 <_ZN4core3ptr8non_null16NonNull$LT$T$GT$6as_ref17hb9d604a09c81a71aE>:
    80000470:	1101                	addi	sp,sp,-32
    80000472:	ec06                	sd	ra,24(sp)
    80000474:	e82a                	sd	a0,16(sp)
    80000476:	6108                	ld	a0,0(a0)
    80000478:	00000097          	auipc	ra,0x0
    8000047c:	fb0080e7          	jalr	-80(ra) # 80000428 <_ZN4core3ptr8non_null16NonNull$LT$T$GT$6as_ptr17hd655ec0688590a3bE>
    80000480:	e42a                	sd	a0,8(sp)
    80000482:	a009                	j	80000484 <_ZN4core3ptr8non_null16NonNull$LT$T$GT$6as_ref17hb9d604a09c81a71aE+0x14>
    80000484:	6522                	ld	a0,8(sp)
    80000486:	60e2                	ld	ra,24(sp)
    80000488:	6105                	addi	sp,sp,32
    8000048a:	8082                	ret

000000008000048c <_ZN4core3ptr8non_null16NonNull$LT$T$GT$6as_ref17hc74af42907214770E>:
    8000048c:	1101                	addi	sp,sp,-32
    8000048e:	ec06                	sd	ra,24(sp)
    80000490:	e82a                	sd	a0,16(sp)
    80000492:	6108                	ld	a0,0(a0)
    80000494:	00000097          	auipc	ra,0x0
    80000498:	f7c080e7          	jalr	-132(ra) # 80000410 <_ZN4core3ptr8non_null16NonNull$LT$T$GT$6as_ptr17h4ce5ce63b20c5568E>
    8000049c:	e42a                	sd	a0,8(sp)
    8000049e:	a009                	j	800004a0 <_ZN4core3ptr8non_null16NonNull$LT$T$GT$6as_ref17hc74af42907214770E+0x14>
    800004a0:	6522                	ld	a0,8(sp)
    800004a2:	60e2                	ld	ra,24(sp)
    800004a4:	6105                	addi	sp,sp,32
    800004a6:	8082                	ret

00000000800004a8 <_ZN4core3ptr8non_null16NonNull$LT$T$GT$6as_ref17hccaf975cc007567bE>:
    800004a8:	1101                	addi	sp,sp,-32
    800004aa:	ec06                	sd	ra,24(sp)
    800004ac:	e82a                	sd	a0,16(sp)
    800004ae:	6108                	ld	a0,0(a0)
    800004b0:	00000097          	auipc	ra,0x0
    800004b4:	f70080e7          	jalr	-144(ra) # 80000420 <_ZN4core3ptr8non_null16NonNull$LT$T$GT$6as_ptr17h89ead8799e224053E>
    800004b8:	e42a                	sd	a0,8(sp)
    800004ba:	a009                	j	800004bc <_ZN4core3ptr8non_null16NonNull$LT$T$GT$6as_ref17hccaf975cc007567bE+0x14>
    800004bc:	6522                	ld	a0,8(sp)
    800004be:	60e2                	ld	ra,24(sp)
    800004c0:	6105                	addi	sp,sp,32
    800004c2:	8082                	ret

00000000800004c4 <_ZN4core3ptr8non_null16NonNull$LT$T$GT$6as_ref17hf9a5392f9c4db6b2E>:
    800004c4:	1101                	addi	sp,sp,-32
    800004c6:	ec06                	sd	ra,24(sp)
    800004c8:	e82a                	sd	a0,16(sp)
    800004ca:	6108                	ld	a0,0(a0)
    800004cc:	00000097          	auipc	ra,0x0
    800004d0:	f4c080e7          	jalr	-180(ra) # 80000418 <_ZN4core3ptr8non_null16NonNull$LT$T$GT$6as_ptr17h562e01aee3272836E>
    800004d4:	e42a                	sd	a0,8(sp)
    800004d6:	a009                	j	800004d8 <_ZN4core3ptr8non_null16NonNull$LT$T$GT$6as_ref17hf9a5392f9c4db6b2E+0x14>
    800004d8:	6522                	ld	a0,8(sp)
    800004da:	60e2                	ld	ra,24(sp)
    800004dc:	6105                	addi	sp,sp,32
    800004de:	8082                	ret

00000000800004e0 <_ZN4core3ptr8non_null16NonNull$LT$T$GT$8dangling17h5e5629cd80132298E>:
    800004e0:	1101                	addi	sp,sp,-32
    800004e2:	ec06                	sd	ra,24(sp)
    800004e4:	a009                	j	800004e6 <_ZN4core3ptr8non_null16NonNull$LT$T$GT$8dangling17h5e5629cd80132298E+0x6>
    800004e6:	4505                	li	a0,1
    800004e8:	e82a                	sd	a0,16(sp)
    800004ea:	e42a                	sd	a0,8(sp)
    800004ec:	a009                	j	800004ee <_ZN4core3ptr8non_null16NonNull$LT$T$GT$8dangling17h5e5629cd80132298E+0xe>
    800004ee:	4505                	li	a0,1
    800004f0:	0000b097          	auipc	ra,0xb
    800004f4:	dd0080e7          	jalr	-560(ra) # 8000b2c0 <_ZN4core3ptr8non_null16NonNull$LT$T$GT$13new_unchecked17hc7cc5342eb94e042E>
    800004f8:	e02a                	sd	a0,0(sp)
    800004fa:	a009                	j	800004fc <_ZN4core3ptr8non_null16NonNull$LT$T$GT$8dangling17h5e5629cd80132298E+0x1c>
    800004fc:	6502                	ld	a0,0(sp)
    800004fe:	60e2                	ld	ra,24(sp)
    80000500:	6105                	addi	sp,sp,32
    80000502:	8082                	ret

0000000080000504 <_ZN4core3ptr8non_null26NonNull$LT$$u5b$T$u5d$$GT$10as_mut_ptr17ha9983cf1548c75dbE>:
    80000504:	7179                	addi	sp,sp,-48
    80000506:	f406                	sd	ra,40(sp)
    80000508:	ec2a                	sd	a0,24(sp)
    8000050a:	f02e                	sd	a1,32(sp)
    8000050c:	00000097          	auipc	ra,0x0
    80000510:	022080e7          	jalr	34(ra) # 8000052e <_ZN4core3ptr8non_null26NonNull$LT$$u5b$T$u5d$$GT$15as_non_null_ptr17ha118de852b41760bE>
    80000514:	e82a                	sd	a0,16(sp)
    80000516:	a009                	j	80000518 <_ZN4core3ptr8non_null26NonNull$LT$$u5b$T$u5d$$GT$10as_mut_ptr17ha9983cf1548c75dbE+0x14>
    80000518:	6542                	ld	a0,16(sp)
    8000051a:	0000b097          	auipc	ra,0xb
    8000051e:	df0080e7          	jalr	-528(ra) # 8000b30a <_ZN4core3ptr8non_null16NonNull$LT$T$GT$6as_ptr17h1b65225553c65292E>
    80000522:	e42a                	sd	a0,8(sp)
    80000524:	a009                	j	80000526 <_ZN4core3ptr8non_null26NonNull$LT$$u5b$T$u5d$$GT$10as_mut_ptr17ha9983cf1548c75dbE+0x22>
    80000526:	6522                	ld	a0,8(sp)
    80000528:	70a2                	ld	ra,40(sp)
    8000052a:	6145                	addi	sp,sp,48
    8000052c:	8082                	ret

000000008000052e <_ZN4core3ptr8non_null26NonNull$LT$$u5b$T$u5d$$GT$15as_non_null_ptr17ha118de852b41760bE>:
    8000052e:	715d                	addi	sp,sp,-80
    80000530:	e486                	sd	ra,72(sp)
    80000532:	f42a                	sd	a0,40(sp)
    80000534:	f82e                	sd	a1,48(sp)
    80000536:	0000b097          	auipc	ra,0xb
    8000053a:	ddc080e7          	jalr	-548(ra) # 8000b312 <_ZN4core3ptr8non_null16NonNull$LT$T$GT$6as_ptr17h3a49b6f3d2efaa39E>
    8000053e:	ec2a                	sd	a0,24(sp)
    80000540:	f02e                	sd	a1,32(sp)
    80000542:	a009                	j	80000544 <_ZN4core3ptr8non_null26NonNull$LT$$u5b$T$u5d$$GT$15as_non_null_ptr17ha118de852b41760bE+0x16>
    80000544:	6562                	ld	a0,24(sp)
    80000546:	7582                	ld	a1,32(sp)
    80000548:	fc2a                	sd	a0,56(sp)
    8000054a:	e0ae                	sd	a1,64(sp)
    8000054c:	e82a                	sd	a0,16(sp)
    8000054e:	a009                	j	80000550 <_ZN4core3ptr8non_null26NonNull$LT$$u5b$T$u5d$$GT$15as_non_null_ptr17ha118de852b41760bE+0x22>
    80000550:	6542                	ld	a0,16(sp)
    80000552:	0000b097          	auipc	ra,0xb
    80000556:	d6e080e7          	jalr	-658(ra) # 8000b2c0 <_ZN4core3ptr8non_null16NonNull$LT$T$GT$13new_unchecked17hc7cc5342eb94e042E>
    8000055a:	e42a                	sd	a0,8(sp)
    8000055c:	a009                	j	8000055e <_ZN4core3ptr8non_null26NonNull$LT$$u5b$T$u5d$$GT$15as_non_null_ptr17ha118de852b41760bE+0x30>
    8000055e:	6522                	ld	a0,8(sp)
    80000560:	60a6                	ld	ra,72(sp)
    80000562:	6161                	addi	sp,sp,80
    80000564:	8082                	ret

0000000080000566 <_ZN98_$LT$core..ptr..non_null..NonNull$LT$T$GT$$u20$as$u20$core..convert..From$LT$$RF$mut$u20$T$GT$$GT$4from17h2d70faad09df09f7E>:
    80000566:	1141                	addi	sp,sp,-16
    80000568:	e42a                	sd	a0,8(sp)
    8000056a:	e02a                	sd	a0,0(sp)
    8000056c:	0141                	addi	sp,sp,16
    8000056e:	8082                	ret

0000000080000570 <_ZN98_$LT$core..ptr..non_null..NonNull$LT$T$GT$$u20$as$u20$core..convert..From$LT$$RF$mut$u20$T$GT$$GT$4from17h9b90176853be0ad9E>:
    80000570:	1141                	addi	sp,sp,-16
    80000572:	e42a                	sd	a0,8(sp)
    80000574:	e02a                	sd	a0,0(sp)
    80000576:	0141                	addi	sp,sp,16
    80000578:	8082                	ret

000000008000057a <_ZN98_$LT$core..ptr..non_null..NonNull$LT$T$GT$$u20$as$u20$core..convert..From$LT$$RF$mut$u20$T$GT$$GT$4from17hb1b69e3036433d82E>:
    8000057a:	1141                	addi	sp,sp,-16
    8000057c:	e42a                	sd	a0,8(sp)
    8000057e:	e02a                	sd	a0,0(sp)
    80000580:	0141                	addi	sp,sp,16
    80000582:	8082                	ret

0000000080000584 <_ZN4core3fmt9Arguments6new_v117hb9c4816a17cef4b5E>:
    80000584:	7135                	addi	sp,sp,-160
    80000586:	ed06                	sd	ra,152(sp)
    80000588:	e43a                	sd	a4,8(sp)
    8000058a:	e836                	sd	a3,16(sp)
    8000058c:	ec32                	sd	a2,24(sp)
    8000058e:	f02e                	sd	a1,32(sp)
    80000590:	f42a                	sd	a0,40(sp)
    80000592:	fcae                	sd	a1,120(sp)
    80000594:	e132                	sd	a2,128(sp)
    80000596:	e536                	sd	a3,136(sp)
    80000598:	e93a                	sd	a4,144(sp)
    8000059a:	00e66b63          	bltu	a2,a4,800005b0 <_ZN4core3fmt9Arguments6new_v117hb9c4816a17cef4b5E+0x2c>
    8000059e:	a009                	j	800005a0 <_ZN4core3fmt9Arguments6new_v117hb9c4816a17cef4b5E+0x1c>
    800005a0:	65e2                	ld	a1,24(sp)
    800005a2:	6522                	ld	a0,8(sp)
    800005a4:	0505                	addi	a0,a0,1
    800005a6:	00b53533          	sltu	a0,a0,a1
    800005aa:	02a10ba3          	sb	a0,55(sp)
    800005ae:	a029                	j	800005b8 <_ZN4core3fmt9Arguments6new_v117hb9c4816a17cef4b5E+0x34>
    800005b0:	4505                	li	a0,1
    800005b2:	02a10ba3          	sb	a0,55(sp)
    800005b6:	a009                	j	800005b8 <_ZN4core3fmt9Arguments6new_v117hb9c4816a17cef4b5E+0x34>
    800005b8:	03714503          	lbu	a0,55(sp)
    800005bc:	8905                	andi	a0,a0,1
    800005be:	4581                	li	a1,0
    800005c0:	02b51563          	bne	a0,a1,800005ea <.LBB0_7>
    800005c4:	a009                	j	800005c6 <_ZN4core3fmt9Arguments6new_v117hb9c4816a17cef4b5E+0x42>
    800005c6:	6522                	ld	a0,8(sp)
    800005c8:	75a2                	ld	a1,40(sp)
    800005ca:	6642                	ld	a2,16(sp)
    800005cc:	66e2                	ld	a3,24(sp)
    800005ce:	7702                	ld	a4,32(sp)
    800005d0:	4781                	li	a5,0
    800005d2:	f4be                	sd	a5,104(sp)
    800005d4:	e198                	sd	a4,0(a1)
    800005d6:	e594                	sd	a3,8(a1)
    800005d8:	7726                	ld	a4,104(sp)
    800005da:	76c6                	ld	a3,112(sp)
    800005dc:	e998                	sd	a4,16(a1)
    800005de:	ed94                	sd	a3,24(a1)
    800005e0:	f190                	sd	a2,32(a1)
    800005e2:	f588                	sd	a0,40(a1)
    800005e4:	60ea                	ld	ra,152(sp)
    800005e6:	610d                	addi	sp,sp,160
    800005e8:	8082                	ret

00000000800005ea <.LBB0_7>:
    800005ea:	0000d597          	auipc	a1,0xd
    800005ee:	a3658593          	addi	a1,a1,-1482 # 8000d020 <.L__unnamed_1>

00000000800005f2 <.LBB0_8>:
    800005f2:	0000d697          	auipc	a3,0xd
    800005f6:	a3e68693          	addi	a3,a3,-1474 # 8000d030 <.L__unnamed_5>
    800005fa:	1828                	addi	a0,sp,56
    800005fc:	4605                	li	a2,1
    800005fe:	4701                	li	a4,0
    80000600:	00000097          	auipc	ra,0x0
    80000604:	f84080e7          	jalr	-124(ra) # 80000584 <_ZN4core3fmt9Arguments6new_v117hb9c4816a17cef4b5E>
    80000608:	a009                	j	8000060a <.LBB0_9>

000000008000060a <.LBB0_9>:
    8000060a:	0000d597          	auipc	a1,0xd
    8000060e:	a7658593          	addi	a1,a1,-1418 # 8000d080 <.L__unnamed_3>
    80000612:	1828                	addi	a0,sp,56
    80000614:	00000097          	auipc	ra,0x0
    80000618:	b6e080e7          	jalr	-1170(ra) # 80000182 <_ZN4core9panicking9panic_fmt17h6b2572f97fe23736E>
	...

000000008000061e <_ZN4core5slice3raw14from_raw_parts17h9eea1d584cc86ae3E>:
    8000061e:	7179                	addi	sp,sp,-48
    80000620:	f406                	sd	ra,40(sp)
    80000622:	ec2a                	sd	a0,24(sp)
    80000624:	f02e                	sd	a1,32(sp)
    80000626:	00004097          	auipc	ra,0x4
    8000062a:	0a6080e7          	jalr	166(ra) # 800046cc <_ZN4core3ptr20slice_from_raw_parts17h5feb124327b2356bE>
    8000062e:	e42a                	sd	a0,8(sp)
    80000630:	e82e                	sd	a1,16(sp)
    80000632:	a009                	j	80000634 <_ZN4core5slice3raw14from_raw_parts17h9eea1d584cc86ae3E+0x16>
    80000634:	65c2                	ld	a1,16(sp)
    80000636:	6522                	ld	a0,8(sp)
    80000638:	70a2                	ld	ra,40(sp)
    8000063a:	6145                	addi	sp,sp,48
    8000063c:	8082                	ret

000000008000063e <_ZN106_$LT$core..ops..range..Range$LT$usize$GT$$u20$as$u20$core..slice..index..SliceIndex$LT$$u5b$T$u5d$$GT$$GT$17get_unchecked_mut17h9404d1ee393608b4E>:
    8000063e:	7171                	addi	sp,sp,-176
    80000640:	f506                	sd	ra,168(sp)
    80000642:	f02e                	sd	a1,32(sp)
    80000644:	f42a                	sd	a0,40(sp)
    80000646:	e8aa                	sd	a0,80(sp)
    80000648:	ecae                	sd	a1,88(sp)
    8000064a:	f0b2                	sd	a2,96(sp)
    8000064c:	f4b6                	sd	a3,104(sp)
    8000064e:	ed32                	sd	a2,152(sp)
    80000650:	f136                	sd	a3,160(sp)
    80000652:	f832                	sd	a2,48(sp)
    80000654:	a009                	j	80000656 <_ZN106_$LT$core..ops..range..Range$LT$usize$GT$$u20$as$u20$core..slice..index..SliceIndex$LT$$u5b$T$u5d$$GT$$GT$17get_unchecked_mut17h9404d1ee393608b4E+0x18>
    80000656:	7542                	ld	a0,48(sp)
    80000658:	75a2                	ld	a1,40(sp)
    8000065a:	f8aa                	sd	a0,112(sp)
    8000065c:	fcae                	sd	a1,120(sp)
    8000065e:	e12a                	sd	a0,128(sp)
    80000660:	e52e                	sd	a1,136(sp)
    80000662:	952e                	add	a0,a0,a1
    80000664:	ec2a                	sd	a0,24(sp)
    80000666:	e92a                	sd	a0,144(sp)
    80000668:	a009                	j	8000066a <_ZN106_$LT$core..ops..range..Range$LT$usize$GT$$u20$as$u20$core..slice..index..SliceIndex$LT$$u5b$T$u5d$$GT$$GT$17get_unchecked_mut17h9404d1ee393608b4E+0x2c>
    8000066a:	6562                	ld	a0,24(sp)
    8000066c:	7582                	ld	a1,32(sp)
    8000066e:	7622                	ld	a2,40(sp)
    80000670:	8d91                	sub	a1,a1,a2
    80000672:	0000b097          	auipc	ra,0xb
    80000676:	038080e7          	jalr	56(ra) # 8000b6aa <_ZN4core3ptr24slice_from_raw_parts_mut17h4922e77c23e63ca1E>
    8000067a:	e42a                	sd	a0,8(sp)
    8000067c:	e82e                	sd	a1,16(sp)
    8000067e:	a009                	j	80000680 <_ZN106_$LT$core..ops..range..Range$LT$usize$GT$$u20$as$u20$core..slice..index..SliceIndex$LT$$u5b$T$u5d$$GT$$GT$17get_unchecked_mut17h9404d1ee393608b4E+0x42>
    80000680:	65c2                	ld	a1,16(sp)
    80000682:	6522                	ld	a0,8(sp)
    80000684:	70aa                	ld	ra,168(sp)
    80000686:	614d                	addi	sp,sp,176
    80000688:	8082                	ret

000000008000068a <_ZN106_$LT$core..ops..range..Range$LT$usize$GT$$u20$as$u20$core..slice..index..SliceIndex$LT$$u5b$T$u5d$$GT$$GT$9index_mut17hef11619d1045f912E>:
    8000068a:	711d                	addi	sp,sp,-96
    8000068c:	ec86                	sd	ra,88(sp)
    8000068e:	e83a                	sd	a4,16(sp)
    80000690:	ec36                	sd	a3,24(sp)
    80000692:	f032                	sd	a2,32(sp)
    80000694:	f42e                	sd	a1,40(sp)
    80000696:	f82a                	sd	a0,48(sp)
    80000698:	fc2a                	sd	a0,56(sp)
    8000069a:	e0ae                	sd	a1,64(sp)
    8000069c:	e4b2                	sd	a2,72(sp)
    8000069e:	e8b6                	sd	a3,80(sp)
    800006a0:	00a5e863          	bltu	a1,a0,800006b0 <_ZN106_$LT$core..ops..range..Range$LT$usize$GT$$u20$as$u20$core..slice..index..SliceIndex$LT$$u5b$T$u5d$$GT$$GT$9index_mut17hef11619d1045f912E+0x26>
    800006a4:	a009                	j	800006a6 <_ZN106_$LT$core..ops..range..Range$LT$usize$GT$$u20$as$u20$core..slice..index..SliceIndex$LT$$u5b$T$u5d$$GT$$GT$9index_mut17hef11619d1045f912E+0x1c>
    800006a6:	6562                	ld	a0,24(sp)
    800006a8:	75a2                	ld	a1,40(sp)
    800006aa:	02b56663          	bltu	a0,a1,800006d6 <_ZN106_$LT$core..ops..range..Range$LT$usize$GT$$u20$as$u20$core..slice..index..SliceIndex$LT$$u5b$T$u5d$$GT$$GT$9index_mut17hef11619d1045f912E+0x4c>
    800006ae:	a809                	j	800006c0 <_ZN106_$LT$core..ops..range..Range$LT$usize$GT$$u20$as$u20$core..slice..index..SliceIndex$LT$$u5b$T$u5d$$GT$$GT$9index_mut17hef11619d1045f912E+0x36>
    800006b0:	6642                	ld	a2,16(sp)
    800006b2:	75a2                	ld	a1,40(sp)
    800006b4:	7542                	ld	a0,48(sp)
    800006b6:	00000097          	auipc	ra,0x0
    800006ba:	b62080e7          	jalr	-1182(ra) # 80000218 <_ZN4core5slice5index22slice_index_order_fail17h9823c22aab25aa16E>
    800006be:	0000                	unimp
    800006c0:	66e2                	ld	a3,24(sp)
    800006c2:	7602                	ld	a2,32(sp)
    800006c4:	75a2                	ld	a1,40(sp)
    800006c6:	7542                	ld	a0,48(sp)
    800006c8:	00000097          	auipc	ra,0x0
    800006cc:	f76080e7          	jalr	-138(ra) # 8000063e <_ZN106_$LT$core..ops..range..Range$LT$usize$GT$$u20$as$u20$core..slice..index..SliceIndex$LT$$u5b$T$u5d$$GT$$GT$17get_unchecked_mut17h9404d1ee393608b4E>
    800006d0:	e02a                	sd	a0,0(sp)
    800006d2:	e42e                	sd	a1,8(sp)
    800006d4:	a809                	j	800006e6 <_ZN106_$LT$core..ops..range..Range$LT$usize$GT$$u20$as$u20$core..slice..index..SliceIndex$LT$$u5b$T$u5d$$GT$$GT$9index_mut17hef11619d1045f912E+0x5c>
    800006d6:	6642                	ld	a2,16(sp)
    800006d8:	65e2                	ld	a1,24(sp)
    800006da:	7522                	ld	a0,40(sp)
    800006dc:	00000097          	auipc	ra,0x0
    800006e0:	b2e080e7          	jalr	-1234(ra) # 8000020a <_ZN4core5slice5index24slice_end_index_len_fail17h50acd3805615c6dcE>
    800006e4:	0000                	unimp
    800006e6:	65a2                	ld	a1,8(sp)
    800006e8:	6502                	ld	a0,0(sp)
    800006ea:	60e6                	ld	ra,88(sp)
    800006ec:	6125                	addi	sp,sp,96
    800006ee:	8082                	ret

00000000800006f0 <_ZN108_$LT$core..ops..range..RangeTo$LT$usize$GT$$u20$as$u20$core..slice..index..SliceIndex$LT$$u5b$T$u5d$$GT$$GT$9index_mut17h561121f6c1986b37E>:
    800006f0:	7139                	addi	sp,sp,-64
    800006f2:	fc06                	sd	ra,56(sp)
    800006f4:	8736                	mv	a4,a3
    800006f6:	86b2                	mv	a3,a2
    800006f8:	862e                	mv	a2,a1
    800006fa:	85aa                	mv	a1,a0
    800006fc:	f02e                	sd	a1,32(sp)
    800006fe:	f432                	sd	a2,40(sp)
    80000700:	f836                	sd	a3,48(sp)
    80000702:	4501                	li	a0,0
    80000704:	e82a                	sd	a0,16(sp)
    80000706:	ec2e                	sd	a1,24(sp)
    80000708:	00000097          	auipc	ra,0x0
    8000070c:	f82080e7          	jalr	-126(ra) # 8000068a <_ZN106_$LT$core..ops..range..Range$LT$usize$GT$$u20$as$u20$core..slice..index..SliceIndex$LT$$u5b$T$u5d$$GT$$GT$9index_mut17hef11619d1045f912E>
    80000710:	e02a                	sd	a0,0(sp)
    80000712:	e42e                	sd	a1,8(sp)
    80000714:	a009                	j	80000716 <_ZN108_$LT$core..ops..range..RangeTo$LT$usize$GT$$u20$as$u20$core..slice..index..SliceIndex$LT$$u5b$T$u5d$$GT$$GT$9index_mut17h561121f6c1986b37E+0x26>
    80000716:	65a2                	ld	a1,8(sp)
    80000718:	6502                	ld	a0,0(sp)
    8000071a:	70e2                	ld	ra,56(sp)
    8000071c:	6121                	addi	sp,sp,64
    8000071e:	8082                	ret

0000000080000720 <_ZN97_$LT$core..ops..range..RangeFull$u20$as$u20$core..slice..index..SliceIndex$LT$$u5b$T$u5d$$GT$$GT$9index_mut17h16d215158e462c25E>:
    80000720:	1101                	addi	sp,sp,-32
    80000722:	e82a                	sd	a0,16(sp)
    80000724:	ec2e                	sd	a1,24(sp)
    80000726:	6105                	addi	sp,sp,32
    80000728:	8082                	ret

000000008000072a <_ZN119_$LT$core..ptr..unique..Unique$LT$T$GT$$u20$as$u20$core..convert..From$LT$core..ptr..non_null..NonNull$LT$T$GT$$GT$$GT$4from17hf62b0a2647f4fa18E>:
    8000072a:	1141                	addi	sp,sp,-16
    8000072c:	e42a                	sd	a0,8(sp)
    8000072e:	e02a                	sd	a0,0(sp)
    80000730:	0141                	addi	sp,sp,16
    80000732:	8082                	ret

0000000080000734 <_ZN4core3ptr6unique15Unique$LT$T$GT$13new_unchecked17hbf3d7531428f82b3E>:
    80000734:	1101                	addi	sp,sp,-32
    80000736:	ec06                	sd	ra,24(sp)
    80000738:	e82a                	sd	a0,16(sp)
    8000073a:	0000b097          	auipc	ra,0xb
    8000073e:	b86080e7          	jalr	-1146(ra) # 8000b2c0 <_ZN4core3ptr8non_null16NonNull$LT$T$GT$13new_unchecked17hc7cc5342eb94e042E>
    80000742:	e02a                	sd	a0,0(sp)
    80000744:	a009                	j	80000746 <_ZN4core3ptr6unique15Unique$LT$T$GT$13new_unchecked17hbf3d7531428f82b3E+0x12>
    80000746:	6502                	ld	a0,0(sp)
    80000748:	e42a                	sd	a0,8(sp)
    8000074a:	60e2                	ld	ra,24(sp)
    8000074c:	6105                	addi	sp,sp,32
    8000074e:	8082                	ret

0000000080000750 <_ZN4core3ptr6unique15Unique$LT$T$GT$4cast17hda4bd9029bc083e8E>:
    80000750:	1101                	addi	sp,sp,-32
    80000752:	ec06                	sd	ra,24(sp)
    80000754:	e82a                	sd	a0,16(sp)
    80000756:	00000097          	auipc	ra,0x0
    8000075a:	be4080e7          	jalr	-1052(ra) # 8000033a <_ZN4core3ptr8non_null16NonNull$LT$T$GT$4cast17h25013ebb6b924cc4E>
    8000075e:	e42a                	sd	a0,8(sp)
    80000760:	a009                	j	80000762 <_ZN4core3ptr6unique15Unique$LT$T$GT$4cast17hda4bd9029bc083e8E+0x12>
    80000762:	6522                	ld	a0,8(sp)
    80000764:	00000097          	auipc	ra,0x0
    80000768:	fc6080e7          	jalr	-58(ra) # 8000072a <_ZN119_$LT$core..ptr..unique..Unique$LT$T$GT$$u20$as$u20$core..convert..From$LT$core..ptr..non_null..NonNull$LT$T$GT$$GT$$GT$4from17hf62b0a2647f4fa18E>
    8000076c:	e02a                	sd	a0,0(sp)
    8000076e:	a009                	j	80000770 <_ZN4core3ptr6unique15Unique$LT$T$GT$4cast17hda4bd9029bc083e8E+0x20>
    80000770:	6502                	ld	a0,0(sp)
    80000772:	60e2                	ld	ra,24(sp)
    80000774:	6105                	addi	sp,sp,32
    80000776:	8082                	ret

0000000080000778 <_ZN4core3ptr6unique15Unique$LT$T$GT$6as_ptr17h493c6beb778acd16E>:
    80000778:	1101                	addi	sp,sp,-32
    8000077a:	ec06                	sd	ra,24(sp)
    8000077c:	e82a                	sd	a0,16(sp)
    8000077e:	00000097          	auipc	ra,0x0
    80000782:	cb2080e7          	jalr	-846(ra) # 80000430 <_ZN4core3ptr8non_null16NonNull$LT$T$GT$6as_ptr17hf15c6279b255414aE>
    80000786:	e42a                	sd	a0,8(sp)
    80000788:	a009                	j	8000078a <_ZN4core3ptr6unique15Unique$LT$T$GT$6as_ptr17h493c6beb778acd16E+0x12>
    8000078a:	6522                	ld	a0,8(sp)
    8000078c:	60e2                	ld	ra,24(sp)
    8000078e:	6105                	addi	sp,sp,32
    80000790:	8082                	ret

0000000080000792 <_ZN4core3ptr6unique15Unique$LT$T$GT$6as_ptr17h81a5acbc08b0dc0eE>:
    80000792:	1101                	addi	sp,sp,-32
    80000794:	ec06                	sd	ra,24(sp)
    80000796:	e82a                	sd	a0,16(sp)
    80000798:	00000097          	auipc	ra,0x0
    8000079c:	c78080e7          	jalr	-904(ra) # 80000410 <_ZN4core3ptr8non_null16NonNull$LT$T$GT$6as_ptr17h4ce5ce63b20c5568E>
    800007a0:	e42a                	sd	a0,8(sp)
    800007a2:	a009                	j	800007a4 <_ZN4core3ptr6unique15Unique$LT$T$GT$6as_ptr17h81a5acbc08b0dc0eE+0x12>
    800007a4:	6522                	ld	a0,8(sp)
    800007a6:	60e2                	ld	ra,24(sp)
    800007a8:	6105                	addi	sp,sp,32
    800007aa:	8082                	ret

00000000800007ac <_ZN4core3ptr6unique15Unique$LT$T$GT$6as_ptr17ha3fac7100e189d6cE>:
    800007ac:	1101                	addi	sp,sp,-32
    800007ae:	ec06                	sd	ra,24(sp)
    800007b0:	e82a                	sd	a0,16(sp)
    800007b2:	00000097          	auipc	ra,0x0
    800007b6:	c66080e7          	jalr	-922(ra) # 80000418 <_ZN4core3ptr8non_null16NonNull$LT$T$GT$6as_ptr17h562e01aee3272836E>
    800007ba:	e42a                	sd	a0,8(sp)
    800007bc:	a009                	j	800007be <_ZN4core3ptr6unique15Unique$LT$T$GT$6as_ptr17ha3fac7100e189d6cE+0x12>
    800007be:	6522                	ld	a0,8(sp)
    800007c0:	60e2                	ld	ra,24(sp)
    800007c2:	6105                	addi	sp,sp,32
    800007c4:	8082                	ret

00000000800007c6 <_ZN4core3ptr6unique15Unique$LT$T$GT$6as_ptr17hdee3c3378d47d07eE>:
    800007c6:	1101                	addi	sp,sp,-32
    800007c8:	ec06                	sd	ra,24(sp)
    800007ca:	e82a                	sd	a0,16(sp)
    800007cc:	0000b097          	auipc	ra,0xb
    800007d0:	b3e080e7          	jalr	-1218(ra) # 8000b30a <_ZN4core3ptr8non_null16NonNull$LT$T$GT$6as_ptr17h1b65225553c65292E>
    800007d4:	e42a                	sd	a0,8(sp)
    800007d6:	a009                	j	800007d8 <_ZN4core3ptr6unique15Unique$LT$T$GT$6as_ptr17hdee3c3378d47d07eE+0x12>
    800007d8:	6522                	ld	a0,8(sp)
    800007da:	60e2                	ld	ra,24(sp)
    800007dc:	6105                	addi	sp,sp,32
    800007de:	8082                	ret

00000000800007e0 <_ZN4core3ptr6unique15Unique$LT$T$GT$8dangling17hec7d6bad3a5bb3c2E>:
    800007e0:	1101                	addi	sp,sp,-32
    800007e2:	ec06                	sd	ra,24(sp)
    800007e4:	00000097          	auipc	ra,0x0
    800007e8:	cfc080e7          	jalr	-772(ra) # 800004e0 <_ZN4core3ptr8non_null16NonNull$LT$T$GT$8dangling17h5e5629cd80132298E>
    800007ec:	e82a                	sd	a0,16(sp)
    800007ee:	a009                	j	800007f0 <_ZN4core3ptr6unique15Unique$LT$T$GT$8dangling17hec7d6bad3a5bb3c2E+0x10>
    800007f0:	6542                	ld	a0,16(sp)
    800007f2:	00000097          	auipc	ra,0x0
    800007f6:	f38080e7          	jalr	-200(ra) # 8000072a <_ZN119_$LT$core..ptr..unique..Unique$LT$T$GT$$u20$as$u20$core..convert..From$LT$core..ptr..non_null..NonNull$LT$T$GT$$GT$$GT$4from17hf62b0a2647f4fa18E>
    800007fa:	e42a                	sd	a0,8(sp)
    800007fc:	a009                	j	800007fe <_ZN4core3ptr6unique15Unique$LT$T$GT$8dangling17hec7d6bad3a5bb3c2E+0x1e>
    800007fe:	6522                	ld	a0,8(sp)
    80000800:	60e2                	ld	ra,24(sp)
    80000802:	6105                	addi	sp,sp,32
    80000804:	8082                	ret

0000000080000806 <_ZN50_$LT$T$u20$as$u20$core..convert..Into$LT$U$GT$$GT$4into17h83ce6c4a8b94c72bE>:
    80000806:	1101                	addi	sp,sp,-32
    80000808:	ec06                	sd	ra,24(sp)
    8000080a:	e82a                	sd	a0,16(sp)
    8000080c:	00000097          	auipc	ra,0x0
    80000810:	a7a080e7          	jalr	-1414(ra) # 80000286 <_ZN119_$LT$core..ptr..non_null..NonNull$LT$T$GT$$u20$as$u20$core..convert..From$LT$core..ptr..unique..Unique$LT$T$GT$$GT$$GT$4from17h967901d7d97e3ee7E>
    80000814:	e42a                	sd	a0,8(sp)
    80000816:	a009                	j	80000818 <_ZN50_$LT$T$u20$as$u20$core..convert..Into$LT$U$GT$$GT$4into17h83ce6c4a8b94c72bE+0x12>
    80000818:	6522                	ld	a0,8(sp)
    8000081a:	60e2                	ld	ra,24(sp)
    8000081c:	6105                	addi	sp,sp,32
    8000081e:	8082                	ret

0000000080000820 <_ZN4core3cmp3Ord3max17h2862ee985c7853c3E>:
    80000820:	1101                	addi	sp,sp,-32
    80000822:	ec06                	sd	ra,24(sp)
    80000824:	e42a                	sd	a0,8(sp)
    80000826:	e82e                	sd	a1,16(sp)
    80000828:	00000097          	auipc	ra,0x0
    8000082c:	030080e7          	jalr	48(ra) # 80000858 <_ZN4core3cmp6max_by17h4c22296edae7f1bdE>
    80000830:	e02a                	sd	a0,0(sp)
    80000832:	a009                	j	80000834 <_ZN4core3cmp3Ord3max17h2862ee985c7853c3E+0x14>
    80000834:	6502                	ld	a0,0(sp)
    80000836:	60e2                	ld	ra,24(sp)
    80000838:	6105                	addi	sp,sp,32
    8000083a:	8082                	ret

000000008000083c <_ZN4core3cmp3max17h9617129d4040913dE>:
    8000083c:	1101                	addi	sp,sp,-32
    8000083e:	ec06                	sd	ra,24(sp)
    80000840:	e42a                	sd	a0,8(sp)
    80000842:	e82e                	sd	a1,16(sp)
    80000844:	00000097          	auipc	ra,0x0
    80000848:	fdc080e7          	jalr	-36(ra) # 80000820 <_ZN4core3cmp3Ord3max17h2862ee985c7853c3E>
    8000084c:	e02a                	sd	a0,0(sp)
    8000084e:	a009                	j	80000850 <_ZN4core3cmp3max17h9617129d4040913dE+0x14>
    80000850:	6502                	ld	a0,0(sp)
    80000852:	60e2                	ld	ra,24(sp)
    80000854:	6105                	addi	sp,sp,32
    80000856:	8082                	ret

0000000080000858 <_ZN4core3cmp6max_by17h4c22296edae7f1bdE>:
    80000858:	715d                	addi	sp,sp,-80
    8000085a:	e486                	sd	ra,72(sp)
    8000085c:	e42a                	sd	a0,8(sp)
    8000085e:	e82e                	sd	a1,16(sp)
    80000860:	4505                	li	a0,1
    80000862:	02a10fa3          	sb	a0,63(sp)
    80000866:	02a10f23          	sb	a0,62(sp)
    8000086a:	0028                	addi	a0,sp,8
    8000086c:	f42a                	sd	a0,40(sp)
    8000086e:	080c                	addi	a1,sp,16
    80000870:	f82e                	sd	a1,48(sp)
    80000872:	00006097          	auipc	ra,0x6
    80000876:	50c080e7          	jalr	1292(ra) # 80006d7e <_ZN4core3ops8function6FnOnce9call_once17h279d48e5493b2445E>
    8000087a:	02a103a3          	sb	a0,39(sp)
    8000087e:	a009                	j	80000880 <_ZN4core3cmp6max_by17h4c22296edae7f1bdE+0x28>
    80000880:	02714503          	lbu	a0,39(sp)
    80000884:	2505                	addiw	a0,a0,1
    80000886:	0ff57513          	andi	a0,a0,255
    8000088a:	4589                	li	a1,2
    8000088c:	00b56563          	bltu	a0,a1,80000896 <_ZN4core3cmp6max_by17h4c22296edae7f1bdE+0x3e>
    80000890:	a009                	j	80000892 <_ZN4core3cmp6max_by17h4c22296edae7f1bdE+0x3a>
    80000892:	a801                	j	800008a2 <_ZN4core3cmp6max_by17h4c22296edae7f1bdE+0x4a>
    80000894:	0000                	unimp
    80000896:	4501                	li	a0,0
    80000898:	02a10f23          	sb	a0,62(sp)
    8000089c:	6542                	ld	a0,16(sp)
    8000089e:	ec2a                	sd	a0,24(sp)
    800008a0:	a039                	j	800008ae <_ZN4core3cmp6max_by17h4c22296edae7f1bdE+0x56>
    800008a2:	4501                	li	a0,0
    800008a4:	02a10fa3          	sb	a0,63(sp)
    800008a8:	6522                	ld	a0,8(sp)
    800008aa:	ec2a                	sd	a0,24(sp)
    800008ac:	a009                	j	800008ae <_ZN4core3cmp6max_by17h4c22296edae7f1bdE+0x56>
    800008ae:	03e14503          	lbu	a0,62(sp)
    800008b2:	8905                	andi	a0,a0,1
    800008b4:	4581                	li	a1,0
    800008b6:	00b51a63          	bne	a0,a1,800008ca <_ZN4core3cmp6max_by17h4c22296edae7f1bdE+0x72>
    800008ba:	a009                	j	800008bc <_ZN4core3cmp6max_by17h4c22296edae7f1bdE+0x64>
    800008bc:	03f14503          	lbu	a0,63(sp)
    800008c0:	8905                	andi	a0,a0,1
    800008c2:	4581                	li	a1,0
    800008c4:	00b51863          	bne	a0,a1,800008d4 <_ZN4core3cmp6max_by17h4c22296edae7f1bdE+0x7c>
    800008c8:	a011                	j	800008cc <_ZN4core3cmp6max_by17h4c22296edae7f1bdE+0x74>
    800008ca:	bfcd                	j	800008bc <_ZN4core3cmp6max_by17h4c22296edae7f1bdE+0x64>
    800008cc:	6562                	ld	a0,24(sp)
    800008ce:	60a6                	ld	ra,72(sp)
    800008d0:	6161                	addi	sp,sp,80
    800008d2:	8082                	ret
    800008d4:	bfe5                	j	800008cc <_ZN4core3cmp6max_by17h4c22296edae7f1bdE+0x74>

00000000800008d6 <_ZN5alloc5slice29_$LT$impl$u20$$u5b$T$u5d$$GT$6to_vec17h1be750ced68f8a01E>:
    800008d6:	1101                	addi	sp,sp,-32
    800008d8:	ec06                	sd	ra,24(sp)
    800008da:	e42e                	sd	a1,8(sp)
    800008dc:	e832                	sd	a2,16(sp)
    800008de:	00000097          	auipc	ra,0x0
    800008e2:	010080e7          	jalr	16(ra) # 800008ee <_ZN5alloc5slice29_$LT$impl$u20$$u5b$T$u5d$$GT$9to_vec_in17he6accd755d8df399E>
    800008e6:	a009                	j	800008e8 <_ZN5alloc5slice29_$LT$impl$u20$$u5b$T$u5d$$GT$6to_vec17h1be750ced68f8a01E+0x12>
    800008e8:	60e2                	ld	ra,24(sp)
    800008ea:	6105                	addi	sp,sp,32
    800008ec:	8082                	ret

00000000800008ee <_ZN5alloc5slice29_$LT$impl$u20$$u5b$T$u5d$$GT$9to_vec_in17he6accd755d8df399E>:
    800008ee:	1101                	addi	sp,sp,-32
    800008f0:	ec06                	sd	ra,24(sp)
    800008f2:	e02e                	sd	a1,0(sp)
    800008f4:	e432                	sd	a2,8(sp)
    800008f6:	00000097          	auipc	ra,0x0
    800008fa:	0aa080e7          	jalr	170(ra) # 800009a0 <_ZN5alloc5slice4hack6to_vec17h51d9e2d83c54d3e8E>
    800008fe:	a009                	j	80000900 <_ZN5alloc5slice29_$LT$impl$u20$$u5b$T$u5d$$GT$9to_vec_in17he6accd755d8df399E+0x12>
    80000900:	60e2                	ld	ra,24(sp)
    80000902:	6105                	addi	sp,sp,32
    80000904:	8082                	ret

0000000080000906 <_ZN5alloc5slice64_$LT$impl$u20$alloc..borrow..ToOwned$u20$for$u20$$u5b$T$u5d$$GT$8to_owned17hae6c79da9a6e31e0E>:
    80000906:	1101                	addi	sp,sp,-32
    80000908:	ec06                	sd	ra,24(sp)
    8000090a:	e42e                	sd	a1,8(sp)
    8000090c:	e832                	sd	a2,16(sp)
    8000090e:	00000097          	auipc	ra,0x0
    80000912:	fc8080e7          	jalr	-56(ra) # 800008d6 <_ZN5alloc5slice29_$LT$impl$u20$$u5b$T$u5d$$GT$6to_vec17h1be750ced68f8a01E>
    80000916:	a009                	j	80000918 <_ZN5alloc5slice64_$LT$impl$u20$alloc..borrow..ToOwned$u20$for$u20$$u5b$T$u5d$$GT$8to_owned17hae6c79da9a6e31e0E+0x12>
    80000918:	60e2                	ld	ra,24(sp)
    8000091a:	6105                	addi	sp,sp,32
    8000091c:	8082                	ret

000000008000091e <_ZN122_$LT$alloc..collections..TryReserveError$u20$as$u20$core..convert..From$LT$alloc..collections..TryReserveErrorKind$GT$$GT$4from17hea8b2caa852a0ff0E>:
    8000091e:	1101                	addi	sp,sp,-32
    80000920:	e82a                	sd	a0,16(sp)
    80000922:	ec2e                	sd	a1,24(sp)
    80000924:	e02a                	sd	a0,0(sp)
    80000926:	e42e                	sd	a1,8(sp)
    80000928:	6105                	addi	sp,sp,32
    8000092a:	8082                	ret

000000008000092c <_ZN4core4hint21unreachable_unchecked17h0c044e68f84107abE>:
	...

000000008000092e <_ZN4core4hint9spin_loop17hb95a31ba5b0ed4b5E>:
    8000092e:	1141                	addi	sp,sp,-16
    80000930:	e406                	sd	ra,8(sp)
    80000932:	00009097          	auipc	ra,0x9
    80000936:	ad6080e7          	jalr	-1322(ra) # 80009408 <_ZN4core9core_arch12riscv_shared5pause17hbea22948273f4c83E>
    8000093a:	a009                	j	8000093c <_ZN4core4hint9spin_loop17hb95a31ba5b0ed4b5E+0xe>
    8000093c:	60a2                	ld	ra,8(sp)
    8000093e:	0141                	addi	sp,sp,16
    80000940:	8082                	ret

0000000080000942 <_ZN52_$LT$T$u20$as$u20$alloc..slice..hack..ConvertVec$GT$6to_vec17h06d276f0965e2bbcE>:
    80000942:	715d                	addi	sp,sp,-80
    80000944:	e486                	sd	ra,72(sp)
    80000946:	ec32                	sd	a2,24(sp)
    80000948:	862e                	mv	a2,a1
    8000094a:	65e2                	ld	a1,24(sp)
    8000094c:	f032                	sd	a2,32(sp)
    8000094e:	f42a                	sd	a0,40(sp)
    80000950:	f832                	sd	a2,48(sp)
    80000952:	fc2e                	sd	a1,56(sp)
    80000954:	00004097          	auipc	ra,0x4
    80000958:	dee080e7          	jalr	-530(ra) # 80004742 <_ZN5alloc3vec16Vec$LT$T$C$A$GT$16with_capacity_in17he1adbfeb4f325104E>
    8000095c:	a009                	j	8000095e <_ZN52_$LT$T$u20$as$u20$alloc..slice..hack..ConvertVec$GT$6to_vec17h06d276f0965e2bbcE+0x1c>
    8000095e:	65e2                	ld	a1,24(sp)
    80000960:	7502                	ld	a0,32(sp)
    80000962:	00004097          	auipc	ra,0x4
    80000966:	37e080e7          	jalr	894(ra) # 80004ce0 <_ZN4core5slice29_$LT$impl$u20$$u5b$T$u5d$$GT$6as_ptr17h306670bf3d57d5c8E>
    8000096a:	e82a                	sd	a0,16(sp)
    8000096c:	a009                	j	8000096e <_ZN52_$LT$T$u20$as$u20$alloc..slice..hack..ConvertVec$GT$6to_vec17h06d276f0965e2bbcE+0x2c>
    8000096e:	7522                	ld	a0,40(sp)
    80000970:	00004097          	auipc	ra,0x4
    80000974:	da6080e7          	jalr	-602(ra) # 80004716 <_ZN5alloc3vec16Vec$LT$T$C$A$GT$10as_mut_ptr17hc0ea85da352233e5E>
    80000978:	e42a                	sd	a0,8(sp)
    8000097a:	a009                	j	8000097c <_ZN52_$LT$T$u20$as$u20$alloc..slice..hack..ConvertVec$GT$6to_vec17h06d276f0965e2bbcE+0x3a>
    8000097c:	6662                	ld	a2,24(sp)
    8000097e:	65a2                	ld	a1,8(sp)
    80000980:	6542                	ld	a0,16(sp)
    80000982:	00006097          	auipc	ra,0x6
    80000986:	89a080e7          	jalr	-1894(ra) # 8000621c <_ZN4core3ptr9const_ptr33_$LT$impl$u20$$BP$const$u20$T$GT$22copy_to_nonoverlapping17h5bca072414bb54e3E>
    8000098a:	a009                	j	8000098c <_ZN52_$LT$T$u20$as$u20$alloc..slice..hack..ConvertVec$GT$6to_vec17h06d276f0965e2bbcE+0x4a>
    8000098c:	65e2                	ld	a1,24(sp)
    8000098e:	7522                	ld	a0,40(sp)
    80000990:	00004097          	auipc	ra,0x4
    80000994:	e0e080e7          	jalr	-498(ra) # 8000479e <_ZN5alloc3vec16Vec$LT$T$C$A$GT$7set_len17h422447fa7ce784c0E>
    80000998:	a009                	j	8000099a <_ZN52_$LT$T$u20$as$u20$alloc..slice..hack..ConvertVec$GT$6to_vec17h06d276f0965e2bbcE+0x58>
    8000099a:	60a6                	ld	ra,72(sp)
    8000099c:	6161                	addi	sp,sp,80
    8000099e:	8082                	ret

00000000800009a0 <_ZN5alloc5slice4hack6to_vec17h51d9e2d83c54d3e8E>:
    800009a0:	1101                	addi	sp,sp,-32
    800009a2:	ec06                	sd	ra,24(sp)
    800009a4:	e02e                	sd	a1,0(sp)
    800009a6:	e432                	sd	a2,8(sp)
    800009a8:	00000097          	auipc	ra,0x0
    800009ac:	f9a080e7          	jalr	-102(ra) # 80000942 <_ZN52_$LT$T$u20$as$u20$alloc..slice..hack..ConvertVec$GT$6to_vec17h06d276f0965e2bbcE>
    800009b0:	a009                	j	800009b2 <_ZN5alloc5slice4hack6to_vec17h51d9e2d83c54d3e8E+0x12>
    800009b2:	60e2                	ld	ra,24(sp)
    800009b4:	6105                	addi	sp,sp,32
    800009b6:	8082                	ret

00000000800009b8 <_ZN5alloc7raw_vec11alloc_guard17h1d682310b86e55a2E>:
    800009b8:	7139                	addi	sp,sp,-64
    800009ba:	fc06                	sd	ra,56(sp)
    800009bc:	f82a                	sd	a0,48(sp)
    800009be:	4501                	li	a0,0
    800009c0:	00a51863          	bne	a0,a0,800009d0 <_ZN5alloc7raw_vec11alloc_guard17h1d682310b86e55a2E+0x18>
    800009c4:	a009                	j	800009c6 <_ZN5alloc7raw_vec11alloc_guard17h1d682310b86e55a2E+0xe>
    800009c6:	557d                	li	a0,-1
    800009c8:	157e                	slli	a0,a0,0x3f
    800009ca:	0505                	addi	a0,a0,1
    800009cc:	ec2a                	sd	a0,24(sp)
    800009ce:	a005                	j	800009ee <_ZN5alloc7raw_vec11alloc_guard17h1d682310b86e55a2E+0x36>
    800009d0:	4581                	li	a1,0
    800009d2:	f42e                	sd	a1,40(sp)
    800009d4:	7502                	ld	a0,32(sp)
    800009d6:	00004097          	auipc	ra,0x4
    800009da:	2a4080e7          	jalr	676(ra) # 80004c7a <_ZN50_$LT$T$u20$as$u20$core..convert..Into$LT$U$GT$$GT$4into17h34ee9024d2499997E>
    800009de:	e02a                	sd	a0,0(sp)
    800009e0:	e42e                	sd	a1,8(sp)
    800009e2:	a009                	j	800009e4 <_ZN5alloc7raw_vec11alloc_guard17h1d682310b86e55a2E+0x2c>
    800009e4:	6522                	ld	a0,8(sp)
    800009e6:	6582                	ld	a1,0(sp)
    800009e8:	e82e                	sd	a1,16(sp)
    800009ea:	ec2a                	sd	a0,24(sp)
    800009ec:	a009                	j	800009ee <_ZN5alloc7raw_vec11alloc_guard17h1d682310b86e55a2E+0x36>
    800009ee:	6542                	ld	a0,16(sp)
    800009f0:	65e2                	ld	a1,24(sp)
    800009f2:	70e2                	ld	ra,56(sp)
    800009f4:	6121                	addi	sp,sp,64
    800009f6:	8082                	ret

00000000800009f8 <_ZN4core6option15Option$LT$T$GT$5ok_or17h8118f632ae9352cfE>:
    800009f8:	7139                	addi	sp,sp,-64
    800009fa:	e42a                	sd	a0,8(sp)
    800009fc:	e82e                	sd	a1,16(sp)
    800009fe:	4585                	li	a1,1
    80000a00:	02b107a3          	sb	a1,47(sp)
    80000a04:	4581                	li	a1,0
    80000a06:	00b50563          	beq	a0,a1,80000a10 <_ZN4core6option15Option$LT$T$GT$5ok_or17h8118f632ae9352cfE+0x18>
    80000a0a:	a009                	j	80000a0c <_ZN4core6option15Option$LT$T$GT$5ok_or17h8118f632ae9352cfE+0x14>
    80000a0c:	a801                	j	80000a1c <_ZN4core6option15Option$LT$T$GT$5ok_or17h8118f632ae9352cfE+0x24>
    80000a0e:	0000                	unimp
    80000a10:	4501                	li	a0,0
    80000a12:	02a107a3          	sb	a0,47(sp)
    80000a16:	4505                	li	a0,1
    80000a18:	ec2a                	sd	a0,24(sp)
    80000a1a:	a039                	j	80000a28 <_ZN4core6option15Option$LT$T$GT$5ok_or17h8118f632ae9352cfE+0x30>
    80000a1c:	6542                	ld	a0,16(sp)
    80000a1e:	fc2a                	sd	a0,56(sp)
    80000a20:	f02a                	sd	a0,32(sp)
    80000a22:	4501                	li	a0,0
    80000a24:	ec2a                	sd	a0,24(sp)
    80000a26:	a009                	j	80000a28 <_ZN4core6option15Option$LT$T$GT$5ok_or17h8118f632ae9352cfE+0x30>
    80000a28:	02f14503          	lbu	a0,47(sp)
    80000a2c:	8905                	andi	a0,a0,1
    80000a2e:	4581                	li	a1,0
    80000a30:	00b51763          	bne	a0,a1,80000a3e <_ZN4core6option15Option$LT$T$GT$5ok_or17h8118f632ae9352cfE+0x46>
    80000a34:	a009                	j	80000a36 <_ZN4core6option15Option$LT$T$GT$5ok_or17h8118f632ae9352cfE+0x3e>
    80000a36:	6562                	ld	a0,24(sp)
    80000a38:	7582                	ld	a1,32(sp)
    80000a3a:	6121                	addi	sp,sp,64
    80000a3c:	8082                	ret
    80000a3e:	bfe5                	j	80000a36 <_ZN4core6option15Option$LT$T$GT$5ok_or17h8118f632ae9352cfE+0x3e>

0000000080000a40 <_ZN4core6option15Option$LT$T$GT$6as_ref17h7d5ed98234e46aeeE>:
    80000a40:	1101                	addi	sp,sp,-32
    80000a42:	e02a                	sd	a0,0(sp)
    80000a44:	e82a                	sd	a0,16(sp)
    80000a46:	6108                	ld	a0,0(a0)
    80000a48:	00a035b3          	snez	a1,a0
    80000a4c:	4581                	li	a1,0
    80000a4e:	00b50563          	beq	a0,a1,80000a58 <_ZN4core6option15Option$LT$T$GT$6as_ref17h7d5ed98234e46aeeE+0x18>
    80000a52:	a009                	j	80000a54 <_ZN4core6option15Option$LT$T$GT$6as_ref17h7d5ed98234e46aeeE+0x14>
    80000a54:	a029                	j	80000a5e <_ZN4core6option15Option$LT$T$GT$6as_ref17h7d5ed98234e46aeeE+0x1e>
    80000a56:	0000                	unimp
    80000a58:	4501                	li	a0,0
    80000a5a:	e42a                	sd	a0,8(sp)
    80000a5c:	a029                	j	80000a66 <_ZN4core6option15Option$LT$T$GT$6as_ref17h7d5ed98234e46aeeE+0x26>
    80000a5e:	6502                	ld	a0,0(sp)
    80000a60:	ec2a                	sd	a0,24(sp)
    80000a62:	e42a                	sd	a0,8(sp)
    80000a64:	a009                	j	80000a66 <_ZN4core6option15Option$LT$T$GT$6as_ref17h7d5ed98234e46aeeE+0x26>
    80000a66:	6522                	ld	a0,8(sp)
    80000a68:	6105                	addi	sp,sp,32
    80000a6a:	8082                	ret

0000000080000a6c <_ZN4core6option15Option$LT$T$GT$6as_ref17haec53613dbdd52a7E>:
    80000a6c:	1101                	addi	sp,sp,-32
    80000a6e:	e02a                	sd	a0,0(sp)
    80000a70:	e82a                	sd	a0,16(sp)
    80000a72:	6108                	ld	a0,0(a0)
    80000a74:	4581                	li	a1,0
    80000a76:	00b50563          	beq	a0,a1,80000a80 <_ZN4core6option15Option$LT$T$GT$6as_ref17haec53613dbdd52a7E+0x14>
    80000a7a:	a009                	j	80000a7c <_ZN4core6option15Option$LT$T$GT$6as_ref17haec53613dbdd52a7E+0x10>
    80000a7c:	a029                	j	80000a86 <_ZN4core6option15Option$LT$T$GT$6as_ref17haec53613dbdd52a7E+0x1a>
    80000a7e:	0000                	unimp
    80000a80:	4501                	li	a0,0
    80000a82:	e42a                	sd	a0,8(sp)
    80000a84:	a031                	j	80000a90 <_ZN4core6option15Option$LT$T$GT$6as_ref17haec53613dbdd52a7E+0x24>
    80000a86:	6502                	ld	a0,0(sp)
    80000a88:	0521                	addi	a0,a0,8
    80000a8a:	ec2a                	sd	a0,24(sp)
    80000a8c:	e42a                	sd	a0,8(sp)
    80000a8e:	a009                	j	80000a90 <_ZN4core6option15Option$LT$T$GT$6as_ref17haec53613dbdd52a7E+0x24>
    80000a90:	6522                	ld	a0,8(sp)
    80000a92:	6105                	addi	sp,sp,32
    80000a94:	8082                	ret

0000000080000a96 <_ZN4core6option15Option$LT$T$GT$6as_ref17hbc15751af87a92bbE>:
    80000a96:	1101                	addi	sp,sp,-32
    80000a98:	e02a                	sd	a0,0(sp)
    80000a9a:	e82a                	sd	a0,16(sp)
    80000a9c:	6108                	ld	a0,0(a0)
    80000a9e:	00a035b3          	snez	a1,a0
    80000aa2:	4581                	li	a1,0
    80000aa4:	00b50563          	beq	a0,a1,80000aae <_ZN4core6option15Option$LT$T$GT$6as_ref17hbc15751af87a92bbE+0x18>
    80000aa8:	a009                	j	80000aaa <_ZN4core6option15Option$LT$T$GT$6as_ref17hbc15751af87a92bbE+0x14>
    80000aaa:	a029                	j	80000ab4 <_ZN4core6option15Option$LT$T$GT$6as_ref17hbc15751af87a92bbE+0x1e>
    80000aac:	0000                	unimp
    80000aae:	4501                	li	a0,0
    80000ab0:	e42a                	sd	a0,8(sp)
    80000ab2:	a029                	j	80000abc <_ZN4core6option15Option$LT$T$GT$6as_ref17hbc15751af87a92bbE+0x26>
    80000ab4:	6502                	ld	a0,0(sp)
    80000ab6:	ec2a                	sd	a0,24(sp)
    80000ab8:	e42a                	sd	a0,8(sp)
    80000aba:	a009                	j	80000abc <_ZN4core6option15Option$LT$T$GT$6as_ref17hbc15751af87a92bbE+0x26>
    80000abc:	6522                	ld	a0,8(sp)
    80000abe:	6105                	addi	sp,sp,32
    80000ac0:	8082                	ret

0000000080000ac2 <_ZN4core6option15Option$LT$T$GT$6as_ref17hd24bdf4a7f871f96E>:
    80000ac2:	1101                	addi	sp,sp,-32
    80000ac4:	e02a                	sd	a0,0(sp)
    80000ac6:	e82a                	sd	a0,16(sp)
    80000ac8:	6108                	ld	a0,0(a0)
    80000aca:	4581                	li	a1,0
    80000acc:	00b50563          	beq	a0,a1,80000ad6 <_ZN4core6option15Option$LT$T$GT$6as_ref17hd24bdf4a7f871f96E+0x14>
    80000ad0:	a009                	j	80000ad2 <_ZN4core6option15Option$LT$T$GT$6as_ref17hd24bdf4a7f871f96E+0x10>
    80000ad2:	a029                	j	80000adc <_ZN4core6option15Option$LT$T$GT$6as_ref17hd24bdf4a7f871f96E+0x1a>
    80000ad4:	0000                	unimp
    80000ad6:	4501                	li	a0,0
    80000ad8:	e42a                	sd	a0,8(sp)
    80000ada:	a031                	j	80000ae6 <_ZN4core6option15Option$LT$T$GT$6as_ref17hd24bdf4a7f871f96E+0x24>
    80000adc:	6502                	ld	a0,0(sp)
    80000ade:	0521                	addi	a0,a0,8
    80000ae0:	ec2a                	sd	a0,24(sp)
    80000ae2:	e42a                	sd	a0,8(sp)
    80000ae4:	a009                	j	80000ae6 <_ZN4core6option15Option$LT$T$GT$6as_ref17hd24bdf4a7f871f96E+0x24>
    80000ae6:	6522                	ld	a0,8(sp)
    80000ae8:	6105                	addi	sp,sp,32
    80000aea:	8082                	ret

0000000080000aec <_ZN4core6option15Option$LT$T$GT$6as_ref17he25ca2e278d3632bE>:
    80000aec:	1101                	addi	sp,sp,-32
    80000aee:	e02a                	sd	a0,0(sp)
    80000af0:	e82a                	sd	a0,16(sp)
    80000af2:	6108                	ld	a0,0(a0)
    80000af4:	00a035b3          	snez	a1,a0
    80000af8:	4581                	li	a1,0
    80000afa:	00b50563          	beq	a0,a1,80000b04 <_ZN4core6option15Option$LT$T$GT$6as_ref17he25ca2e278d3632bE+0x18>
    80000afe:	a009                	j	80000b00 <_ZN4core6option15Option$LT$T$GT$6as_ref17he25ca2e278d3632bE+0x14>
    80000b00:	a029                	j	80000b0a <_ZN4core6option15Option$LT$T$GT$6as_ref17he25ca2e278d3632bE+0x1e>
    80000b02:	0000                	unimp
    80000b04:	4501                	li	a0,0
    80000b06:	e42a                	sd	a0,8(sp)
    80000b08:	a029                	j	80000b12 <_ZN4core6option15Option$LT$T$GT$6as_ref17he25ca2e278d3632bE+0x26>
    80000b0a:	6502                	ld	a0,0(sp)
    80000b0c:	ec2a                	sd	a0,24(sp)
    80000b0e:	e42a                	sd	a0,8(sp)
    80000b10:	a009                	j	80000b12 <_ZN4core6option15Option$LT$T$GT$6as_ref17he25ca2e278d3632bE+0x26>
    80000b12:	6522                	ld	a0,8(sp)
    80000b14:	6105                	addi	sp,sp,32
    80000b16:	8082                	ret

0000000080000b18 <_ZN4core6option15Option$LT$T$GT$6expect17h9280f034e80b8f32E>:
    80000b18:	7139                	addi	sp,sp,-64
    80000b1a:	e03a                	sd	a4,0(sp)
    80000b1c:	e436                	sd	a3,8(sp)
    80000b1e:	e832                	sd	a2,16(sp)
    80000b20:	ec2a                	sd	a0,24(sp)
    80000b22:	f02e                	sd	a1,32(sp)
    80000b24:	f432                	sd	a2,40(sp)
    80000b26:	f836                	sd	a3,48(sp)
    80000b28:	4581                	li	a1,0
    80000b2a:	00b50563          	beq	a0,a1,80000b34 <_ZN4core6option15Option$LT$T$GT$6expect17h9280f034e80b8f32E+0x1c>
    80000b2e:	a009                	j	80000b30 <_ZN4core6option15Option$LT$T$GT$6expect17h9280f034e80b8f32E+0x18>
    80000b30:	a811                	j	80000b44 <_ZN4core6option15Option$LT$T$GT$6expect17h9280f034e80b8f32E+0x2c>
    80000b32:	0000                	unimp
    80000b34:	6602                	ld	a2,0(sp)
    80000b36:	65a2                	ld	a1,8(sp)
    80000b38:	6542                	ld	a0,16(sp)
    80000b3a:	fffff097          	auipc	ra,0xfffff
    80000b3e:	5ce080e7          	jalr	1486(ra) # 80000108 <_ZN4core6option13expect_failed17h51f1a863e76ccae9E>
    80000b42:	0000                	unimp
    80000b44:	7502                	ld	a0,32(sp)
    80000b46:	fc2a                	sd	a0,56(sp)
    80000b48:	6121                	addi	sp,sp,64
    80000b4a:	8082                	ret

0000000080000b4c <_ZN4core6option15Option$LT$T$GT$6map_or17h9188637a6c8207edE>:
    80000b4c:	715d                	addi	sp,sp,-80
    80000b4e:	e486                	sd	ra,72(sp)
    80000b50:	e42e                	sd	a1,8(sp)
    80000b52:	e82a                	sd	a0,16(sp)
    80000b54:	f82e                	sd	a1,48(sp)
    80000b56:	4585                	li	a1,1
    80000b58:	02b107a3          	sb	a1,47(sp)
    80000b5c:	02b10723          	sb	a1,46(sp)
    80000b60:	00a035b3          	snez	a1,a0
    80000b64:	4581                	li	a1,0
    80000b66:	00b50563          	beq	a0,a1,80000b70 <_ZN4core6option15Option$LT$T$GT$6map_or17h9188637a6c8207edE+0x24>
    80000b6a:	a009                	j	80000b6c <_ZN4core6option15Option$LT$T$GT$6map_or17h9188637a6c8207edE+0x20>
    80000b6c:	a801                	j	80000b7c <_ZN4core6option15Option$LT$T$GT$6map_or17h9188637a6c8207edE+0x30>
    80000b6e:	0000                	unimp
    80000b70:	6522                	ld	a0,8(sp)
    80000b72:	4581                	li	a1,0
    80000b74:	02b107a3          	sb	a1,47(sp)
    80000b78:	ec2a                	sd	a0,24(sp)
    80000b7a:	a831                	j	80000b96 <_ZN4core6option15Option$LT$T$GT$6map_or17h9188637a6c8207edE+0x4a>
    80000b7c:	6542                	ld	a0,16(sp)
    80000b7e:	e0aa                	sd	a0,64(sp)
    80000b80:	4581                	li	a1,0
    80000b82:	02b10723          	sb	a1,46(sp)
    80000b86:	f02a                	sd	a0,32(sp)
    80000b88:	00005097          	auipc	ra,0x5
    80000b8c:	478080e7          	jalr	1144(ra) # 80006000 <_ZN96_$LT$buddy_system_allocator..LockedHeap$LT$_$GT$$u20$as$u20$core..alloc..global..GlobalAlloc$GT$5alloc28_$u7b$$u7b$closure$u7d$$u7d$17ha631c3190fff9caaE>
    80000b90:	ec2a                	sd	a0,24(sp)
    80000b92:	a009                	j	80000b94 <_ZN4core6option15Option$LT$T$GT$6map_or17h9188637a6c8207edE+0x48>
    80000b94:	a009                	j	80000b96 <_ZN4core6option15Option$LT$T$GT$6map_or17h9188637a6c8207edE+0x4a>
    80000b96:	02e14503          	lbu	a0,46(sp)
    80000b9a:	8905                	andi	a0,a0,1
    80000b9c:	4581                	li	a1,0
    80000b9e:	00b51a63          	bne	a0,a1,80000bb2 <_ZN4core6option15Option$LT$T$GT$6map_or17h9188637a6c8207edE+0x66>
    80000ba2:	a009                	j	80000ba4 <_ZN4core6option15Option$LT$T$GT$6map_or17h9188637a6c8207edE+0x58>
    80000ba4:	02f14503          	lbu	a0,47(sp)
    80000ba8:	8905                	andi	a0,a0,1
    80000baa:	4581                	li	a1,0
    80000bac:	00b51863          	bne	a0,a1,80000bbc <_ZN4core6option15Option$LT$T$GT$6map_or17h9188637a6c8207edE+0x70>
    80000bb0:	a011                	j	80000bb4 <_ZN4core6option15Option$LT$T$GT$6map_or17h9188637a6c8207edE+0x68>
    80000bb2:	bfcd                	j	80000ba4 <_ZN4core6option15Option$LT$T$GT$6map_or17h9188637a6c8207edE+0x58>
    80000bb4:	6562                	ld	a0,24(sp)
    80000bb6:	60a6                	ld	ra,72(sp)
    80000bb8:	6161                	addi	sp,sp,80
    80000bba:	8082                	ret
    80000bbc:	bfe5                	j	80000bb4 <_ZN4core6option15Option$LT$T$GT$6map_or17h9188637a6c8207edE+0x68>

0000000080000bbe <_ZN4core6option15Option$LT$T$GT$6unwrap17h1890012afe812f2cE>:
    80000bbe:	1101                	addi	sp,sp,-32
    80000bc0:	e42e                	sd	a1,8(sp)
    80000bc2:	e82a                	sd	a0,16(sp)
    80000bc4:	00a035b3          	snez	a1,a0
    80000bc8:	4581                	li	a1,0
    80000bca:	00b50563          	beq	a0,a1,80000bd4 <_ZN4core6option15Option$LT$T$GT$6unwrap17h1890012afe812f2cE+0x16>
    80000bce:	a009                	j	80000bd0 <_ZN4core6option15Option$LT$T$GT$6unwrap17h1890012afe812f2cE+0x12>
    80000bd0:	a831                	j	80000bec <.LBB10_5+0x16>
    80000bd2:	0000                	unimp
    80000bd4:	6622                	ld	a2,8(sp)

0000000080000bd6 <.LBB10_5>:
    80000bd6:	0000c517          	auipc	a0,0xc
    80000bda:	4c250513          	addi	a0,a0,1218 # 8000d098 <.L__unnamed_1>
    80000bde:	02b00593          	li	a1,43
    80000be2:	fffff097          	auipc	ra,0xfffff
    80000be6:	534080e7          	jalr	1332(ra) # 80000116 <_ZN4core9panicking5panic17h7cbb7101b8ec6f33E>
    80000bea:	0000                	unimp
    80000bec:	6542                	ld	a0,16(sp)
    80000bee:	ec2a                	sd	a0,24(sp)
    80000bf0:	6105                	addi	sp,sp,32
    80000bf2:	8082                	ret

0000000080000bf4 <_ZN4core6option15Option$LT$T$GT$6unwrap17h65f21e23378bdf2dE>:
    80000bf4:	7179                	addi	sp,sp,-48
    80000bf6:	e432                	sd	a2,8(sp)
    80000bf8:	e82a                	sd	a0,16(sp)
    80000bfa:	ec2e                	sd	a1,24(sp)
    80000bfc:	00b03533          	snez	a0,a1
    80000c00:	4501                	li	a0,0
    80000c02:	00a58563          	beq	a1,a0,80000c0c <_ZN4core6option15Option$LT$T$GT$6unwrap17h65f21e23378bdf2dE+0x18>
    80000c06:	a009                	j	80000c08 <_ZN4core6option15Option$LT$T$GT$6unwrap17h65f21e23378bdf2dE+0x14>
    80000c08:	a831                	j	80000c24 <.LBB11_5+0x16>
    80000c0a:	0000                	unimp
    80000c0c:	6622                	ld	a2,8(sp)

0000000080000c0e <.LBB11_5>:
    80000c0e:	0000c517          	auipc	a0,0xc
    80000c12:	48a50513          	addi	a0,a0,1162 # 8000d098 <.L__unnamed_1>
    80000c16:	02b00593          	li	a1,43
    80000c1a:	fffff097          	auipc	ra,0xfffff
    80000c1e:	4fc080e7          	jalr	1276(ra) # 80000116 <_ZN4core9panicking5panic17h7cbb7101b8ec6f33E>
    80000c22:	0000                	unimp
    80000c24:	6542                	ld	a0,16(sp)
    80000c26:	65e2                	ld	a1,24(sp)
    80000c28:	f02a                	sd	a0,32(sp)
    80000c2a:	f42e                	sd	a1,40(sp)
    80000c2c:	6145                	addi	sp,sp,48
    80000c2e:	8082                	ret

0000000080000c30 <_ZN4core6option15Option$LT$T$GT$6unwrap17h7643644ea0b7e610E>:
    80000c30:	1101                	addi	sp,sp,-32
    80000c32:	e032                	sd	a2,0(sp)
    80000c34:	e42a                	sd	a0,8(sp)
    80000c36:	e82e                	sd	a1,16(sp)
    80000c38:	4581                	li	a1,0
    80000c3a:	00b50563          	beq	a0,a1,80000c44 <_ZN4core6option15Option$LT$T$GT$6unwrap17h7643644ea0b7e610E+0x14>
    80000c3e:	a009                	j	80000c40 <_ZN4core6option15Option$LT$T$GT$6unwrap17h7643644ea0b7e610E+0x10>
    80000c40:	a831                	j	80000c5c <.LBB12_5+0x16>
    80000c42:	0000                	unimp
    80000c44:	6602                	ld	a2,0(sp)

0000000080000c46 <.LBB12_5>:
    80000c46:	0000c517          	auipc	a0,0xc
    80000c4a:	45250513          	addi	a0,a0,1106 # 8000d098 <.L__unnamed_1>
    80000c4e:	02b00593          	li	a1,43
    80000c52:	fffff097          	auipc	ra,0xfffff
    80000c56:	4c4080e7          	jalr	1220(ra) # 80000116 <_ZN4core9panicking5panic17h7cbb7101b8ec6f33E>
    80000c5a:	0000                	unimp
    80000c5c:	6542                	ld	a0,16(sp)
    80000c5e:	ec2a                	sd	a0,24(sp)
    80000c60:	6105                	addi	sp,sp,32
    80000c62:	8082                	ret

0000000080000c64 <_ZN4core6option15Option$LT$T$GT$6unwrap17hb299afbb8ec38aabE>:
    80000c64:	1101                	addi	sp,sp,-32
    80000c66:	e42e                	sd	a1,8(sp)
    80000c68:	e82a                	sd	a0,16(sp)
    80000c6a:	00a035b3          	snez	a1,a0
    80000c6e:	4581                	li	a1,0
    80000c70:	00b50563          	beq	a0,a1,80000c7a <_ZN4core6option15Option$LT$T$GT$6unwrap17hb299afbb8ec38aabE+0x16>
    80000c74:	a009                	j	80000c76 <_ZN4core6option15Option$LT$T$GT$6unwrap17hb299afbb8ec38aabE+0x12>
    80000c76:	a831                	j	80000c92 <.LBB13_5+0x16>
    80000c78:	0000                	unimp
    80000c7a:	6622                	ld	a2,8(sp)

0000000080000c7c <.LBB13_5>:
    80000c7c:	0000c517          	auipc	a0,0xc
    80000c80:	41c50513          	addi	a0,a0,1052 # 8000d098 <.L__unnamed_1>
    80000c84:	02b00593          	li	a1,43
    80000c88:	fffff097          	auipc	ra,0xfffff
    80000c8c:	48e080e7          	jalr	1166(ra) # 80000116 <_ZN4core9panicking5panic17h7cbb7101b8ec6f33E>
    80000c90:	0000                	unimp
    80000c92:	6542                	ld	a0,16(sp)
    80000c94:	ec2a                	sd	a0,24(sp)
    80000c96:	6105                	addi	sp,sp,32
    80000c98:	8082                	ret

0000000080000c9a <_ZN4core6option15Option$LT$T$GT$6unwrap17hed13a43156cae07fE>:
    80000c9a:	1101                	addi	sp,sp,-32
    80000c9c:	e42e                	sd	a1,8(sp)
    80000c9e:	e82a                	sd	a0,16(sp)
    80000ca0:	00a035b3          	snez	a1,a0
    80000ca4:	4581                	li	a1,0
    80000ca6:	00b50563          	beq	a0,a1,80000cb0 <_ZN4core6option15Option$LT$T$GT$6unwrap17hed13a43156cae07fE+0x16>
    80000caa:	a009                	j	80000cac <_ZN4core6option15Option$LT$T$GT$6unwrap17hed13a43156cae07fE+0x12>
    80000cac:	a831                	j	80000cc8 <.LBB14_5+0x16>
    80000cae:	0000                	unimp
    80000cb0:	6622                	ld	a2,8(sp)

0000000080000cb2 <.LBB14_5>:
    80000cb2:	0000c517          	auipc	a0,0xc
    80000cb6:	3e650513          	addi	a0,a0,998 # 8000d098 <.L__unnamed_1>
    80000cba:	02b00593          	li	a1,43
    80000cbe:	fffff097          	auipc	ra,0xfffff
    80000cc2:	458080e7          	jalr	1112(ra) # 80000116 <_ZN4core9panicking5panic17h7cbb7101b8ec6f33E>
    80000cc6:	0000                	unimp
    80000cc8:	6542                	ld	a0,16(sp)
    80000cca:	ec2a                	sd	a0,24(sp)
    80000ccc:	6105                	addi	sp,sp,32
    80000cce:	8082                	ret

0000000080000cd0 <_ZN4core6option15Option$LT$T$GT$6unwrap17hedf3e72c2307cc75E>:
    80000cd0:	1101                	addi	sp,sp,-32
    80000cd2:	e42e                	sd	a1,8(sp)
    80000cd4:	e82a                	sd	a0,16(sp)
    80000cd6:	00a035b3          	snez	a1,a0
    80000cda:	4581                	li	a1,0
    80000cdc:	00b50563          	beq	a0,a1,80000ce6 <_ZN4core6option15Option$LT$T$GT$6unwrap17hedf3e72c2307cc75E+0x16>
    80000ce0:	a009                	j	80000ce2 <_ZN4core6option15Option$LT$T$GT$6unwrap17hedf3e72c2307cc75E+0x12>
    80000ce2:	a831                	j	80000cfe <.LBB15_5+0x16>
    80000ce4:	0000                	unimp
    80000ce6:	6622                	ld	a2,8(sp)

0000000080000ce8 <.LBB15_5>:
    80000ce8:	0000c517          	auipc	a0,0xc
    80000cec:	3b050513          	addi	a0,a0,944 # 8000d098 <.L__unnamed_1>
    80000cf0:	02b00593          	li	a1,43
    80000cf4:	fffff097          	auipc	ra,0xfffff
    80000cf8:	422080e7          	jalr	1058(ra) # 80000116 <_ZN4core9panicking5panic17h7cbb7101b8ec6f33E>
    80000cfc:	0000                	unimp
    80000cfe:	6542                	ld	a0,16(sp)
    80000d00:	ec2a                	sd	a0,24(sp)
    80000d02:	6105                	addi	sp,sp,32
    80000d04:	8082                	ret

0000000080000d06 <_ZN4core6option15Option$LT$T$GT$6unwrap17hf0ec338f99dc7195E>:
    80000d06:	1101                	addi	sp,sp,-32
    80000d08:	e42e                	sd	a1,8(sp)
    80000d0a:	e82a                	sd	a0,16(sp)
    80000d0c:	00a035b3          	snez	a1,a0
    80000d10:	4581                	li	a1,0
    80000d12:	00b50563          	beq	a0,a1,80000d1c <_ZN4core6option15Option$LT$T$GT$6unwrap17hf0ec338f99dc7195E+0x16>
    80000d16:	a009                	j	80000d18 <_ZN4core6option15Option$LT$T$GT$6unwrap17hf0ec338f99dc7195E+0x12>
    80000d18:	a831                	j	80000d34 <.LBB16_5+0x16>
    80000d1a:	0000                	unimp
    80000d1c:	6622                	ld	a2,8(sp)

0000000080000d1e <.LBB16_5>:
    80000d1e:	0000c517          	auipc	a0,0xc
    80000d22:	37a50513          	addi	a0,a0,890 # 8000d098 <.L__unnamed_1>
    80000d26:	02b00593          	li	a1,43
    80000d2a:	fffff097          	auipc	ra,0xfffff
    80000d2e:	3ec080e7          	jalr	1004(ra) # 80000116 <_ZN4core9panicking5panic17h7cbb7101b8ec6f33E>
    80000d32:	0000                	unimp
    80000d34:	6542                	ld	a0,16(sp)
    80000d36:	ec2a                	sd	a0,24(sp)
    80000d38:	6105                	addi	sp,sp,32
    80000d3a:	8082                	ret

0000000080000d3c <_ZN4core6option15Option$LT$T$GT$7is_some17h34e82eb89466bf5eE>:
    80000d3c:	1141                	addi	sp,sp,-16
    80000d3e:	e42a                	sd	a0,8(sp)
    80000d40:	6108                	ld	a0,0(a0)
    80000d42:	4581                	li	a1,0
    80000d44:	00b50763          	beq	a0,a1,80000d52 <_ZN4core6option15Option$LT$T$GT$7is_some17h34e82eb89466bf5eE+0x16>
    80000d48:	a009                	j	80000d4a <_ZN4core6option15Option$LT$T$GT$7is_some17h34e82eb89466bf5eE+0xe>
    80000d4a:	4505                	li	a0,1
    80000d4c:	00a103a3          	sb	a0,7(sp)
    80000d50:	a029                	j	80000d5a <_ZN4core6option15Option$LT$T$GT$7is_some17h34e82eb89466bf5eE+0x1e>
    80000d52:	4501                	li	a0,0
    80000d54:	00a103a3          	sb	a0,7(sp)
    80000d58:	a009                	j	80000d5a <_ZN4core6option15Option$LT$T$GT$7is_some17h34e82eb89466bf5eE+0x1e>
    80000d5a:	00714503          	lbu	a0,7(sp)
    80000d5e:	0141                	addi	sp,sp,16
    80000d60:	8082                	ret

0000000080000d62 <_ZN4core6option15Option$LT$T$GT$7is_some17h7defdf38e7fbd878E>:
    80000d62:	1141                	addi	sp,sp,-16
    80000d64:	e42a                	sd	a0,8(sp)
    80000d66:	6108                	ld	a0,0(a0)
    80000d68:	4581                	li	a1,0
    80000d6a:	00b50763          	beq	a0,a1,80000d78 <_ZN4core6option15Option$LT$T$GT$7is_some17h7defdf38e7fbd878E+0x16>
    80000d6e:	a009                	j	80000d70 <_ZN4core6option15Option$LT$T$GT$7is_some17h7defdf38e7fbd878E+0xe>
    80000d70:	4505                	li	a0,1
    80000d72:	00a103a3          	sb	a0,7(sp)
    80000d76:	a029                	j	80000d80 <_ZN4core6option15Option$LT$T$GT$7is_some17h7defdf38e7fbd878E+0x1e>
    80000d78:	4501                	li	a0,0
    80000d7a:	00a103a3          	sb	a0,7(sp)
    80000d7e:	a009                	j	80000d80 <_ZN4core6option15Option$LT$T$GT$7is_some17h7defdf38e7fbd878E+0x1e>
    80000d80:	00714503          	lbu	a0,7(sp)
    80000d84:	0141                	addi	sp,sp,16
    80000d86:	8082                	ret

0000000080000d88 <_ZN4core6option19Option$LT$$RF$T$GT$6copied17h2768f04bcc8023ceE>:
    80000d88:	1141                	addi	sp,sp,-16
    80000d8a:	e02a                	sd	a0,0(sp)
    80000d8c:	00a035b3          	snez	a1,a0
    80000d90:	4581                	li	a1,0
    80000d92:	00b50563          	beq	a0,a1,80000d9c <_ZN4core6option19Option$LT$$RF$T$GT$6copied17h2768f04bcc8023ceE+0x14>
    80000d96:	a009                	j	80000d98 <_ZN4core6option19Option$LT$$RF$T$GT$6copied17h2768f04bcc8023ceE+0x10>
    80000d98:	a031                	j	80000da4 <_ZN4core6option19Option$LT$$RF$T$GT$6copied17h2768f04bcc8023ceE+0x1c>
    80000d9a:	0000                	unimp
    80000d9c:	4501                	li	a0,0
    80000d9e:	00a10423          	sb	a0,8(sp)
    80000da2:	a821                	j	80000dba <_ZN4core6option19Option$LT$$RF$T$GT$6copied17h2768f04bcc8023ceE+0x32>
    80000da4:	6502                	ld	a0,0(sp)
    80000da6:	00050503          	lb	a0,0(a0)
    80000daa:	00a107a3          	sb	a0,15(sp)
    80000dae:	00a104a3          	sb	a0,9(sp)
    80000db2:	4505                	li	a0,1
    80000db4:	00a10423          	sb	a0,8(sp)
    80000db8:	a009                	j	80000dba <_ZN4core6option19Option$LT$$RF$T$GT$6copied17h2768f04bcc8023ceE+0x32>
    80000dba:	00814503          	lbu	a0,8(sp)
    80000dbe:	00910583          	lb	a1,9(sp)
    80000dc2:	0141                	addi	sp,sp,16
    80000dc4:	8082                	ret

0000000080000dc6 <_ZN75_$LT$core..option..Option$LT$T$GT$$u20$as$u20$core..ops..try_trait..Try$GT$6branch17h2f9cc412f68d034eE>:
    80000dc6:	7179                	addi	sp,sp,-48
    80000dc8:	e02a                	sd	a0,0(sp)
    80000dca:	e42e                	sd	a1,8(sp)
    80000dcc:	00a035b3          	snez	a1,a0
    80000dd0:	4581                	li	a1,0
    80000dd2:	00b50563          	beq	a0,a1,80000ddc <_ZN75_$LT$core..option..Option$LT$T$GT$$u20$as$u20$core..ops..try_trait..Try$GT$6branch17h2f9cc412f68d034eE+0x16>
    80000dd6:	a009                	j	80000dd8 <_ZN75_$LT$core..option..Option$LT$T$GT$$u20$as$u20$core..ops..try_trait..Try$GT$6branch17h2f9cc412f68d034eE+0x12>
    80000dd8:	a029                	j	80000de2 <_ZN75_$LT$core..option..Option$LT$T$GT$$u20$as$u20$core..ops..try_trait..Try$GT$6branch17h2f9cc412f68d034eE+0x1c>
    80000dda:	0000                	unimp
    80000ddc:	4501                	li	a0,0
    80000dde:	e82a                	sd	a0,16(sp)
    80000de0:	a801                	j	80000df0 <_ZN75_$LT$core..option..Option$LT$T$GT$$u20$as$u20$core..ops..try_trait..Try$GT$6branch17h2f9cc412f68d034eE+0x2a>
    80000de2:	6582                	ld	a1,0(sp)
    80000de4:	6522                	ld	a0,8(sp)
    80000de6:	f02e                	sd	a1,32(sp)
    80000de8:	f42a                	sd	a0,40(sp)
    80000dea:	e82e                	sd	a1,16(sp)
    80000dec:	ec2a                	sd	a0,24(sp)
    80000dee:	a009                	j	80000df0 <_ZN75_$LT$core..option..Option$LT$T$GT$$u20$as$u20$core..ops..try_trait..Try$GT$6branch17h2f9cc412f68d034eE+0x2a>
    80000df0:	6542                	ld	a0,16(sp)
    80000df2:	65e2                	ld	a1,24(sp)
    80000df4:	6145                	addi	sp,sp,48
    80000df6:	8082                	ret

0000000080000df8 <_ZN84_$LT$core..option..Option$LT$T$GT$$u20$as$u20$core..ops..try_trait..FromResidual$GT$13from_residual17h453c53ce782086ccE>:
    80000df8:	1141                	addi	sp,sp,-16
    80000dfa:	4501                	li	a0,0
    80000dfc:	e02a                	sd	a0,0(sp)
    80000dfe:	0141                	addi	sp,sp,16
    80000e00:	8082                	ret

0000000080000e02 <_ZN84_$LT$core..option..Option$LT$T$GT$$u20$as$u20$core..ops..try_trait..FromResidual$GT$13from_residual17haa4b4a8dff81298dE>:
    80000e02:	1141                	addi	sp,sp,-16
    80000e04:	4501                	li	a0,0
    80000e06:	e02a                	sd	a0,0(sp)
    80000e08:	0141                	addi	sp,sp,16
    80000e0a:	8082                	ret

0000000080000e0c <_ZN84_$LT$core..option..Option$LT$T$GT$$u20$as$u20$core..ops..try_trait..FromResidual$GT$13from_residual17hdb2c8446a06e508bE>:
    80000e0c:	1141                	addi	sp,sp,-16
    80000e0e:	4501                	li	a0,0
    80000e10:	e02a                	sd	a0,0(sp)
    80000e12:	0141                	addi	sp,sp,16
    80000e14:	8082                	ret

0000000080000e16 <_ZN10r_freertos6kernel7ns165505readb17hf0da23f0182d1759E>:
	// 
	pub addr: usize
}

/// read byte from target address
fn readb(addr: &usize) -> u8
    80000e16:	1141                	addi	sp,sp,-16
    80000e18:	e02a                	sd	a0,0(sp)
{
    let p = *addr as *const u8;
    80000e1a:	6108                	ld	a0,0(a0)
    80000e1c:	e42a                	sd	a0,8(sp)
	unsafe{ *p }
}
    80000e1e:	00050503          	lb	a0,0(a0)
    80000e22:	0141                	addi	sp,sp,16
    80000e24:	8082                	ret

0000000080000e26 <_ZN10r_freertos6kernel7ns165506writeb17h8efbe349144ee561E>:

/// write byte to target address
fn writeb(b: &u8, addr: &usize)
    80000e26:	1101                	addi	sp,sp,-32
    80000e28:	e42a                	sd	a0,8(sp)
    80000e2a:	e82e                	sd	a1,16(sp)
{
    let p = *addr as *mut u8;
    80000e2c:	618c                	ld	a1,0(a1)
    80000e2e:	ec2e                	sd	a1,24(sp)
	unsafe{ *p = *b };
    80000e30:	00050503          	lb	a0,0(a0)
    80000e34:	00a58023          	sb	a0,0(a1)
}
    80000e38:	6105                	addi	sp,sp,32
    80000e3a:	8082                	ret

0000000080000e3c <_ZN10r_freertos6kernel7ns1655013v_out_ns1655017hb30d8e59eaaffdf7E>:
// 

/// write byte to serial interface <br>
/// stall until writing is completed
pub fn v_out_ns16550( dev: &Device, c: &u8 )
    80000e3c:	711d                	addi	sp,sp,-96
    80000e3e:	ec86                	sd	ra,88(sp)
    80000e40:	f02e                	sd	a1,32(sp)
    80000e42:	e0aa                	sd	a0,64(sp)
    80000e44:	e4ae                	sd	a1,72(sp)
{
	let addr = dev.addr;
    80000e46:	6108                	ld	a0,0(a0)
    80000e48:	f42a                	sd	a0,40(sp)
    80000e4a:	e8aa                	sd	a0,80(sp)

	while (readb( &(addr + REG_LSR) ) & LSR_THRE) == 0 {
    80000e4c:	a009                	j	80000e4e <_ZN10r_freertos6kernel7ns1655013v_out_ns1655017hb30d8e59eaaffdf7E+0x12>
    80000e4e:	75a2                	ld	a1,40(sp)
    80000e50:	00558513          	addi	a0,a1,5
    80000e54:	ec2a                	sd	a0,24(sp)
    80000e56:	00b56c63          	bltu	a0,a1,80000e6e <.LBB2_9>
    80000e5a:	a009                	j	80000e5c <_ZN10r_freertos6kernel7ns1655013v_out_ns1655017hb30d8e59eaaffdf7E+0x20>
    80000e5c:	6562                	ld	a0,24(sp)
    80000e5e:	f82a                	sd	a0,48(sp)
    80000e60:	1808                	addi	a0,sp,48
    80000e62:	00000097          	auipc	ra,0x0
    80000e66:	fb4080e7          	jalr	-76(ra) # 80000e16 <_ZN10r_freertos6kernel7ns165505readb17hf0da23f0182d1759E>
    80000e6a:	e82a                	sd	a0,16(sp)
    80000e6c:	a839                	j	80000e8a <.LBB2_10+0x14>

0000000080000e6e <.LBB2_9>:
    80000e6e:	0000c517          	auipc	a0,0xc
    80000e72:	28250513          	addi	a0,a0,642 # 8000d0f0 <str.0>

0000000080000e76 <.LBB2_10>:
    80000e76:	0000c617          	auipc	a2,0xc
    80000e7a:	26260613          	addi	a2,a2,610 # 8000d0d8 <.L__unnamed_1>
    80000e7e:	45f1                	li	a1,28
    80000e80:	fffff097          	auipc	ra,0xfffff
    80000e84:	296080e7          	jalr	662(ra) # 80000116 <_ZN4core9panicking5panic17h7cbb7101b8ec6f33E>
    80000e88:	0000                	unimp
    80000e8a:	6542                	ld	a0,16(sp)
    80000e8c:	02057513          	andi	a0,a0,32
    80000e90:	4581                	li	a1,0
    80000e92:	fab50ee3          	beq	a0,a1,80000e4e <_ZN10r_freertos6kernel7ns1655013v_out_ns1655017hb30d8e59eaaffdf7E+0x12>
    80000e96:	a009                	j	80000e98 <.LBB2_10+0x22>
		/* busy wait */
	}

	writeb( c, &(addr + REG_THR) );
    80000e98:	7522                	ld	a0,40(sp)
    80000e9a:	e42a                	sd	a0,8(sp)
    80000e9c:	4501                	li	a0,0
    80000e9e:	00a51c63          	bne	a0,a0,80000eb6 <.LBB2_11>
    80000ea2:	a009                	j	80000ea4 <.LBB2_10+0x2e>
    80000ea4:	7502                	ld	a0,32(sp)
    80000ea6:	65a2                	ld	a1,8(sp)
    80000ea8:	fc2e                	sd	a1,56(sp)
    80000eaa:	182c                	addi	a1,sp,56
    80000eac:	00000097          	auipc	ra,0x0
    80000eb0:	f7a080e7          	jalr	-134(ra) # 80000e26 <_ZN10r_freertos6kernel7ns165506writeb17h8efbe349144ee561E>
    80000eb4:	a839                	j	80000ed2 <.LBB2_12+0x14>

0000000080000eb6 <.LBB2_11>:
    80000eb6:	0000c517          	auipc	a0,0xc
    80000eba:	23a50513          	addi	a0,a0,570 # 8000d0f0 <str.0>

0000000080000ebe <.LBB2_12>:
    80000ebe:	0000c617          	auipc	a2,0xc
    80000ec2:	25260613          	addi	a2,a2,594 # 8000d110 <.L__unnamed_2>
    80000ec6:	45f1                	li	a1,28
    80000ec8:	fffff097          	auipc	ra,0xfffff
    80000ecc:	24e080e7          	jalr	590(ra) # 80000116 <_ZN4core9panicking5panic17h7cbb7101b8ec6f33E>
    80000ed0:	0000                	unimp
}
    80000ed2:	60e6                	ld	ra,88(sp)
    80000ed4:	6125                	addi	sp,sp,96
    80000ed6:	8082                	ret

0000000080000ed8 <_ZN4core4iter6traits8iterator8Iterator6copied17h3f8bf1a92455a6e7E>:
    80000ed8:	7179                	addi	sp,sp,-48
    80000eda:	f406                	sd	ra,40(sp)
    80000edc:	ec2a                	sd	a0,24(sp)
    80000ede:	f02e                	sd	a1,32(sp)
    80000ee0:	0000a097          	auipc	ra,0xa
    80000ee4:	dc8080e7          	jalr	-568(ra) # 8000aca8 <_ZN4core4iter8adapters6copied15Copied$LT$I$GT$3new17h5a08db75ac9cbee4E>
    80000ee8:	e42a                	sd	a0,8(sp)
    80000eea:	e82e                	sd	a1,16(sp)
    80000eec:	a009                	j	80000eee <_ZN4core4iter6traits8iterator8Iterator6copied17h3f8bf1a92455a6e7E+0x16>
    80000eee:	65c2                	ld	a1,16(sp)
    80000ef0:	6522                	ld	a0,8(sp)
    80000ef2:	70a2                	ld	ra,40(sp)
    80000ef4:	6145                	addi	sp,sp,48
    80000ef6:	8082                	ret

0000000080000ef8 <_ZN4core5slice4iter13Iter$LT$T$GT$3new17ha202b11559f95caeE>:
    80000ef8:	7171                	addi	sp,sp,-176
    80000efa:	f506                	sd	ra,168(sp)
    80000efc:	ec2e                	sd	a1,24(sp)
    80000efe:	e0aa                	sd	a0,64(sp)
    80000f00:	e4ae                	sd	a1,72(sp)
    80000f02:	00004097          	auipc	ra,0x4
    80000f06:	dde080e7          	jalr	-546(ra) # 80004ce0 <_ZN4core5slice29_$LT$impl$u20$$u5b$T$u5d$$GT$6as_ptr17h306670bf3d57d5c8E>
    80000f0a:	85aa                	mv	a1,a0
    80000f0c:	f02e                	sd	a1,32(sp)
    80000f0e:	e8aa                	sd	a0,80(sp)
    80000f10:	a009                	j	80000f12 <_ZN4core5slice4iter13Iter$LT$T$GT$3new17ha202b11559f95caeE+0x1a>
    80000f12:	7502                	ld	a0,32(sp)
    80000f14:	00005097          	auipc	ra,0x5
    80000f18:	32a080e7          	jalr	810(ra) # 8000623e <_ZN4core3ptr9const_ptr33_$LT$impl$u20$$BP$const$u20$T$GT$7is_null17he97f9d491161ef2cE>
    80000f1c:	a009                	j	80000f1e <_ZN4core5slice4iter13Iter$LT$T$GT$3new17ha202b11559f95caeE+0x26>
    80000f1e:	a009                	j	80000f20 <_ZN4core5slice4iter13Iter$LT$T$GT$3new17ha202b11559f95caeE+0x28>
    80000f20:	a009                	j	80000f22 <_ZN4core5slice4iter13Iter$LT$T$GT$3new17ha202b11559f95caeE+0x2a>
    80000f22:	4581                	li	a1,0
    80000f24:	4505                	li	a0,1
    80000f26:	00b51d63          	bne	a0,a1,80000f40 <_ZN4core5slice4iter13Iter$LT$T$GT$3new17ha202b11559f95caeE+0x48>
    80000f2a:	a009                	j	80000f2c <_ZN4core5slice4iter13Iter$LT$T$GT$3new17ha202b11559f95caeE+0x34>
    80000f2c:	7502                	ld	a0,32(sp)
    80000f2e:	65e2                	ld	a1,24(sp)
    80000f30:	ecaa                	sd	a0,88(sp)
    80000f32:	f0ae                	sd	a1,96(sp)
    80000f34:	f4aa                	sd	a0,104(sp)
    80000f36:	f8ae                	sd	a1,112(sp)
    80000f38:	952e                	add	a0,a0,a1
    80000f3a:	e82a                	sd	a0,16(sp)
    80000f3c:	fcaa                	sd	a0,120(sp)
    80000f3e:	a01d                	j	80000f64 <_ZN4core5slice4iter13Iter$LT$T$GT$3new17ha202b11559f95caeE+0x6c>
    80000f40:	7502                	ld	a0,32(sp)
    80000f42:	65e2                	ld	a1,24(sp)
    80000f44:	e12a                	sd	a0,128(sp)
    80000f46:	e52e                	sd	a1,136(sp)
    80000f48:	e92a                	sd	a0,144(sp)
    80000f4a:	ed2e                	sd	a1,152(sp)
    80000f4c:	952e                	add	a0,a0,a1
    80000f4e:	f12a                	sd	a0,160(sp)
    80000f50:	fc2a                	sd	a0,56(sp)
    80000f52:	a009                	j	80000f54 <_ZN4core5slice4iter13Iter$LT$T$GT$3new17ha202b11559f95caeE+0x5c>
    80000f54:	a009                	j	80000f56 <_ZN4core5slice4iter13Iter$LT$T$GT$3new17ha202b11559f95caeE+0x5e>
    80000f56:	7502                	ld	a0,32(sp)
    80000f58:	0000a097          	auipc	ra,0xa
    80000f5c:	368080e7          	jalr	872(ra) # 8000b2c0 <_ZN4core3ptr8non_null16NonNull$LT$T$GT$13new_unchecked17hc7cc5342eb94e042E>
    80000f60:	e42a                	sd	a0,8(sp)
    80000f62:	a021                	j	80000f6a <_ZN4core5slice4iter13Iter$LT$T$GT$3new17ha202b11559f95caeE+0x72>
    80000f64:	6542                	ld	a0,16(sp)
    80000f66:	fc2a                	sd	a0,56(sp)
    80000f68:	b7fd                	j	80000f56 <_ZN4core5slice4iter13Iter$LT$T$GT$3new17ha202b11559f95caeE+0x5e>
    80000f6a:	6522                	ld	a0,8(sp)
    80000f6c:	75e2                	ld	a1,56(sp)
    80000f6e:	f42a                	sd	a0,40(sp)
    80000f70:	f82e                	sd	a1,48(sp)
    80000f72:	70aa                	ld	ra,168(sp)
    80000f74:	614d                	addi	sp,sp,176
    80000f76:	8082                	ret

0000000080000f78 <_ZN91_$LT$core..slice..iter..Iter$LT$T$GT$$u20$as$u20$core..iter..traits..iterator..Iterator$GT$4next17h826c20035fd27f99E>:
    80000f78:	7119                	addi	sp,sp,-128
    80000f7a:	fc86                	sd	ra,120(sp)
    80000f7c:	f02a                	sd	a0,32(sp)
    80000f7e:	fc2a                	sd	a0,56(sp)
    80000f80:	6108                	ld	a0,0(a0)
    80000f82:	0000a097          	auipc	ra,0xa
    80000f86:	388080e7          	jalr	904(ra) # 8000b30a <_ZN4core3ptr8non_null16NonNull$LT$T$GT$6as_ptr17h1b65225553c65292E>
    80000f8a:	f42a                	sd	a0,40(sp)
    80000f8c:	a009                	j	80000f8e <_ZN91_$LT$core..slice..iter..Iter$LT$T$GT$$u20$as$u20$core..iter..traits..iterator..Iterator$GT$4next17h826c20035fd27f99E+0x16>
    80000f8e:	7522                	ld	a0,40(sp)
    80000f90:	0000a097          	auipc	ra,0xa
    80000f94:	698080e7          	jalr	1688(ra) # 8000b628 <_ZN4core3ptr7mut_ptr31_$LT$impl$u20$$BP$mut$u20$T$GT$7is_null17hcd37bc070cba31c5E>
    80000f98:	a009                	j	80000f9a <_ZN91_$LT$core..slice..iter..Iter$LT$T$GT$$u20$as$u20$core..iter..traits..iterator..Iterator$GT$4next17h826c20035fd27f99E+0x22>
    80000f9a:	a009                	j	80000f9c <_ZN91_$LT$core..slice..iter..Iter$LT$T$GT$$u20$as$u20$core..iter..traits..iterator..Iterator$GT$4next17h826c20035fd27f99E+0x24>
    80000f9c:	a009                	j	80000f9e <_ZN91_$LT$core..slice..iter..Iter$LT$T$GT$$u20$as$u20$core..iter..traits..iterator..Iterator$GT$4next17h826c20035fd27f99E+0x26>
    80000f9e:	4581                	li	a1,0
    80000fa0:	4505                	li	a0,1
    80000fa2:	00b51463          	bne	a0,a1,80000faa <_ZN91_$LT$core..slice..iter..Iter$LT$T$GT$$u20$as$u20$core..iter..traits..iterator..Iterator$GT$4next17h826c20035fd27f99E+0x32>
    80000fa6:	a009                	j	80000fa8 <_ZN91_$LT$core..slice..iter..Iter$LT$T$GT$$u20$as$u20$core..iter..traits..iterator..Iterator$GT$4next17h826c20035fd27f99E+0x30>
    80000fa8:	a811                	j	80000fbc <_ZN91_$LT$core..slice..iter..Iter$LT$T$GT$$u20$as$u20$core..iter..traits..iterator..Iterator$GT$4next17h826c20035fd27f99E+0x44>
    80000faa:	7502                	ld	a0,32(sp)
    80000fac:	6508                	ld	a0,8(a0)
    80000fae:	00005097          	auipc	ra,0x5
    80000fb2:	290080e7          	jalr	656(ra) # 8000623e <_ZN4core3ptr9const_ptr33_$LT$impl$u20$$BP$const$u20$T$GT$7is_null17he97f9d491161ef2cE>
    80000fb6:	a009                	j	80000fb8 <_ZN91_$LT$core..slice..iter..Iter$LT$T$GT$$u20$as$u20$core..iter..traits..iterator..Iterator$GT$4next17h826c20035fd27f99E+0x40>
    80000fb8:	a009                	j	80000fba <_ZN91_$LT$core..slice..iter..Iter$LT$T$GT$$u20$as$u20$core..iter..traits..iterator..Iterator$GT$4next17h826c20035fd27f99E+0x42>
    80000fba:	a009                	j	80000fbc <_ZN91_$LT$core..slice..iter..Iter$LT$T$GT$$u20$as$u20$core..iter..traits..iterator..Iterator$GT$4next17h826c20035fd27f99E+0x44>
    80000fbc:	7502                	ld	a0,32(sp)
    80000fbe:	6108                	ld	a0,0(a0)
    80000fc0:	0000a097          	auipc	ra,0xa
    80000fc4:	34a080e7          	jalr	842(ra) # 8000b30a <_ZN4core3ptr8non_null16NonNull$LT$T$GT$6as_ptr17h1b65225553c65292E>
    80000fc8:	ec2a                	sd	a0,24(sp)
    80000fca:	a009                	j	80000fcc <_ZN91_$LT$core..slice..iter..Iter$LT$T$GT$$u20$as$u20$core..iter..traits..iterator..Iterator$GT$4next17h826c20035fd27f99E+0x54>
    80000fcc:	6562                	ld	a0,24(sp)
    80000fce:	7582                	ld	a1,32(sp)
    80000fd0:	658c                	ld	a1,8(a1)
    80000fd2:	04b50663          	beq	a0,a1,8000101e <_ZN91_$LT$core..slice..iter..Iter$LT$T$GT$$u20$as$u20$core..iter..traits..iterator..Iterator$GT$4next17h826c20035fd27f99E+0xa6>
    80000fd6:	a009                	j	80000fd8 <_ZN91_$LT$core..slice..iter..Iter$LT$T$GT$$u20$as$u20$core..iter..traits..iterator..Iterator$GT$4next17h826c20035fd27f99E+0x60>
    80000fd8:	7502                	ld	a0,32(sp)
    80000fda:	e4aa                	sd	a0,72(sp)
    80000fdc:	4585                	li	a1,1
    80000fde:	e02e                	sd	a1,0(sp)
    80000fe0:	e8ae                	sd	a1,80(sp)
    80000fe2:	6108                	ld	a0,0(a0)
    80000fe4:	0000a097          	auipc	ra,0xa
    80000fe8:	326080e7          	jalr	806(ra) # 8000b30a <_ZN4core3ptr8non_null16NonNull$LT$T$GT$6as_ptr17h1b65225553c65292E>
    80000fec:	85aa                	mv	a1,a0
    80000fee:	7502                	ld	a0,32(sp)
    80000ff0:	e42e                	sd	a1,8(sp)
    80000ff2:	ecae                	sd	a1,88(sp)
    80000ff4:	6108                	ld	a0,0(a0)
    80000ff6:	0000a097          	auipc	ra,0xa
    80000ffa:	314080e7          	jalr	788(ra) # 8000b30a <_ZN4core3ptr8non_null16NonNull$LT$T$GT$6as_ptr17h1b65225553c65292E>
    80000ffe:	6582                	ld	a1,0(sp)
    80001000:	f0aa                	sd	a0,96(sp)
    80001002:	f4ae                	sd	a1,104(sp)
    80001004:	0505                	addi	a0,a0,1
    80001006:	f8aa                	sd	a0,112(sp)
    80001008:	0000a097          	auipc	ra,0xa
    8000100c:	2b8080e7          	jalr	696(ra) # 8000b2c0 <_ZN4core3ptr8non_null16NonNull$LT$T$GT$13new_unchecked17hc7cc5342eb94e042E>
    80001010:	7602                	ld	a2,32(sp)
    80001012:	85aa                	mv	a1,a0
    80001014:	6522                	ld	a0,8(sp)
    80001016:	e20c                	sd	a1,0(a2)
    80001018:	e0aa                	sd	a0,64(sp)
    8000101a:	e82a                	sd	a0,16(sp)
    8000101c:	a801                	j	8000102c <_ZN91_$LT$core..slice..iter..Iter$LT$T$GT$$u20$as$u20$core..iter..traits..iterator..Iterator$GT$4next17h826c20035fd27f99E+0xb4>
    8000101e:	4501                	li	a0,0
    80001020:	f82a                	sd	a0,48(sp)
    80001022:	a009                	j	80001024 <_ZN91_$LT$core..slice..iter..Iter$LT$T$GT$$u20$as$u20$core..iter..traits..iterator..Iterator$GT$4next17h826c20035fd27f99E+0xac>
    80001024:	7542                	ld	a0,48(sp)
    80001026:	70e6                	ld	ra,120(sp)
    80001028:	6109                	addi	sp,sp,128
    8000102a:	8082                	ret
    8000102c:	6542                	ld	a0,16(sp)
    8000102e:	f82a                	sd	a0,48(sp)
    80001030:	bfd5                	j	80001024 <_ZN91_$LT$core..slice..iter..Iter$LT$T$GT$$u20$as$u20$core..iter..traits..iterator..Iterator$GT$4next17h826c20035fd27f99E+0xac>

0000000080001032 <_ZN4core5alloc6layout10size_align17hfa83a0afc9f29ceeE>:
    80001032:	1141                	addi	sp,sp,-16
    80001034:	a009                	j	80001036 <_ZN4core5alloc6layout10size_align17hfa83a0afc9f29ceeE+0x4>
    80001036:	a009                	j	80001038 <_ZN4core5alloc6layout10size_align17hfa83a0afc9f29ceeE+0x6>
    80001038:	4541                	li	a0,16
    8000103a:	e02a                	sd	a0,0(sp)
    8000103c:	45a1                	li	a1,8
    8000103e:	e42e                	sd	a1,8(sp)
    80001040:	0141                	addi	sp,sp,16
    80001042:	8082                	ret

0000000080001044 <_ZN4core5alloc6layout6Layout13for_value_raw17h2874bb9efbaba361E>:
    80001044:	711d                	addi	sp,sp,-96
    80001046:	ec86                	sd	ra,88(sp)
    80001048:	f02a                	sd	a0,32(sp)
    8000104a:	e0aa                	sd	a0,64(sp)
    8000104c:	00007097          	auipc	ra,0x7
    80001050:	fce080e7          	jalr	-50(ra) # 8000801a <_ZN4core3mem15size_of_val_raw17hed7b39ff512bb1fbE>
    80001054:	f42a                	sd	a0,40(sp)
    80001056:	a009                	j	80001058 <_ZN4core5alloc6layout6Layout13for_value_raw17h2874bb9efbaba361E+0x14>
    80001058:	7502                	ld	a0,32(sp)
    8000105a:	00007097          	auipc	ra,0x7
    8000105e:	fe6080e7          	jalr	-26(ra) # 80008040 <_ZN4core3mem16align_of_val_raw17h62afb945f29be786E>
    80001062:	ec2a                	sd	a0,24(sp)
    80001064:	a009                	j	80001066 <_ZN4core5alloc6layout6Layout13for_value_raw17h2874bb9efbaba361E+0x22>
    80001066:	65e2                	ld	a1,24(sp)
    80001068:	7522                	ld	a0,40(sp)
    8000106a:	f82a                	sd	a0,48(sp)
    8000106c:	fc2e                	sd	a1,56(sp)
    8000106e:	e4aa                	sd	a0,72(sp)
    80001070:	e8ae                	sd	a1,80(sp)
    80001072:	00000097          	auipc	ra,0x0
    80001076:	650080e7          	jalr	1616(ra) # 800016c2 <_ZN4core5alloc6layout6Layout25from_size_align_unchecked17h2d3c70d52e73f558E>
    8000107a:	e42a                	sd	a0,8(sp)
    8000107c:	e82e                	sd	a1,16(sp)
    8000107e:	a009                	j	80001080 <_ZN4core5alloc6layout6Layout13for_value_raw17h2874bb9efbaba361E+0x3c>
    80001080:	65c2                	ld	a1,16(sp)
    80001082:	6522                	ld	a0,8(sp)
    80001084:	60e6                	ld	ra,88(sp)
    80001086:	6125                	addi	sp,sp,96
    80001088:	8082                	ret

000000008000108a <_ZN4core5alloc6layout6Layout13for_value_raw17h90d9a1deab3176d2E>:
    8000108a:	711d                	addi	sp,sp,-96
    8000108c:	ec86                	sd	ra,88(sp)
    8000108e:	f02a                	sd	a0,32(sp)
    80001090:	e0aa                	sd	a0,64(sp)
    80001092:	00007097          	auipc	ra,0x7
    80001096:	f74080e7          	jalr	-140(ra) # 80008006 <_ZN4core3mem15size_of_val_raw17h38afc79c27f879d4E>
    8000109a:	f42a                	sd	a0,40(sp)
    8000109c:	a009                	j	8000109e <_ZN4core5alloc6layout6Layout13for_value_raw17h90d9a1deab3176d2E+0x14>
    8000109e:	7502                	ld	a0,32(sp)
    800010a0:	00007097          	auipc	ra,0x7
    800010a4:	fb2080e7          	jalr	-78(ra) # 80008052 <_ZN4core3mem16align_of_val_raw17hcf6d6f9b174894a8E>
    800010a8:	ec2a                	sd	a0,24(sp)
    800010aa:	a009                	j	800010ac <_ZN4core5alloc6layout6Layout13for_value_raw17h90d9a1deab3176d2E+0x22>
    800010ac:	65e2                	ld	a1,24(sp)
    800010ae:	7522                	ld	a0,40(sp)
    800010b0:	f82a                	sd	a0,48(sp)
    800010b2:	fc2e                	sd	a1,56(sp)
    800010b4:	e4aa                	sd	a0,72(sp)
    800010b6:	e8ae                	sd	a1,80(sp)
    800010b8:	00000097          	auipc	ra,0x0
    800010bc:	60a080e7          	jalr	1546(ra) # 800016c2 <_ZN4core5alloc6layout6Layout25from_size_align_unchecked17h2d3c70d52e73f558E>
    800010c0:	e42a                	sd	a0,8(sp)
    800010c2:	e82e                	sd	a1,16(sp)
    800010c4:	a009                	j	800010c6 <_ZN4core5alloc6layout6Layout13for_value_raw17h90d9a1deab3176d2E+0x3c>
    800010c6:	65c2                	ld	a1,16(sp)
    800010c8:	6522                	ld	a0,8(sp)
    800010ca:	60e6                	ld	ra,88(sp)
    800010cc:	6125                	addi	sp,sp,96
    800010ce:	8082                	ret

00000000800010d0 <_ZN4core5alloc6layout6Layout13for_value_raw17hbca74915aee8080dE>:
    800010d0:	711d                	addi	sp,sp,-96
    800010d2:	ec86                	sd	ra,88(sp)
    800010d4:	f02a                	sd	a0,32(sp)
    800010d6:	e0aa                	sd	a0,64(sp)
    800010d8:	00007097          	auipc	ra,0x7
    800010dc:	f1a080e7          	jalr	-230(ra) # 80007ff2 <_ZN4core3mem15size_of_val_raw17h0faae7c7495c0d1eE>
    800010e0:	f42a                	sd	a0,40(sp)
    800010e2:	a009                	j	800010e4 <_ZN4core5alloc6layout6Layout13for_value_raw17hbca74915aee8080dE+0x14>
    800010e4:	7502                	ld	a0,32(sp)
    800010e6:	00007097          	auipc	ra,0x7
    800010ea:	f7e080e7          	jalr	-130(ra) # 80008064 <_ZN4core3mem16align_of_val_raw17hfafef0b137f46a3aE>
    800010ee:	ec2a                	sd	a0,24(sp)
    800010f0:	a009                	j	800010f2 <_ZN4core5alloc6layout6Layout13for_value_raw17hbca74915aee8080dE+0x22>
    800010f2:	65e2                	ld	a1,24(sp)
    800010f4:	7522                	ld	a0,40(sp)
    800010f6:	f82a                	sd	a0,48(sp)
    800010f8:	fc2e                	sd	a1,56(sp)
    800010fa:	e4aa                	sd	a0,72(sp)
    800010fc:	e8ae                	sd	a1,80(sp)
    800010fe:	00000097          	auipc	ra,0x0
    80001102:	5c4080e7          	jalr	1476(ra) # 800016c2 <_ZN4core5alloc6layout6Layout25from_size_align_unchecked17h2d3c70d52e73f558E>
    80001106:	e42a                	sd	a0,8(sp)
    80001108:	e82e                	sd	a1,16(sp)
    8000110a:	a009                	j	8000110c <_ZN4core5alloc6layout6Layout13for_value_raw17hbca74915aee8080dE+0x3c>
    8000110c:	65c2                	ld	a1,16(sp)
    8000110e:	6522                	ld	a0,8(sp)
    80001110:	60e6                	ld	ra,88(sp)
    80001112:	6125                	addi	sp,sp,96
    80001114:	8082                	ret

0000000080001116 <_ZN4core5alloc6layout6Layout3new17h4b6d6ca9367aa5b3E>:
    80001116:	7139                	addi	sp,sp,-64
    80001118:	fc06                	sd	ra,56(sp)
    8000111a:	00000097          	auipc	ra,0x0
    8000111e:	f18080e7          	jalr	-232(ra) # 80001032 <_ZN4core5alloc6layout10size_align17hfa83a0afc9f29ceeE>
    80001122:	ec2a                	sd	a0,24(sp)
    80001124:	f02e                	sd	a1,32(sp)
    80001126:	a009                	j	80001128 <_ZN4core5alloc6layout6Layout3new17h4b6d6ca9367aa5b3E+0x12>
    80001128:	7582                	ld	a1,32(sp)
    8000112a:	6562                	ld	a0,24(sp)
    8000112c:	f42a                	sd	a0,40(sp)
    8000112e:	f82e                	sd	a1,48(sp)
    80001130:	00000097          	auipc	ra,0x0
    80001134:	592080e7          	jalr	1426(ra) # 800016c2 <_ZN4core5alloc6layout6Layout25from_size_align_unchecked17h2d3c70d52e73f558E>
    80001138:	e42a                	sd	a0,8(sp)
    8000113a:	e82e                	sd	a1,16(sp)
    8000113c:	a009                	j	8000113e <_ZN4core5alloc6layout6Layout3new17h4b6d6ca9367aa5b3E+0x28>
    8000113e:	65c2                	ld	a1,16(sp)
    80001140:	6522                	ld	a0,8(sp)
    80001142:	70e2                	ld	ra,56(sp)
    80001144:	6121                	addi	sp,sp,64
    80001146:	8082                	ret

0000000080001148 <_ZN4core5alloc6layout6Layout5array17hc8b5fe93385f3ee1E>:
    80001148:	7175                	addi	sp,sp,-144
    8000114a:	e506                	sd	ra,136(sp)
    8000114c:	e0aa                	sd	a0,64(sp)
    8000114e:	f4aa                	sd	a0,104(sp)
    80001150:	a009                	j	80001152 <_ZN4core5alloc6layout6Layout5array17hc8b5fe93385f3ee1E+0xa>
    80001152:	6586                	ld	a1,64(sp)
    80001154:	4505                	li	a0,1
    80001156:	00006097          	auipc	ra,0x6
    8000115a:	7b6080e7          	jalr	1974(ra) # 8000790c <_ZN4core3num23_$LT$impl$u20$usize$GT$11checked_mul17h13b0a9ae4e9003b1E>
    8000115e:	f82a                	sd	a0,48(sp)
    80001160:	fc2e                	sd	a1,56(sp)
    80001162:	a009                	j	80001164 <_ZN4core5alloc6layout6Layout5array17hc8b5fe93385f3ee1E+0x1c>
    80001164:	75e2                	ld	a1,56(sp)
    80001166:	7542                	ld	a0,48(sp)
    80001168:	00000097          	auipc	ra,0x0
    8000116c:	890080e7          	jalr	-1904(ra) # 800009f8 <_ZN4core6option15Option$LT$T$GT$5ok_or17h8118f632ae9352cfE>
    80001170:	f02a                	sd	a0,32(sp)
    80001172:	f42e                	sd	a1,40(sp)
    80001174:	a009                	j	80001176 <_ZN4core5alloc6layout6Layout5array17hc8b5fe93385f3ee1E+0x2e>
    80001176:	75a2                	ld	a1,40(sp)
    80001178:	7502                	ld	a0,32(sp)
    8000117a:	00007097          	auipc	ra,0x7
    8000117e:	9be080e7          	jalr	-1602(ra) # 80007b38 <_ZN79_$LT$core..result..Result$LT$T$C$E$GT$$u20$as$u20$core..ops..try_trait..Try$GT$6branch17h7690e145716f777dE>
    80001182:	ecaa                	sd	a0,88(sp)
    80001184:	f0ae                	sd	a1,96(sp)
    80001186:	a009                	j	80001188 <_ZN4core5alloc6layout6Layout5array17hc8b5fe93385f3ee1E+0x40>
    80001188:	6566                	ld	a0,88(sp)
    8000118a:	4581                	li	a1,0
    8000118c:	00b50563          	beq	a0,a1,80001196 <_ZN4core5alloc6layout6Layout5array17hc8b5fe93385f3ee1E+0x4e>
    80001190:	a009                	j	80001192 <_ZN4core5alloc6layout6Layout5array17hc8b5fe93385f3ee1E+0x4a>
    80001192:	a039                	j	800011a0 <.LBB7_13>
    80001194:	0000                	unimp
    80001196:	7506                	ld	a0,96(sp)
    80001198:	ec2a                	sd	a0,24(sp)
    8000119a:	fcaa                	sd	a0,120(sp)
    8000119c:	e12a                	sd	a0,128(sp)
    8000119e:	a015                	j	800011c2 <.LBB7_13+0x22>

00000000800011a0 <.LBB7_13>:
    800011a0:	0000c517          	auipc	a0,0xc
    800011a4:	fd850513          	addi	a0,a0,-40 # 8000d178 <.L__unnamed_1>
    800011a8:	00007097          	auipc	ra,0x7
    800011ac:	8b4080e7          	jalr	-1868(ra) # 80007a5c <_ZN153_$LT$core..result..Result$LT$T$C$F$GT$$u20$as$u20$core..ops..try_trait..FromResidual$LT$core..result..Result$LT$core..convert..Infallible$C$E$GT$$GT$$GT$13from_residual17h43b201d93af3d35fE>
    800011b0:	e4aa                	sd	a0,72(sp)
    800011b2:	e8ae                	sd	a1,80(sp)
    800011b4:	a009                	j	800011b6 <.LBB7_13+0x16>
    800011b6:	a009                	j	800011b8 <.LBB7_13+0x18>
    800011b8:	6526                	ld	a0,72(sp)
    800011ba:	65c6                	ld	a1,80(sp)
    800011bc:	60aa                	ld	ra,136(sp)
    800011be:	6149                	addi	sp,sp,144
    800011c0:	8082                	ret
    800011c2:	6562                	ld	a0,24(sp)
    800011c4:	4585                	li	a1,1
    800011c6:	00000097          	auipc	ra,0x0
    800011ca:	4fc080e7          	jalr	1276(ra) # 800016c2 <_ZN4core5alloc6layout6Layout25from_size_align_unchecked17h2d3c70d52e73f558E>
    800011ce:	e42a                	sd	a0,8(sp)
    800011d0:	e82e                	sd	a1,16(sp)
    800011d2:	a009                	j	800011d4 <.LBB7_13+0x34>
    800011d4:	6542                	ld	a0,16(sp)
    800011d6:	65a2                	ld	a1,8(sp)
    800011d8:	e4ae                	sd	a1,72(sp)
    800011da:	e8aa                	sd	a0,80(sp)
    800011dc:	bff1                	j	800011b8 <.LBB7_13+0x18>

00000000800011de <_ZN50_$LT$T$u20$as$u20$core..convert..From$LT$T$GT$$GT$4from17h21f73eef362ef98cE>:
    800011de:	1141                	addi	sp,sp,-16
    800011e0:	0141                	addi	sp,sp,16
    800011e2:	8082                	ret

00000000800011e4 <_ZN93_$LT$spin..mutex..ticket..TicketMutexGuard$LT$T$GT$$u20$as$u20$core..ops..deref..DerefMut$GT$9deref_mut17h3ec181dc3880991eE>:
        self.value
    }
}

impl<'a, T: ?Sized> DerefMut for TicketMutexGuard<'a, T> {
    fn deref_mut(&mut self) -> &mut T {
    800011e4:	1141                	addi	sp,sp,-16
    800011e6:	e42a                	sd	a0,8(sp)
        self.value
    800011e8:	6908                	ld	a0,16(a0)
    }
    800011ea:	0141                	addi	sp,sp,16
    800011ec:	8082                	ret

00000000800011ee <_ZN42_$LT$$RF$T$u20$as$u20$core..fmt..Debug$GT$3fmt17he2980b33d2483ec7E>:
    800011ee:	1101                	addi	sp,sp,-32
    800011f0:	ec06                	sd	ra,24(sp)
    800011f2:	e42a                	sd	a0,8(sp)
    800011f4:	e82e                	sd	a1,16(sp)
    800011f6:	6108                	ld	a0,0(a0)
    800011f8:	00007097          	auipc	ra,0x7
    800011fc:	ee6080e7          	jalr	-282(ra) # 800080de <_ZN4core3fmt3num52_$LT$impl$u20$core..fmt..Debug$u20$for$u20$usize$GT$3fmt17hb6f778f54e0d99b9E>
    80001200:	e02a                	sd	a0,0(sp)
    80001202:	a009                	j	80001204 <_ZN42_$LT$$RF$T$u20$as$u20$core..fmt..Debug$GT$3fmt17he2980b33d2483ec7E+0x16>
    80001204:	6502                	ld	a0,0(sp)
    80001206:	60e2                	ld	ra,24(sp)
    80001208:	6105                	addi	sp,sp,32
    8000120a:	8082                	ret

000000008000120c <_ZN4core3fmt10ArgumentV111new_display17h0421c2d5aa0825e7E>:
    8000120c:	1101                	addi	sp,sp,-32
    8000120e:	ec06                	sd	ra,24(sp)
    80001210:	e82a                	sd	a0,16(sp)

0000000080001212 <.LBB1_2>:
    80001212:	0000c597          	auipc	a1,0xc
    80001216:	b0a58593          	addi	a1,a1,-1270 # 8000cd1c <_ZN4core3fmt3num3imp52_$LT$impl$u20$core..fmt..Display$u20$for$u20$u64$GT$3fmt17hd6f7394cb3013e59E>
    8000121a:	00000097          	auipc	ra,0x0
    8000121e:	086080e7          	jalr	134(ra) # 800012a0 <_ZN4core3fmt10ArgumentV13new17h9ef423e57a99c0fbE>
    80001222:	e02a                	sd	a0,0(sp)
    80001224:	e42e                	sd	a1,8(sp)
    80001226:	a009                	j	80001228 <.LBB1_2+0x16>
    80001228:	65a2                	ld	a1,8(sp)
    8000122a:	6502                	ld	a0,0(sp)
    8000122c:	60e2                	ld	ra,24(sp)
    8000122e:	6105                	addi	sp,sp,32
    80001230:	8082                	ret

0000000080001232 <_ZN4core3fmt10ArgumentV113new_upper_hex17h3bf985d576323976E>:
    80001232:	1101                	addi	sp,sp,-32
    80001234:	ec06                	sd	ra,24(sp)
    80001236:	e82a                	sd	a0,16(sp)

0000000080001238 <.LBB4_2>:
    80001238:	0000c597          	auipc	a1,0xc
    8000123c:	80458593          	addi	a1,a1,-2044 # 8000ca3c <_ZN4core3fmt3num53_$LT$impl$u20$core..fmt..UpperHex$u20$for$u20$i32$GT$3fmt17ha595c1de8107bdf2E>
    80001240:	00000097          	auipc	ra,0x0
    80001244:	03e080e7          	jalr	62(ra) # 8000127e <_ZN4core3fmt10ArgumentV13new17h1513f71fa1fa8154E>
    80001248:	e02a                	sd	a0,0(sp)
    8000124a:	e42e                	sd	a1,8(sp)
    8000124c:	a009                	j	8000124e <.LBB4_2+0x16>
    8000124e:	65a2                	ld	a1,8(sp)
    80001250:	6502                	ld	a0,0(sp)
    80001252:	60e2                	ld	ra,24(sp)
    80001254:	6105                	addi	sp,sp,32
    80001256:	8082                	ret

0000000080001258 <_ZN4core3fmt10ArgumentV113new_upper_hex17h95f58828fb322d41E>:
    80001258:	1101                	addi	sp,sp,-32
    8000125a:	ec06                	sd	ra,24(sp)
    8000125c:	e82a                	sd	a0,16(sp)

000000008000125e <.LBB5_2>:
    8000125e:	0000c597          	auipc	a1,0xc
    80001262:	8da58593          	addi	a1,a1,-1830 # 8000cb38 <_ZN4core3fmt3num53_$LT$impl$u20$core..fmt..UpperHex$u20$for$u20$i64$GT$3fmt17h92968aa1cffa7cbdE>
    80001266:	00000097          	auipc	ra,0x0
    8000126a:	03a080e7          	jalr	58(ra) # 800012a0 <_ZN4core3fmt10ArgumentV13new17h9ef423e57a99c0fbE>
    8000126e:	e02a                	sd	a0,0(sp)
    80001270:	e42e                	sd	a1,8(sp)
    80001272:	a009                	j	80001274 <.LBB5_2+0x16>
    80001274:	65a2                	ld	a1,8(sp)
    80001276:	6502                	ld	a0,0(sp)
    80001278:	60e2                	ld	ra,24(sp)
    8000127a:	6105                	addi	sp,sp,32
    8000127c:	8082                	ret

000000008000127e <_ZN4core3fmt10ArgumentV13new17h1513f71fa1fa8154E>:
    8000127e:	715d                	addi	sp,sp,-80
    80001280:	e82a                	sd	a0,16(sp)
    80001282:	f82a                	sd	a0,48(sp)
    80001284:	fc2e                	sd	a1,56(sp)
    80001286:	e0ae                	sd	a1,64(sp)
    80001288:	ec2e                	sd	a1,24(sp)
    8000128a:	a009                	j	8000128c <_ZN4core3fmt10ArgumentV13new17h1513f71fa1fa8154E+0xe>
    8000128c:	6542                	ld	a0,16(sp)
    8000128e:	e4aa                	sd	a0,72(sp)
    80001290:	e42a                	sd	a0,8(sp)
    80001292:	a009                	j	80001294 <_ZN4core3fmt10ArgumentV13new17h1513f71fa1fa8154E+0x16>
    80001294:	65e2                	ld	a1,24(sp)
    80001296:	6522                	ld	a0,8(sp)
    80001298:	f02a                	sd	a0,32(sp)
    8000129a:	f42e                	sd	a1,40(sp)
    8000129c:	6161                	addi	sp,sp,80
    8000129e:	8082                	ret

00000000800012a0 <_ZN4core3fmt10ArgumentV13new17h9ef423e57a99c0fbE>:
    800012a0:	715d                	addi	sp,sp,-80
    800012a2:	e82a                	sd	a0,16(sp)
    800012a4:	f82a                	sd	a0,48(sp)
    800012a6:	fc2e                	sd	a1,56(sp)
    800012a8:	e0ae                	sd	a1,64(sp)
    800012aa:	ec2e                	sd	a1,24(sp)
    800012ac:	a009                	j	800012ae <_ZN4core3fmt10ArgumentV13new17h9ef423e57a99c0fbE+0xe>
    800012ae:	6542                	ld	a0,16(sp)
    800012b0:	e4aa                	sd	a0,72(sp)
    800012b2:	e42a                	sd	a0,8(sp)
    800012b4:	a009                	j	800012b6 <_ZN4core3fmt10ArgumentV13new17h9ef423e57a99c0fbE+0x16>
    800012b6:	65e2                	ld	a1,24(sp)
    800012b8:	6522                	ld	a0,8(sp)
    800012ba:	f02a                	sd	a0,32(sp)
    800012bc:	f42e                	sd	a1,40(sp)
    800012be:	6161                	addi	sp,sp,80
    800012c0:	8082                	ret

00000000800012c2 <_ZN4core3ptr7mut_ptr31_$LT$impl$u20$$BP$mut$u20$T$GT$16with_metadata_of17hf79c379eb13e8dafE>:
    800012c2:	1101                	addi	sp,sp,-32
    800012c4:	e82a                	sd	a0,16(sp)
    800012c6:	002c                	addi	a1,sp,8
    800012c8:	ec2e                	sd	a1,24(sp)
    800012ca:	e42a                	sd	a0,8(sp)
    800012cc:	6105                	addi	sp,sp,32
    800012ce:	8082                	ret

00000000800012d0 <_ZN4core3ptr7mut_ptr31_$LT$impl$u20$$BP$mut$u20$T$GT$4addr17h6d3d245cd89e1d74E>:
    800012d0:	1141                	addi	sp,sp,-16
    800012d2:	e42a                	sd	a0,8(sp)
    800012d4:	0141                	addi	sp,sp,16
    800012d6:	8082                	ret

00000000800012d8 <_ZN4core3num7nonzero12NonZeroUsize13new_unchecked17h3ae06eaff2285637E>:
    800012d8:	1141                	addi	sp,sp,-16
    800012da:	e42a                	sd	a0,8(sp)
    800012dc:	e02a                	sd	a0,0(sp)
    800012de:	0141                	addi	sp,sp,16
    800012e0:	8082                	ret

00000000800012e2 <_ZN4core3num7nonzero12NonZeroUsize3get17haec750753a464d33E>:
    800012e2:	1141                	addi	sp,sp,-16
    800012e4:	e42a                	sd	a0,8(sp)
    800012e6:	0141                	addi	sp,sp,16
    800012e8:	8082                	ret

00000000800012ea <_ZN5alloc5alloc12alloc_zeroed17h69c69936b040c519E>:
    800012ea:	7179                	addi	sp,sp,-48
    800012ec:	f406                	sd	ra,40(sp)
    800012ee:	ec2a                	sd	a0,24(sp)
    800012f0:	f02e                	sd	a1,32(sp)
    800012f2:	0828                	addi	a0,sp,24
    800012f4:	00000097          	auipc	ra,0x0
    800012f8:	3f8080e7          	jalr	1016(ra) # 800016ec <_ZN4core5alloc6layout6Layout4size17hb2f7256542be1296E>
    800012fc:	e82a                	sd	a0,16(sp)
    800012fe:	a009                	j	80001300 <_ZN5alloc5alloc12alloc_zeroed17h69c69936b040c519E+0x16>
    80001300:	0828                	addi	a0,sp,24
    80001302:	00000097          	auipc	ra,0x0
    80001306:	3f4080e7          	jalr	1012(ra) # 800016f6 <_ZN4core5alloc6layout6Layout5align17hfc36e7d25066938dE>
    8000130a:	e42a                	sd	a0,8(sp)
    8000130c:	a009                	j	8000130e <_ZN5alloc5alloc12alloc_zeroed17h69c69936b040c519E+0x24>
    8000130e:	65a2                	ld	a1,8(sp)
    80001310:	6542                	ld	a0,16(sp)
    80001312:	0000a097          	auipc	ra,0xa
    80001316:	9bc080e7          	jalr	-1604(ra) # 8000acce <__rust_alloc_zeroed>
    8000131a:	e02a                	sd	a0,0(sp)
    8000131c:	a009                	j	8000131e <_ZN5alloc5alloc12alloc_zeroed17h69c69936b040c519E+0x34>
    8000131e:	6502                	ld	a0,0(sp)
    80001320:	70a2                	ld	ra,40(sp)
    80001322:	6145                	addi	sp,sp,48
    80001324:	8082                	ret

0000000080001326 <_ZN5alloc5alloc15exchange_malloc17hfa03cac049ebdfcbE>:
    80001326:	711d                	addi	sp,sp,-96
    80001328:	ec86                	sd	ra,88(sp)
    8000132a:	f42a                	sd	a0,40(sp)
    8000132c:	f82e                	sd	a1,48(sp)
    8000132e:	00000097          	auipc	ra,0x0
    80001332:	394080e7          	jalr	916(ra) # 800016c2 <_ZN4core5alloc6layout6Layout25from_size_align_unchecked17h2d3c70d52e73f558E>
    80001336:	862a                	mv	a2,a0
    80001338:	e432                	sd	a2,8(sp)
    8000133a:	862e                	mv	a2,a1
    8000133c:	e832                	sd	a2,16(sp)
    8000133e:	fc2a                	sd	a0,56(sp)
    80001340:	e0ae                	sd	a1,64(sp)
    80001342:	a009                	j	80001344 <_ZN5alloc5alloc15exchange_malloc17hfa03cac049ebdfcbE+0x1e>
    80001344:	6642                	ld	a2,16(sp)
    80001346:	65a2                	ld	a1,8(sp)

0000000080001348 <.LBB1_8>:
    80001348:	0000c517          	auipc	a0,0xc
    8000134c:	e4850513          	addi	a0,a0,-440 # 8000d190 <.L__unnamed_5>
    80001350:	00000097          	auipc	ra,0x0
    80001354:	23c080e7          	jalr	572(ra) # 8000158c <_ZN63_$LT$alloc..alloc..Global$u20$as$u20$core..alloc..Allocator$GT$8allocate17hf962a68b61460cceE>
    80001358:	ec2a                	sd	a0,24(sp)
    8000135a:	f02e                	sd	a1,32(sp)
    8000135c:	a009                	j	8000135e <.LBB1_8+0x16>
    8000135e:	6562                	ld	a0,24(sp)
    80001360:	00153593          	seqz	a1,a0
    80001364:	4581                	li	a1,0
    80001366:	00b51563          	bne	a0,a1,80001370 <.LBB1_8+0x28>
    8000136a:	a009                	j	8000136c <.LBB1_8+0x24>
    8000136c:	a821                	j	80001384 <.LBB1_8+0x3c>
    8000136e:	0000                	unimp
    80001370:	6562                	ld	a0,24(sp)
    80001372:	7582                	ld	a1,32(sp)
    80001374:	e4aa                	sd	a0,72(sp)
    80001376:	e8ae                	sd	a1,80(sp)
    80001378:	fffff097          	auipc	ra,0xfffff
    8000137c:	18c080e7          	jalr	396(ra) # 80000504 <_ZN4core3ptr8non_null26NonNull$LT$$u5b$T$u5d$$GT$10as_mut_ptr17ha9983cf1548c75dbE>
    80001380:	e02a                	sd	a0,0(sp)
    80001382:	a801                	j	80001392 <.LBB1_8+0x4a>
    80001384:	65c2                	ld	a1,16(sp)
    80001386:	6522                	ld	a0,8(sp)
    80001388:	fffff097          	auipc	ra,0xfffff
    8000138c:	d72080e7          	jalr	-654(ra) # 800000fa <_ZN5alloc5alloc18handle_alloc_error17hb1dc0cd1c45ebcfaE>
    80001390:	0000                	unimp
    80001392:	6502                	ld	a0,0(sp)
    80001394:	60e6                	ld	ra,88(sp)
    80001396:	6125                	addi	sp,sp,96
    80001398:	8082                	ret

000000008000139a <_ZN5alloc5alloc5alloc17h2289557e92509a52E>:
    8000139a:	7179                	addi	sp,sp,-48
    8000139c:	f406                	sd	ra,40(sp)
    8000139e:	ec2a                	sd	a0,24(sp)
    800013a0:	f02e                	sd	a1,32(sp)
    800013a2:	0828                	addi	a0,sp,24
    800013a4:	00000097          	auipc	ra,0x0
    800013a8:	348080e7          	jalr	840(ra) # 800016ec <_ZN4core5alloc6layout6Layout4size17hb2f7256542be1296E>
    800013ac:	e82a                	sd	a0,16(sp)
    800013ae:	a009                	j	800013b0 <_ZN5alloc5alloc5alloc17h2289557e92509a52E+0x16>
    800013b0:	0828                	addi	a0,sp,24
    800013b2:	00000097          	auipc	ra,0x0
    800013b6:	344080e7          	jalr	836(ra) # 800016f6 <_ZN4core5alloc6layout6Layout5align17hfc36e7d25066938dE>
    800013ba:	e42a                	sd	a0,8(sp)
    800013bc:	a009                	j	800013be <_ZN5alloc5alloc5alloc17h2289557e92509a52E+0x24>
    800013be:	65a2                	ld	a1,8(sp)
    800013c0:	6542                	ld	a0,16(sp)
    800013c2:	0000a097          	auipc	ra,0xa
    800013c6:	8f4080e7          	jalr	-1804(ra) # 8000acb6 <__rust_alloc>
    800013ca:	e02a                	sd	a0,0(sp)
    800013cc:	a009                	j	800013ce <_ZN5alloc5alloc5alloc17h2289557e92509a52E+0x34>
    800013ce:	6502                	ld	a0,0(sp)
    800013d0:	70a2                	ld	ra,40(sp)
    800013d2:	6145                	addi	sp,sp,48
    800013d4:	8082                	ret

00000000800013d6 <_ZN5alloc5alloc6Global10alloc_impl17h14a88ddf0ac1fb80E>:
    800013d6:	7171                	addi	sp,sp,-176
    800013d8:	f506                	sd	ra,168(sp)
    800013da:	8736                	mv	a4,a3
    800013dc:	fc3a                	sd	a4,56(sp)
    800013de:	e4ae                	sd	a1,72(sp)
    800013e0:	e8b2                	sd	a2,80(sp)
    800013e2:	fcaa                	sd	a0,120(sp)
    800013e4:	08d103a3          	sb	a3,135(sp)
    800013e8:	00a8                	addi	a0,sp,72
    800013ea:	00000097          	auipc	ra,0x0
    800013ee:	302080e7          	jalr	770(ra) # 800016ec <_ZN4core5alloc6layout6Layout4size17hb2f7256542be1296E>
    800013f2:	e0aa                	sd	a0,64(sp)
    800013f4:	a009                	j	800013f6 <_ZN5alloc5alloc6Global10alloc_impl17h14a88ddf0ac1fb80E+0x20>
    800013f6:	6506                	ld	a0,64(sp)
    800013f8:	4581                	li	a1,0
    800013fa:	00b51a63          	bne	a0,a1,8000140e <_ZN5alloc5alloc6Global10alloc_impl17h14a88ddf0ac1fb80E+0x38>
    800013fe:	a009                	j	80001400 <_ZN5alloc5alloc6Global10alloc_impl17h14a88ddf0ac1fb80E+0x2a>
    80001400:	00a8                	addi	a0,sp,72
    80001402:	00000097          	auipc	ra,0x0
    80001406:	31e080e7          	jalr	798(ra) # 80001720 <_ZN4core5alloc6layout6Layout8dangling17hef73a27e8c409133E>
    8000140a:	f82a                	sd	a0,48(sp)
    8000140c:	a855                	j	800014c0 <.LBB3_22+0x2e>
    8000140e:	7562                	ld	a0,56(sp)
    80001410:	6586                	ld	a1,64(sp)
    80001412:	e92e                	sd	a1,144(sp)
    80001414:	4581                	li	a1,0
    80001416:	00b51b63          	bne	a0,a1,8000142c <_ZN5alloc5alloc6Global10alloc_impl17h14a88ddf0ac1fb80E+0x56>
    8000141a:	a009                	j	8000141c <_ZN5alloc5alloc6Global10alloc_impl17h14a88ddf0ac1fb80E+0x46>
    8000141c:	6526                	ld	a0,72(sp)
    8000141e:	65c6                	ld	a1,80(sp)
    80001420:	00000097          	auipc	ra,0x0
    80001424:	f7a080e7          	jalr	-134(ra) # 8000139a <_ZN5alloc5alloc5alloc17h2289557e92509a52E>
    80001428:	f4aa                	sd	a0,104(sp)
    8000142a:	a00d                	j	8000144c <_ZN5alloc5alloc6Global10alloc_impl17h14a88ddf0ac1fb80E+0x76>
    8000142c:	6526                	ld	a0,72(sp)
    8000142e:	65c6                	ld	a1,80(sp)
    80001430:	00000097          	auipc	ra,0x0
    80001434:	eba080e7          	jalr	-326(ra) # 800012ea <_ZN5alloc5alloc12alloc_zeroed17h69c69936b040c519E>
    80001438:	f4aa                	sd	a0,104(sp)
    8000143a:	a009                	j	8000143c <_ZN5alloc5alloc6Global10alloc_impl17h14a88ddf0ac1fb80E+0x66>
    8000143c:	a009                	j	8000143e <_ZN5alloc5alloc6Global10alloc_impl17h14a88ddf0ac1fb80E+0x68>
    8000143e:	7526                	ld	a0,104(sp)
    80001440:	0000a097          	auipc	ra,0xa
    80001444:	e8a080e7          	jalr	-374(ra) # 8000b2ca <_ZN4core3ptr8non_null16NonNull$LT$T$GT$3new17hf5f6203ce6eb1ac7E>
    80001448:	f42a                	sd	a0,40(sp)
    8000144a:	a011                	j	8000144e <_ZN5alloc5alloc6Global10alloc_impl17h14a88ddf0ac1fb80E+0x78>
    8000144c:	bfcd                	j	8000143e <_ZN5alloc5alloc6Global10alloc_impl17h14a88ddf0ac1fb80E+0x68>
    8000144e:	7522                	ld	a0,40(sp)
    80001450:	0000a097          	auipc	ra,0xa
    80001454:	fd8080e7          	jalr	-40(ra) # 8000b428 <_ZN4core6option15Option$LT$T$GT$5ok_or17hf44d7cb03aa36bb9E>
    80001458:	f02a                	sd	a0,32(sp)
    8000145a:	a009                	j	8000145c <_ZN5alloc5alloc6Global10alloc_impl17h14a88ddf0ac1fb80E+0x86>
    8000145c:	7502                	ld	a0,32(sp)
    8000145e:	0000a097          	auipc	ra,0xa
    80001462:	224080e7          	jalr	548(ra) # 8000b682 <_ZN79_$LT$core..result..Result$LT$T$C$E$GT$$u20$as$u20$core..ops..try_trait..Try$GT$6branch17h0d27ff99a68defffE>
    80001466:	f8aa                	sd	a0,112(sp)
    80001468:	a009                	j	8000146a <_ZN5alloc5alloc6Global10alloc_impl17h14a88ddf0ac1fb80E+0x94>
    8000146a:	7546                	ld	a0,112(sp)
    8000146c:	00153593          	seqz	a1,a0
    80001470:	4581                	li	a1,0
    80001472:	00b51563          	bne	a0,a1,8000147c <_ZN5alloc5alloc6Global10alloc_impl17h14a88ddf0ac1fb80E+0xa6>
    80001476:	a009                	j	80001478 <_ZN5alloc5alloc6Global10alloc_impl17h14a88ddf0ac1fb80E+0xa2>
    80001478:	a829                	j	80001492 <.LBB3_22>
    8000147a:	0000                	unimp
    8000147c:	6586                	ld	a1,64(sp)
    8000147e:	7546                	ld	a0,112(sp)
    80001480:	ed2a                	sd	a0,152(sp)
    80001482:	f12a                	sd	a0,160(sp)
    80001484:	0000a097          	auipc	ra,0xa
    80001488:	e98080e7          	jalr	-360(ra) # 8000b31c <_ZN4core3ptr8non_null26NonNull$LT$$u5b$T$u5d$$GT$20slice_from_raw_parts17h13f8d14f446eeeb7E>
    8000148c:	e82a                	sd	a0,16(sp)
    8000148e:	ec2e                	sd	a1,24(sp)
    80001490:	a015                	j	800014b4 <.LBB3_22+0x22>

0000000080001492 <.LBB3_22>:
    80001492:	0000c517          	auipc	a0,0xc
    80001496:	d4e50513          	addi	a0,a0,-690 # 8000d1e0 <.L__unnamed_2>
    8000149a:	0000a097          	auipc	ra,0xa
    8000149e:	1ce080e7          	jalr	462(ra) # 8000b668 <_ZN153_$LT$core..result..Result$LT$T$C$F$GT$$u20$as$u20$core..ops..try_trait..FromResidual$LT$core..result..Result$LT$core..convert..Infallible$C$E$GT$$GT$$GT$13from_residual17ha71a793ba9c15a63E>
    800014a2:	ecaa                	sd	a0,88(sp)
    800014a4:	f0ae                	sd	a1,96(sp)
    800014a6:	a009                	j	800014a8 <.LBB3_22+0x16>
    800014a8:	a009                	j	800014aa <.LBB3_22+0x18>
    800014aa:	6566                	ld	a0,88(sp)
    800014ac:	7586                	ld	a1,96(sp)
    800014ae:	70aa                	ld	ra,168(sp)
    800014b0:	614d                	addi	sp,sp,176
    800014b2:	8082                	ret
    800014b4:	6562                	ld	a0,24(sp)
    800014b6:	65c2                	ld	a1,16(sp)
    800014b8:	ecae                	sd	a1,88(sp)
    800014ba:	f0aa                	sd	a0,96(sp)
    800014bc:	a009                	j	800014be <.LBB3_22+0x2c>
    800014be:	b7f5                	j	800014aa <.LBB3_22+0x18>
    800014c0:	7542                	ld	a0,48(sp)
    800014c2:	4581                	li	a1,0
    800014c4:	0000a097          	auipc	ra,0xa
    800014c8:	e58080e7          	jalr	-424(ra) # 8000b31c <_ZN4core3ptr8non_null26NonNull$LT$$u5b$T$u5d$$GT$20slice_from_raw_parts17h13f8d14f446eeeb7E>
    800014cc:	e02a                	sd	a0,0(sp)
    800014ce:	e42e                	sd	a1,8(sp)
    800014d0:	a009                	j	800014d2 <.LBB3_22+0x40>
    800014d2:	6522                	ld	a0,8(sp)
    800014d4:	6582                	ld	a1,0(sp)
    800014d6:	ecae                	sd	a1,88(sp)
    800014d8:	f0aa                	sd	a0,96(sp)
    800014da:	b7d5                	j	800014be <.LBB3_22+0x2c>

00000000800014dc <_ZN5alloc5alloc7dealloc17hbdd79dc4dd9a60ffE>:
    800014dc:	7139                	addi	sp,sp,-64
    800014de:	fc06                	sd	ra,56(sp)
    800014e0:	e82a                	sd	a0,16(sp)
    800014e2:	f02e                	sd	a1,32(sp)
    800014e4:	f432                	sd	a2,40(sp)
    800014e6:	f82a                	sd	a0,48(sp)
    800014e8:	1008                	addi	a0,sp,32
    800014ea:	00000097          	auipc	ra,0x0
    800014ee:	202080e7          	jalr	514(ra) # 800016ec <_ZN4core5alloc6layout6Layout4size17hb2f7256542be1296E>
    800014f2:	ec2a                	sd	a0,24(sp)
    800014f4:	a009                	j	800014f6 <_ZN5alloc5alloc7dealloc17hbdd79dc4dd9a60ffE+0x1a>
    800014f6:	1008                	addi	a0,sp,32
    800014f8:	00000097          	auipc	ra,0x0
    800014fc:	1fe080e7          	jalr	510(ra) # 800016f6 <_ZN4core5alloc6layout6Layout5align17hfc36e7d25066938dE>
    80001500:	e42a                	sd	a0,8(sp)
    80001502:	a009                	j	80001504 <_ZN5alloc5alloc7dealloc17hbdd79dc4dd9a60ffE+0x28>
    80001504:	6622                	ld	a2,8(sp)
    80001506:	65e2                	ld	a1,24(sp)
    80001508:	6542                	ld	a0,16(sp)
    8000150a:	00009097          	auipc	ra,0x9
    8000150e:	7b4080e7          	jalr	1972(ra) # 8000acbe <__rust_dealloc>
    80001512:	a009                	j	80001514 <_ZN5alloc5alloc7dealloc17hbdd79dc4dd9a60ffE+0x38>
    80001514:	70e2                	ld	ra,56(sp)
    80001516:	6121                	addi	sp,sp,64
    80001518:	8082                	ret

000000008000151a <_ZN63_$LT$alloc..alloc..Global$u20$as$u20$core..alloc..Allocator$GT$10deallocate17ha2a6fff77b1d0b59E>:
    8000151a:	7139                	addi	sp,sp,-64
    8000151c:	fc06                	sd	ra,56(sp)
    8000151e:	e42e                	sd	a1,8(sp)
    80001520:	ec32                	sd	a2,24(sp)
    80001522:	f036                	sd	a3,32(sp)
    80001524:	f42a                	sd	a0,40(sp)
    80001526:	f82e                	sd	a1,48(sp)
    80001528:	0828                	addi	a0,sp,24
    8000152a:	00000097          	auipc	ra,0x0
    8000152e:	1c2080e7          	jalr	450(ra) # 800016ec <_ZN4core5alloc6layout6Layout4size17hb2f7256542be1296E>
    80001532:	e82a                	sd	a0,16(sp)
    80001534:	a009                	j	80001536 <_ZN63_$LT$alloc..alloc..Global$u20$as$u20$core..alloc..Allocator$GT$10deallocate17ha2a6fff77b1d0b59E+0x1c>
    80001536:	6542                	ld	a0,16(sp)
    80001538:	4581                	li	a1,0
    8000153a:	00b51463          	bne	a0,a1,80001542 <_ZN63_$LT$alloc..alloc..Global$u20$as$u20$core..alloc..Allocator$GT$10deallocate17ha2a6fff77b1d0b59E+0x28>
    8000153e:	a009                	j	80001540 <_ZN63_$LT$alloc..alloc..Global$u20$as$u20$core..alloc..Allocator$GT$10deallocate17ha2a6fff77b1d0b59E+0x26>
    80001540:	a00d                	j	80001562 <_ZN63_$LT$alloc..alloc..Global$u20$as$u20$core..alloc..Allocator$GT$10deallocate17ha2a6fff77b1d0b59E+0x48>
    80001542:	6522                	ld	a0,8(sp)
    80001544:	0000a097          	auipc	ra,0xa
    80001548:	dc6080e7          	jalr	-570(ra) # 8000b30a <_ZN4core3ptr8non_null16NonNull$LT$T$GT$6as_ptr17h1b65225553c65292E>
    8000154c:	e02a                	sd	a0,0(sp)
    8000154e:	a009                	j	80001550 <_ZN63_$LT$alloc..alloc..Global$u20$as$u20$core..alloc..Allocator$GT$10deallocate17ha2a6fff77b1d0b59E+0x36>
    80001550:	6502                	ld	a0,0(sp)
    80001552:	65e2                	ld	a1,24(sp)
    80001554:	7602                	ld	a2,32(sp)
    80001556:	00000097          	auipc	ra,0x0
    8000155a:	f86080e7          	jalr	-122(ra) # 800014dc <_ZN5alloc5alloc7dealloc17hbdd79dc4dd9a60ffE>
    8000155e:	a009                	j	80001560 <_ZN63_$LT$alloc..alloc..Global$u20$as$u20$core..alloc..Allocator$GT$10deallocate17ha2a6fff77b1d0b59E+0x46>
    80001560:	a009                	j	80001562 <_ZN63_$LT$alloc..alloc..Global$u20$as$u20$core..alloc..Allocator$GT$10deallocate17ha2a6fff77b1d0b59E+0x48>
    80001562:	70e2                	ld	ra,56(sp)
    80001564:	6121                	addi	sp,sp,64
    80001566:	8082                	ret

0000000080001568 <_ZN63_$LT$alloc..alloc..Global$u20$as$u20$core..alloc..Allocator$GT$15allocate_zeroed17hc7f3ee4f3a08416fE>:
    80001568:	7179                	addi	sp,sp,-48
    8000156a:	f406                	sd	ra,40(sp)
    8000156c:	e82a                	sd	a0,16(sp)
    8000156e:	ec2e                	sd	a1,24(sp)
    80001570:	f032                	sd	a2,32(sp)
    80001572:	4685                	li	a3,1
    80001574:	00000097          	auipc	ra,0x0
    80001578:	e62080e7          	jalr	-414(ra) # 800013d6 <_ZN5alloc5alloc6Global10alloc_impl17h14a88ddf0ac1fb80E>
    8000157c:	e02a                	sd	a0,0(sp)
    8000157e:	e42e                	sd	a1,8(sp)
    80001580:	a009                	j	80001582 <_ZN63_$LT$alloc..alloc..Global$u20$as$u20$core..alloc..Allocator$GT$15allocate_zeroed17hc7f3ee4f3a08416fE+0x1a>
    80001582:	65a2                	ld	a1,8(sp)
    80001584:	6502                	ld	a0,0(sp)
    80001586:	70a2                	ld	ra,40(sp)
    80001588:	6145                	addi	sp,sp,48
    8000158a:	8082                	ret

000000008000158c <_ZN63_$LT$alloc..alloc..Global$u20$as$u20$core..alloc..Allocator$GT$8allocate17hf962a68b61460cceE>:
    8000158c:	7179                	addi	sp,sp,-48
    8000158e:	f406                	sd	ra,40(sp)
    80001590:	e82a                	sd	a0,16(sp)
    80001592:	ec2e                	sd	a1,24(sp)
    80001594:	f032                	sd	a2,32(sp)
    80001596:	4681                	li	a3,0
    80001598:	00000097          	auipc	ra,0x0
    8000159c:	e3e080e7          	jalr	-450(ra) # 800013d6 <_ZN5alloc5alloc6Global10alloc_impl17h14a88ddf0ac1fb80E>
    800015a0:	e02a                	sd	a0,0(sp)
    800015a2:	e42e                	sd	a1,8(sp)
    800015a4:	a009                	j	800015a6 <_ZN63_$LT$alloc..alloc..Global$u20$as$u20$core..alloc..Allocator$GT$8allocate17hf962a68b61460cceE+0x1a>
    800015a6:	65a2                	ld	a1,8(sp)
    800015a8:	6502                	ld	a0,0(sp)
    800015aa:	70a2                	ld	ra,40(sp)
    800015ac:	6145                	addi	sp,sp,48
    800015ae:	8082                	ret

00000000800015b0 <_ZN4core5alloc6layout6Layout15from_size_align17h15d1364c18e65eaeE>:
    800015b0:	7159                	addi	sp,sp,-112
    800015b2:	f486                	sd	ra,104(sp)
    800015b4:	ec2e                	sd	a1,24(sp)
    800015b6:	f02a                	sd	a0,32(sp)
    800015b8:	e0aa                	sd	a0,64(sp)
    800015ba:	e4ae                	sd	a1,72(sp)
    800015bc:	e8ae                	sd	a1,80(sp)
    800015be:	ecae                	sd	a1,88(sp)
    800015c0:	0015d513          	srli	a0,a1,0x1

00000000800015c4 <.LBB0_8>:
    800015c4:	01fff617          	auipc	a2,0x1fff
    800015c8:	a3c60613          	addi	a2,a2,-1476 # 82000000 <_data>
    800015cc:	6210                	ld	a2,0(a2)
    800015ce:	8d71                	and	a0,a0,a2
    800015d0:	8d89                	sub	a1,a1,a0

00000000800015d2 <.LBB0_9>:
    800015d2:	01fff517          	auipc	a0,0x1fff
    800015d6:	a3650513          	addi	a0,a0,-1482 # 82000008 <.LCPI0_1>
    800015da:	6110                	ld	a2,0(a0)
    800015dc:	00c5f533          	and	a0,a1,a2
    800015e0:	8189                	srli	a1,a1,0x2
    800015e2:	8df1                	and	a1,a1,a2
    800015e4:	952e                	add	a0,a0,a1
    800015e6:	00455593          	srli	a1,a0,0x4
    800015ea:	952e                	add	a0,a0,a1

00000000800015ec <.LBB0_10>:
    800015ec:	01fff597          	auipc	a1,0x1fff
    800015f0:	a2458593          	addi	a1,a1,-1500 # 82000010 <.LCPI0_2>
    800015f4:	618c                	ld	a1,0(a1)
    800015f6:	8d6d                	and	a0,a0,a1

00000000800015f8 <.LBB0_11>:
    800015f8:	01fff597          	auipc	a1,0x1fff
    800015fc:	a2058593          	addi	a1,a1,-1504 # 82000018 <.LCPI0_3>
    80001600:	618c                	ld	a1,0(a1)
    80001602:	02b50533          	mul	a0,a0,a1
    80001606:	9161                	srli	a0,a0,0x38
    80001608:	f0aa                	sd	a0,96(sp)
    8000160a:	157d                	addi	a0,a0,-1
    8000160c:	00153513          	seqz	a0,a0
    80001610:	f42a                	sd	a0,40(sp)
    80001612:	a009                	j	80001614 <.LBB0_11+0x1c>
    80001614:	7522                	ld	a0,40(sp)
    80001616:	4581                	li	a1,0
    80001618:	00b50a63          	beq	a0,a1,8000162c <.LBB0_11+0x34>
    8000161c:	a009                	j	8000161e <.LBB0_11+0x26>
    8000161e:	7582                	ld	a1,32(sp)
    80001620:	6662                	ld	a2,24(sp)
    80001622:	4501                	li	a0,0
    80001624:	8d11                	sub	a0,a0,a2
    80001626:	02b56463          	bltu	a0,a1,8000164e <.LBB0_11+0x56>
    8000162a:	a809                	j	8000163c <.LBB0_11+0x44>
    8000162c:	4501                	li	a0,0
    8000162e:	fc2a                	sd	a0,56(sp)
#![no_std]
    80001630:	a009                	j	80001632 <.LBB0_11+0x3a>
    80001632:	7542                	ld	a0,48(sp)
    80001634:	75e2                	ld	a1,56(sp)
    80001636:	70a6                	ld	ra,104(sp)
    80001638:	6165                	addi	sp,sp,112
    8000163a:	8082                	ret
    8000163c:	65e2                	ld	a1,24(sp)
    8000163e:	7502                	ld	a0,32(sp)
    80001640:	00000097          	auipc	ra,0x0
    80001644:	082080e7          	jalr	130(ra) # 800016c2 <_ZN4core5alloc6layout6Layout25from_size_align_unchecked17h2d3c70d52e73f558E>
    80001648:	e42a                	sd	a0,8(sp)
    8000164a:	e82e                	sd	a1,16(sp)
    8000164c:	a021                	j	80001654 <.LBB0_11+0x5c>
    8000164e:	4501                	li	a0,0
    80001650:	fc2a                	sd	a0,56(sp)
    80001652:	b7c5                	j	80001632 <.LBB0_11+0x3a>
    80001654:	6542                	ld	a0,16(sp)
    80001656:	65a2                	ld	a1,8(sp)
    80001658:	f82e                	sd	a1,48(sp)
    8000165a:	fc2a                	sd	a0,56(sp)
    8000165c:	bfd9                	j	80001632 <.LBB0_11+0x3a>

000000008000165e <_ZN4core5alloc6layout6Layout18padding_needed_for17h29febd59f3d35419E>:
    8000165e:	7135                	addi	sp,sp,-160
    80001660:	ed06                	sd	ra,152(sp)
    80001662:	f42e                	sd	a1,40(sp)
    80001664:	fc2a                	sd	a0,56(sp)
    80001666:	e0ae                	sd	a1,64(sp)
    80001668:	00000097          	auipc	ra,0x0
    8000166c:	084080e7          	jalr	132(ra) # 800016ec <_ZN4core5alloc6layout6Layout4size17hb2f7256542be1296E>
    80001670:	85aa                	mv	a1,a0
    80001672:	f82e                	sd	a1,48(sp)
    80001674:	e4aa                	sd	a0,72(sp)
    80001676:	a009                	j	80001678 <_ZN4core5alloc6layout6Layout18padding_needed_for17h29febd59f3d35419E+0x1a>
    80001678:	7542                	ld	a0,48(sp)
    8000167a:	75a2                	ld	a1,40(sp)
    8000167c:	ecaa                	sd	a0,88(sp)
    8000167e:	f0ae                	sd	a1,96(sp)
    80001680:	952e                	add	a0,a0,a1
    80001682:	f02a                	sd	a0,32(sp)
    80001684:	a009                	j	80001686 <_ZN4core5alloc6layout6Layout18padding_needed_for17h29febd59f3d35419E+0x28>
    80001686:	7502                	ld	a0,32(sp)
    80001688:	e52a                	sd	a0,136(sp)
    8000168a:	4585                	li	a1,1
    8000168c:	e92e                	sd	a1,144(sp)
    8000168e:	157d                	addi	a0,a0,-1
    80001690:	ec2a                	sd	a0,24(sp)
    80001692:	a009                	j	80001694 <_ZN4core5alloc6layout6Layout18padding_needed_for17h29febd59f3d35419E+0x36>
    80001694:	7522                	ld	a0,40(sp)
    80001696:	fcaa                	sd	a0,120(sp)
    80001698:	4585                	li	a1,1
    8000169a:	e12e                	sd	a1,128(sp)
    8000169c:	157d                	addi	a0,a0,-1
    8000169e:	e82a                	sd	a0,16(sp)
    800016a0:	a009                	j	800016a2 <_ZN4core5alloc6layout6Layout18padding_needed_for17h29febd59f3d35419E+0x44>
    800016a2:	75c2                	ld	a1,48(sp)
    800016a4:	6562                	ld	a0,24(sp)
    800016a6:	6642                	ld	a2,16(sp)
    800016a8:	fff64613          	not	a2,a2
    800016ac:	8d71                	and	a0,a0,a2
    800016ae:	e8aa                	sd	a0,80(sp)
    800016b0:	f4aa                	sd	a0,104(sp)
    800016b2:	f8ae                	sd	a1,112(sp)
    800016b4:	8d0d                	sub	a0,a0,a1
    800016b6:	e42a                	sd	a0,8(sp)
    800016b8:	a009                	j	800016ba <_ZN4core5alloc6layout6Layout18padding_needed_for17h29febd59f3d35419E+0x5c>
    800016ba:	6522                	ld	a0,8(sp)
    800016bc:	60ea                	ld	ra,152(sp)
    800016be:	610d                	addi	sp,sp,160
    800016c0:	8082                	ret

00000000800016c2 <_ZN4core5alloc6layout6Layout25from_size_align_unchecked17h2d3c70d52e73f558E>:
    800016c2:	7139                	addi	sp,sp,-64
    800016c4:	fc06                	sd	ra,56(sp)
    800016c6:	e02e                	sd	a1,0(sp)
    800016c8:	85aa                	mv	a1,a0
    800016ca:	6502                	ld	a0,0(sp)
    800016cc:	e42e                	sd	a1,8(sp)
    800016ce:	f42e                	sd	a1,40(sp)
    800016d0:	f82a                	sd	a0,48(sp)
    800016d2:	00004097          	auipc	ra,0x4
    800016d6:	82c080e7          	jalr	-2004(ra) # 80004efe <_ZN4core3mem11valid_align10ValidAlign13new_unchecked17hd51ba323fa2e7549E>
    800016da:	e82a                	sd	a0,16(sp)
    800016dc:	a009                	j	800016de <_ZN4core5alloc6layout6Layout25from_size_align_unchecked17h2d3c70d52e73f558E+0x1c>
    800016de:	65c2                	ld	a1,16(sp)
    800016e0:	6522                	ld	a0,8(sp)
    800016e2:	ec2a                	sd	a0,24(sp)
    800016e4:	f02e                	sd	a1,32(sp)
    800016e6:	70e2                	ld	ra,56(sp)
    800016e8:	6121                	addi	sp,sp,64
    800016ea:	8082                	ret

00000000800016ec <_ZN4core5alloc6layout6Layout4size17hb2f7256542be1296E>:
    800016ec:	1141                	addi	sp,sp,-16
    800016ee:	e42a                	sd	a0,8(sp)
    800016f0:	6108                	ld	a0,0(a0)
    800016f2:	0141                	addi	sp,sp,16
    800016f4:	8082                	ret

00000000800016f6 <_ZN4core5alloc6layout6Layout5align17hfc36e7d25066938dE>:
    800016f6:	1101                	addi	sp,sp,-32
    800016f8:	ec06                	sd	ra,24(sp)
    800016fa:	e82a                	sd	a0,16(sp)
    800016fc:	6508                	ld	a0,8(a0)
    800016fe:	00003097          	auipc	ra,0x3
    80001702:	7e6080e7          	jalr	2022(ra) # 80004ee4 <_ZN4core3mem11valid_align10ValidAlign10as_nonzero17hed97bcf9231808e9E>
    80001706:	e42a                	sd	a0,8(sp)
    80001708:	a009                	j	8000170a <_ZN4core5alloc6layout6Layout5align17hfc36e7d25066938dE+0x14>
    8000170a:	6522                	ld	a0,8(sp)
    8000170c:	00000097          	auipc	ra,0x0
    80001710:	bd6080e7          	jalr	-1066(ra) # 800012e2 <_ZN4core3num7nonzero12NonZeroUsize3get17haec750753a464d33E>
    80001714:	e02a                	sd	a0,0(sp)
    80001716:	a009                	j	80001718 <_ZN4core5alloc6layout6Layout5align17hfc36e7d25066938dE+0x22>
    80001718:	6502                	ld	a0,0(sp)
    8000171a:	60e2                	ld	ra,24(sp)
    8000171c:	6105                	addi	sp,sp,32
    8000171e:	8082                	ret

0000000080001720 <_ZN4core5alloc6layout6Layout8dangling17hef73a27e8c409133E>:
    80001720:	7179                	addi	sp,sp,-48
    80001722:	f406                	sd	ra,40(sp)
    80001724:	ec2a                	sd	a0,24(sp)
    80001726:	00000097          	auipc	ra,0x0
    8000172a:	fd0080e7          	jalr	-48(ra) # 800016f6 <_ZN4core5alloc6layout6Layout5align17hfc36e7d25066938dE>
    8000172e:	e82a                	sd	a0,16(sp)
    80001730:	a009                	j	80001732 <_ZN4core5alloc6layout6Layout8dangling17hef73a27e8c409133E+0x12>
    80001732:	6542                	ld	a0,16(sp)
    80001734:	f02a                	sd	a0,32(sp)
    80001736:	e42a                	sd	a0,8(sp)
    80001738:	a009                	j	8000173a <_ZN4core5alloc6layout6Layout8dangling17hef73a27e8c409133E+0x1a>
    8000173a:	6522                	ld	a0,8(sp)
    8000173c:	0000a097          	auipc	ra,0xa
    80001740:	b84080e7          	jalr	-1148(ra) # 8000b2c0 <_ZN4core3ptr8non_null16NonNull$LT$T$GT$13new_unchecked17hc7cc5342eb94e042E>
    80001744:	e02a                	sd	a0,0(sp)
    80001746:	a009                	j	80001748 <_ZN4core5alloc6layout6Layout8dangling17hef73a27e8c409133E+0x28>
    80001748:	6502                	ld	a0,0(sp)
    8000174a:	70a2                	ld	ra,40(sp)
    8000174c:	6145                	addi	sp,sp,48
    8000174e:	8082                	ret

0000000080001750 <_ZN89_$LT$r_freertos..kernel..tasks..tskTaskControlBlock$u20$as$u20$core..default..Default$GT$7default17hec3a18af87b4bd87E>:
    pub uxBasePriority: UBaseType,
    /// mark for ffi
    pub build_from_c: bool,
}
impl Default for tskTaskControlBlock {
    fn default() -> Self {
    80001750:	7139                	addi	sp,sp,-64
        tskTaskControlBlock {
            pxStack: 0,
            pxTopOfStack: 0,
            pcTaskName: String::new(),
    80001752:	fc06                	sd	ra,56(sp)
    80001754:	ec2a                	sd	a0,24(sp)
    80001756:	1008                	addi	a0,sp,32
    80001758:	00005097          	auipc	ra,0x5
    8000175c:	9b2080e7          	jalr	-1614(ra) # 8000610a <_ZN5alloc6string6String3new17hb0d699f87e8c72d7E>
    80001760:	a009                	j	80001762 <_ZN89_$LT$r_freertos..kernel..tasks..tskTaskControlBlock$u20$as$u20$core..default..Default$GT$7default17hec3a18af87b4bd87E+0x12>
            xStateListItem: Default::default(),
    80001762:	00003097          	auipc	ra,0x3
    80001766:	82a080e7          	jalr	-2006(ra) # 80003f8c <_ZN68_$LT$alloc..sync..Arc$LT$T$GT$$u20$as$u20$core..default..Default$GT$7default17h7d8e97b4c4b4050aE>
    8000176a:	e82a                	sd	a0,16(sp)
    8000176c:	a009                	j	8000176e <_ZN89_$LT$r_freertos..kernel..tasks..tskTaskControlBlock$u20$as$u20$core..default..Default$GT$7default17hec3a18af87b4bd87E+0x1e>
            xEventListItem: Default::default(),
    8000176e:	00003097          	auipc	ra,0x3
    80001772:	81e080e7          	jalr	-2018(ra) # 80003f8c <_ZN68_$LT$alloc..sync..Arc$LT$T$GT$$u20$as$u20$core..default..Default$GT$7default17h7d8e97b4c4b4050aE>
    80001776:	e42a                	sd	a0,8(sp)
    80001778:	a009                	j	8000177a <_ZN89_$LT$r_freertos..kernel..tasks..tskTaskControlBlock$u20$as$u20$core..default..Default$GT$7default17hec3a18af87b4bd87E+0x2a>
    8000177a:	65e2                	ld	a1,24(sp)
    8000177c:	6622                	ld	a2,8(sp)
    8000177e:	66c2                	ld	a3,16(sp)
    80001780:	4501                	li	a0,0
        tskTaskControlBlock {
    80001782:	e188                	sd	a0,0(a1)
    80001784:	e588                	sd	a0,8(a1)
    80001786:	7702                	ld	a4,32(sp)
    80001788:	e998                	sd	a4,16(a1)
    8000178a:	7722                	ld	a4,40(sp)
    8000178c:	ed98                	sd	a4,24(a1)
    8000178e:	7742                	ld	a4,48(sp)
    80001790:	f198                	sd	a4,32(a1)
    80001792:	f594                	sd	a3,40(a1)
    80001794:	f990                	sd	a2,48(a1)
    80001796:	fd88                	sd	a0,56(a1)
    80001798:	e1a8                	sd	a0,64(a1)
    8000179a:	e5a8                	sd	a0,72(a1)
    8000179c:	e9a8                	sd	a0,80(a1)
    8000179e:	04a58c23          	sb	a0,88(a1)
            uxPriority: 0,
            uxBasePriority: 0,
            uxMutexesHeld: 0,
            build_from_c: false,
        }
    }
    800017a2:	70e2                	ld	ra,56(sp)
    800017a4:	6121                	addi	sp,sp,64
    800017a6:	8082                	ret

00000000800017a8 <_ZN10r_freertos6kernel5tasks15TCB_set_pxStack17he00c62835e1d5d21E>:
}

/// set pxStack of target tcb
pub fn TCB_set_pxStack(tcb: &TCB_t_link, item: StackType_t_link) {
    800017a8:	7139                	addi	sp,sp,-64
    800017aa:	fc06                	sd	ra,56(sp)
    800017ac:	e42e                	sd	a1,8(sp)
    800017ae:	f42a                	sd	a0,40(sp)
    800017b0:	f82e                	sd	a1,48(sp)
    //TODO: item owner
    tcb.write().pxStack = item;
    800017b2:	00003097          	auipc	ra,0x3
    800017b6:	842080e7          	jalr	-1982(ra) # 80003ff4 <_ZN69_$LT$alloc..sync..Arc$LT$T$GT$$u20$as$u20$core..ops..deref..Deref$GT$5deref17h5cd65089f56f330bE>
    800017ba:	e82a                	sd	a0,16(sp)
    800017bc:	a009                	j	800017be <_ZN10r_freertos6kernel5tasks15TCB_set_pxStack17he00c62835e1d5d21E+0x16>
    800017be:	6542                	ld	a0,16(sp)
    800017c0:	00009097          	auipc	ra,0x9
    800017c4:	0c4080e7          	jalr	196(ra) # 8000a884 <_ZN4spin7rw_lock15RwLock$LT$T$GT$5write17h40aa27e15096be3cE>
    800017c8:	ec2a                	sd	a0,24(sp)
    800017ca:	f02e                	sd	a1,32(sp)
    800017cc:	a009                	j	800017ce <_ZN10r_freertos6kernel5tasks15TCB_set_pxStack17he00c62835e1d5d21E+0x26>
    800017ce:	0828                	addi	a0,sp,24
    800017d0:	00009097          	auipc	ra,0x9
    800017d4:	456080e7          	jalr	1110(ra) # 8000ac26 <_ZN87_$LT$spin..rw_lock..RwLockWriteGuard$LT$T$GT$$u20$as$u20$core..ops..deref..DerefMut$GT$9deref_mut17h4025cb1e60118155E>
    800017d8:	e02a                	sd	a0,0(sp)
    800017da:	a009                	j	800017dc <_ZN10r_freertos6kernel5tasks15TCB_set_pxStack17he00c62835e1d5d21E+0x34>
    800017dc:	6522                	ld	a0,8(sp)
    800017de:	6582                	ld	a1,0(sp)
    800017e0:	e588                	sd	a0,8(a1)
    800017e2:	0828                	addi	a0,sp,24
    800017e4:	00005097          	auipc	ra,0x5
    800017e8:	710080e7          	jalr	1808(ra) # 80006ef4 <_ZN4core3ptr106drop_in_place$LT$spin..rw_lock..RwLockWriteGuard$LT$r_freertos..kernel..tasks..tskTaskControlBlock$GT$$GT$17hd69fd8d3e331a0beE>
    800017ec:	a009                	j	800017ee <_ZN10r_freertos6kernel5tasks15TCB_set_pxStack17he00c62835e1d5d21E+0x46>
}
    800017ee:	70e2                	ld	ra,56(sp)
    800017f0:	6121                	addi	sp,sp,64
    800017f2:	8082                	ret

00000000800017f4 <_ZN10r_freertos6kernel5tasks17xTaskCreateStatic17h417a55cb88ec9118E>:

/// Create tasks static
///
///
#[cfg(feature = "configSUPPORT_STATIC_ALLOCATION")]
pub fn xTaskCreateStatic(
    800017f4:	db010113          	addi	sp,sp,-592
    800017f8:	24113423          	sd	ra,584(sp)
    800017fc:	f0be                	sd	a5,96(sp)
    800017fe:	f4ba                	sd	a4,104(sp)
    80001800:	f8b2                	sd	a2,112(sp)
    80001802:	fcae                	sd	a1,120(sp)
    80001804:	e12a                	sd	a0,128(sp)
    80001806:	25813283          	ld	t0,600(sp)
    8000180a:	e516                	sd	t0,136(sp)
    8000180c:	25013283          	ld	t0,592(sp)
    80001810:	82b6                	mv	t0,a3
    80001812:	e916                	sd	t0,144(sp)
    80001814:	ed42                	sd	a6,152(sp)
    80001816:	f146                	sd	a7,160(sp)
    80001818:	20a13c23          	sd	a0,536(sp)
    8000181c:	22b13023          	sd	a1,544(sp)
    80001820:	22c13423          	sd	a2,552(sp)
    80001824:	22d12a23          	sw	a3,564(sp)
    80001828:	22e13c23          	sd	a4,568(sp)
    8000182c:	24f13023          	sd	a5,576(sp)

0000000080001830 <.LBB2_33>:
    pvParameters: Option<Param_link>,
    puxStackBuffer: Option<StackType_t_link>,
    pxTaskBuffer: Option<TCB_t_link>,
    uxPriority: UBaseType,
) -> Option<TaskHandle_t> {
    print("xTaskCreateStatic 1111");
    80001830:	0000c517          	auipc	a0,0xc
    80001834:	9c850513          	addi	a0,a0,-1592 # 8000d1f8 <.L__unnamed_1>
    80001838:	45d9                	li	a1,22
    8000183a:	00003097          	auipc	ra,0x3
    8000183e:	6d4080e7          	jalr	1748(ra) # 80004f0e <_ZN10r_freertos6kernel10riscv_virt5print17hf8c77654b83d2d4eE>
    80001842:	a009                	j	80001844 <.LBB2_33+0x14>
    80001844:	0928                	addi	a0,sp,152
    assert!(puxStackBuffer.is_some());
    80001846:	fffff097          	auipc	ra,0xfffff
    8000184a:	4f6080e7          	jalr	1270(ra) # 80000d3c <_ZN4core6option15Option$LT$T$GT$7is_some17h34e82eb89466bf5eE>
    8000184e:	ecaa                	sd	a0,88(sp)
    80001850:	a009                	j	80001852 <.LBB2_33+0x22>
    80001852:	6566                	ld	a0,88(sp)
    80001854:	4581                	li	a1,0
    80001856:	00b50a63          	beq	a0,a1,8000186a <.LBB2_34>
    8000185a:	a009                	j	8000185c <.LBB2_33+0x2c>
    8000185c:	0c88                	addi	a0,sp,592
    assert!(pxTaskBuffer.is_some());
    8000185e:	fffff097          	auipc	ra,0xfffff
    80001862:	504080e7          	jalr	1284(ra) # 80000d62 <_ZN4core6option15Option$LT$T$GT$7is_some17h7defdf38e7fbd878E>
    80001866:	e8aa                	sd	a0,80(sp)
    80001868:	a005                	j	80001888 <.LBB2_35+0x16>

000000008000186a <.LBB2_34>:
    assert!(puxStackBuffer.is_some());
    8000186a:	0000c517          	auipc	a0,0xc
    8000186e:	9a450513          	addi	a0,a0,-1628 # 8000d20e <.L__unnamed_2>

0000000080001872 <.LBB2_35>:
    80001872:	0000c617          	auipc	a2,0xc
    80001876:	9de60613          	addi	a2,a2,-1570 # 8000d250 <.L__unnamed_3>
    8000187a:	02a00593          	li	a1,42
    8000187e:	fffff097          	auipc	ra,0xfffff
    80001882:	898080e7          	jalr	-1896(ra) # 80000116 <_ZN4core9panicking5panic17h7cbb7101b8ec6f33E>
    80001886:	0000                	unimp
    80001888:	6546                	ld	a0,80(sp)
    8000188a:	4581                	li	a1,0
    assert!(pxTaskBuffer.is_some());
    8000188c:	00b50963          	beq	a0,a1,8000189e <.LBB2_36>
    80001890:	a009                	j	80001892 <.LBB2_35+0x20>
    80001892:	1208                	addi	a0,sp,288
    //         configASSERT( xSize == sizeof( TCB_t ) );
    //         ( void ) xSize; /* Prevent lint warning when configASSERT() is not used. */
    //     }
    // #endif /* configASSERT_DEFINED */
    //TODO: fix xReturn
    let xReturn = Arc::new(RwLock::new(tskTaskControlBlock::default()));
    80001894:	00000097          	auipc	ra,0x0
    80001898:	ebc080e7          	jalr	-324(ra) # 80001750 <_ZN89_$LT$r_freertos..kernel..tasks..tskTaskControlBlock$u20$as$u20$core..default..Default$GT$7default17hec3a18af87b4bd87E>
    8000189c:	a005                	j	800018bc <.LBB2_37+0x16>

000000008000189e <.LBB2_36>:
    assert!(pxTaskBuffer.is_some());
    8000189e:	0000c517          	auipc	a0,0xc
    800018a2:	9ca50513          	addi	a0,a0,-1590 # 8000d268 <.L__unnamed_4>

00000000800018a6 <.LBB2_37>:
    800018a6:	0000c617          	auipc	a2,0xc
    800018aa:	9ea60613          	addi	a2,a2,-1558 # 8000d290 <.L__unnamed_5>
    800018ae:	02800593          	li	a1,40
    800018b2:	fffff097          	auipc	ra,0xfffff
    800018b6:	864080e7          	jalr	-1948(ra) # 80000116 <_ZN4core9panicking5panic17h7cbb7101b8ec6f33E>
    800018ba:	0000                	unimp
    800018bc:	1928                	addi	a0,sp,184
    800018be:	120c                	addi	a1,sp,288
    let xReturn = Arc::new(RwLock::new(tskTaskControlBlock::default()));
    800018c0:	00009097          	auipc	ra,0x9
    800018c4:	ddc080e7          	jalr	-548(ra) # 8000a69c <_ZN4spin7rw_lock15RwLock$LT$T$GT$3new17hd4b8e3c9049bf146E>
    800018c8:	a009                	j	800018ca <.LBB2_37+0x24>
    800018ca:	1928                	addi	a0,sp,184
    800018cc:	00002097          	auipc	ra,0x2
    800018d0:	b72080e7          	jalr	-1166(ra) # 8000343e <_ZN5alloc4sync12Arc$LT$T$GT$3new17hddaf39c5aff97a9bE>
    800018d4:	f92a                	sd	a0,176(sp)
    800018d6:	a009                	j	800018d8 <.LBB2_37+0x32>

    let pxNewTCB: TCB_t_link = pxTaskBuffer.unwrap().clone();
    800018d8:	25013503          	ld	a0,592(sp)

00000000800018dc <.LBB2_38>:
    800018dc:	0000c597          	auipc	a1,0xc
    800018e0:	9cc58593          	addi	a1,a1,-1588 # 8000d2a8 <.L__unnamed_6>
    800018e4:	fffff097          	auipc	ra,0xfffff
    800018e8:	3ec080e7          	jalr	1004(ra) # 80000cd0 <_ZN4core6option15Option$LT$T$GT$6unwrap17hedf3e72c2307cc75E>
    800018ec:	e72a                	sd	a0,392(sp)
    800018ee:	a009                	j	800018f0 <.LBB2_38+0x14>
    800018f0:	0328                	addi	a0,sp,392
    800018f2:	00002097          	auipc	ra,0x2
    800018f6:	4b4080e7          	jalr	1204(ra) # 80003da6 <_ZN64_$LT$alloc..sync..Arc$LT$T$GT$$u20$as$u20$core..clone..Clone$GT$5clone17hbb68cae9d40ac3d7E>
    800018fa:	e32a                	sd	a0,384(sp)
    800018fc:	a009                	j	800018fe <.LBB2_38+0x22>
    800018fe:	0328                	addi	a0,sp,392
    80001900:	00005097          	auipc	ra,0x5
    80001904:	678080e7          	jalr	1656(ra) # 80006f78 <_ZN4core3ptr120drop_in_place$LT$alloc..sync..Arc$LT$spin..rw_lock..RwLock$LT$r_freertos..kernel..tasks..tskTaskControlBlock$GT$$GT$$GT$17habf28e369a2b2125E>
    80001908:	a009                	j	8000190a <.LBB2_38+0x2e>
    TCB_set_pxStack(&pxNewTCB, puxStackBuffer.unwrap());
    8000190a:	656a                	ld	a0,152(sp)
    8000190c:	758a                	ld	a1,160(sp)

000000008000190e <.LBB2_39>:
    8000190e:	0000c617          	auipc	a2,0xc
    80001912:	9b260613          	addi	a2,a2,-1614 # 8000d2c0 <.L__unnamed_7>
    80001916:	fffff097          	auipc	ra,0xfffff
    8000191a:	31a080e7          	jalr	794(ra) # 80000c30 <_ZN4core6option15Option$LT$T$GT$6unwrap17h7643644ea0b7e610E>
    8000191e:	e4aa                	sd	a0,72(sp)
    80001920:	a009                	j	80001922 <.LBB2_39+0x14>
    80001922:	65a6                	ld	a1,72(sp)
    80001924:	0308                	addi	a0,sp,384
    80001926:	00000097          	auipc	ra,0x0
    8000192a:	e82080e7          	jalr	-382(ra) # 800017a8 <_ZN10r_freertos6kernel5tasks15TCB_set_pxStack17he00c62835e1d5d21E>
    8000192e:	a009                	j	80001930 <.LBB2_39+0x22>
    80001930:	0308                	addi	a0,sp,384
    //         /* Tasks can be created statically or dynamically, so note this
    //          * task was created statically in case the task is later deleted. */
    //         pxNewTCB->ucStaticallyAllocated = tskSTATICALLY_ALLOCATED_STACK_AND_TCB;
    //     }
    // #endif /* tskSTATIC_AND_DYNAMIC_ALLOCATION_POSSIBLE */
    let s_ = format!("top of stack{:X}", pxNewTCB.read().pxTopOfStack);
    80001932:	00002097          	auipc	ra,0x2
    80001936:	6c2080e7          	jalr	1730(ra) # 80003ff4 <_ZN69_$LT$alloc..sync..Arc$LT$T$GT$$u20$as$u20$core..ops..deref..Deref$GT$5deref17h5cd65089f56f330bE>
    8000193a:	e0aa                	sd	a0,64(sp)
    8000193c:	a009                	j	8000193e <.LBB2_39+0x30>
    8000193e:	6506                	ld	a0,64(sp)
    80001940:	00009097          	auipc	ra,0x9
    80001944:	dc4080e7          	jalr	-572(ra) # 8000a704 <_ZN4spin7rw_lock15RwLock$LT$T$GT$4read17h1bdffff5ddab3de1E>
    80001948:	20a13023          	sd	a0,512(sp)
    8000194c:	20b13423          	sd	a1,520(sp)
    80001950:	a009                	j	80001952 <.LBB2_39+0x44>
    80001952:	0408                	addi	a0,sp,512
    80001954:	00009097          	auipc	ra,0x9
    80001958:	262080e7          	jalr	610(ra) # 8000abb6 <_ZN83_$LT$spin..rw_lock..RwLockReadGuard$LT$T$GT$$u20$as$u20$core..ops..deref..Deref$GT$5deref17h62f52e707b0c90b9E>
    8000195c:	fc2a                	sd	a0,56(sp)
    8000195e:	a009                	j	80001960 <.LBB2_39+0x52>
    80001960:	7562                	ld	a0,56(sp)
    80001962:	00000097          	auipc	ra,0x0
    80001966:	8f6080e7          	jalr	-1802(ra) # 80001258 <_ZN4core3fmt10ArgumentV113new_upper_hex17h95f58828fb322d41E>
    8000196a:	f42a                	sd	a0,40(sp)
    8000196c:	f82e                	sd	a1,48(sp)
    8000196e:	a009                	j	80001970 <.LBB2_39+0x62>
    80001970:	7542                	ld	a0,48(sp)
    80001972:	75a2                	ld	a1,40(sp)
    80001974:	fbae                	sd	a1,496(sp)
    80001976:	ffaa                	sd	a0,504(sp)

0000000080001978 <.LBB2_40>:
    80001978:	0000c597          	auipc	a1,0xc
    8000197c:	97058593          	addi	a1,a1,-1680 # 8000d2e8 <.L__unnamed_8>
    80001980:	0388                	addi	a0,sp,448
    80001982:	1b94                	addi	a3,sp,496
    80001984:	4705                	li	a4,1
    80001986:	863a                	mv	a2,a4
    80001988:	fffff097          	auipc	ra,0xfffff
    8000198c:	bfc080e7          	jalr	-1028(ra) # 80000584 <_ZN4core3fmt9Arguments6new_v117hb9c4816a17cef4b5E>
    80001990:	a009                	j	80001992 <.LBB2_40+0x1a>
    80001992:	1328                	addi	a0,sp,424
    80001994:	038c                	addi	a1,sp,448
    80001996:	0000a097          	auipc	ra,0xa
    8000199a:	2ec080e7          	jalr	748(ra) # 8000bc82 <_ZN5alloc3fmt6format17h06bcb7061c429322E>
    8000199e:	a009                	j	800019a0 <.LBB2_40+0x28>
    800019a0:	0408                	addi	a0,sp,512
    800019a2:	00005097          	auipc	ra,0x5
    800019a6:	53c080e7          	jalr	1340(ra) # 80006ede <_ZN4core3ptr105drop_in_place$LT$spin..rw_lock..RwLockReadGuard$LT$r_freertos..kernel..tasks..tskTaskControlBlock$GT$$GT$17ha7250d838ab10821E>
    800019aa:	a009                	j	800019ac <.LBB2_40+0x34>
    800019ac:	757a                	ld	a0,440(sp)
    800019ae:	f32a                	sd	a0,416(sp)
    800019b0:	755a                	ld	a0,432(sp)
    800019b2:	ef2a                	sd	a0,408(sp)
    800019b4:	753a                	ld	a0,424(sp)
    800019b6:	eb2a                	sd	a0,400(sp)
    800019b8:	0b08                	addi	a0,sp,400
    print(&s_);
    800019ba:	00005097          	auipc	ra,0x5
    800019be:	81a080e7          	jalr	-2022(ra) # 800061d4 <_ZN65_$LT$alloc..string..String$u20$as$u20$core..ops..deref..Deref$GT$5deref17h4278e277ab39eb01E>
    800019c2:	ec2a                	sd	a0,24(sp)
    800019c4:	f02e                	sd	a1,32(sp)
    800019c6:	a009                	j	800019c8 <.LBB2_40+0x50>
    800019c8:	7582                	ld	a1,32(sp)
    800019ca:	6562                	ld	a0,24(sp)
    800019cc:	00003097          	auipc	ra,0x3
    800019d0:	542080e7          	jalr	1346(ra) # 80004f0e <_ZN10r_freertos6kernel10riscv_virt5print17hf8c77654b83d2d4eE>
    800019d4:	a009                	j	800019d6 <.LBB2_40+0x5e>
    800019d6:	0308                	addi	a0,sp,384
        pcName,
        ulStackDepth,
        pvParameters,
        &xReturn,
        uxPriority,
        pxNewTCB.clone(),
    800019d8:	00002097          	auipc	ra,0x2
    800019dc:	3ce080e7          	jalr	974(ra) # 80003da6 <_ZN64_$LT$alloc..sync..Arc$LT$T$GT$$u20$as$u20$core..clone..Clone$GT$5clone17hbb68cae9d40ac3d7E>
    800019e0:	e82a                	sd	a0,16(sp)
    800019e2:	a009                	j	800019e4 <.LBB2_40+0x6c>
    prvInitialiseNewTask(
    800019e4:	68aa                	ld	a7,136(sp)
    800019e6:	7786                	ld	a5,96(sp)
    800019e8:	7726                	ld	a4,104(sp)
    800019ea:	66ca                	ld	a3,144(sp)
    800019ec:	7646                	ld	a2,112(sp)
    800019ee:	75e6                	ld	a1,120(sp)
    800019f0:	650a                	ld	a0,128(sp)
    800019f2:	6842                	ld	a6,16(sp)
    800019f4:	828a                	mv	t0,sp
    800019f6:	0102b023          	sd	a6,0(t0)
    800019fa:	0b010813          	addi	a6,sp,176
    800019fe:	00000097          	auipc	ra,0x0
    80001a02:	272080e7          	jalr	626(ra) # 80001c70 <_ZN10r_freertos6kernel5tasks20prvInitialiseNewTask17he57a82ca37c3fce2E>
    80001a06:	20a13823          	sd	a0,528(sp)
    80001a0a:	a009                	j	80001a0c <.LBB2_40+0x94>
    80001a0c:	0c08                	addi	a0,sp,528
    );
    80001a0e:	00005097          	auipc	ra,0x5
    80001a12:	56a080e7          	jalr	1386(ra) # 80006f78 <_ZN4core3ptr120drop_in_place$LT$alloc..sync..Arc$LT$spin..rw_lock..RwLock$LT$r_freertos..kernel..tasks..tskTaskControlBlock$GT$$GT$$GT$17habf28e369a2b2125E>
    80001a16:	a009                	j	80001a18 <.LBB2_41>

0000000080001a18 <.LBB2_41>:
    print("xTaskCreateStatic 3333");
    80001a18:	0000c517          	auipc	a0,0xc
    80001a1c:	8e050513          	addi	a0,a0,-1824 # 8000d2f8 <.L__unnamed_9>
    80001a20:	45d9                	li	a1,22
    80001a22:	00003097          	auipc	ra,0x3
    80001a26:	4ec080e7          	jalr	1260(ra) # 80004f0e <_ZN10r_freertos6kernel10riscv_virt5print17hf8c77654b83d2d4eE>
    80001a2a:	a009                	j	80001a2c <.LBB2_41+0x14>
    80001a2c:	0308                	addi	a0,sp,384
    prvAddNewTaskToReadyList(pxNewTCB.clone());
    80001a2e:	00002097          	auipc	ra,0x2
    80001a32:	378080e7          	jalr	888(ra) # 80003da6 <_ZN64_$LT$alloc..sync..Arc$LT$T$GT$$u20$as$u20$core..clone..Clone$GT$5clone17hbb68cae9d40ac3d7E>
    80001a36:	e42a                	sd	a0,8(sp)
    80001a38:	a009                	j	80001a3a <.LBB2_41+0x22>
    80001a3a:	6522                	ld	a0,8(sp)
    80001a3c:	00000097          	auipc	ra,0x0
    80001a40:	032080e7          	jalr	50(ra) # 80001a6e <_ZN10r_freertos6kernel5tasks24prvAddNewTaskToReadyList17hb3ab8ffb8397a00dE>
    80001a44:	a009                	j	80001a46 <.LBB2_41+0x2e>

    Some(xReturn)
    80001a46:	754a                	ld	a0,176(sp)
    80001a48:	f52a                	sd	a0,168(sp)
    80001a4a:	0b08                	addi	a0,sp,400
}
    80001a4c:	00005097          	auipc	ra,0x5
    80001a50:	670080e7          	jalr	1648(ra) # 800070bc <_ZN4core3ptr42drop_in_place$LT$alloc..string..String$GT$17h0c7292bf57e9bc31E>
    80001a54:	a009                	j	80001a56 <.LBB2_41+0x3e>
    80001a56:	0308                	addi	a0,sp,384
    80001a58:	00005097          	auipc	ra,0x5
    80001a5c:	520080e7          	jalr	1312(ra) # 80006f78 <_ZN4core3ptr120drop_in_place$LT$alloc..sync..Arc$LT$spin..rw_lock..RwLock$LT$r_freertos..kernel..tasks..tskTaskControlBlock$GT$$GT$$GT$17habf28e369a2b2125E>
    80001a60:	a009                	j	80001a62 <.LBB2_41+0x4a>
    80001a62:	752a                	ld	a0,168(sp)
    80001a64:	24813083          	ld	ra,584(sp)
    80001a68:	25010113          	addi	sp,sp,592
    80001a6c:	8082                	ret

0000000080001a6e <_ZN10r_freertos6kernel5tasks24prvAddNewTaskToReadyList17hb3ab8ffb8397a00dE>:

/// add new task to ready list
pub fn prvAddNewTaskToReadyList(pxNewTCB: TCB_t_link) {
    80001a6e:	1141                	addi	sp,sp,-16
    80001a70:	e406                	sd	ra,8(sp)
    80001a72:	e02a                	sd	a0,0(sp)
    // taskENTER_CRITICAL!();
    {
        //TODO:
        prvAddTaskToReadyList(pxNewTCB);
    80001a74:	00000097          	auipc	ra,0x0
    80001a78:	010080e7          	jalr	16(ra) # 80001a84 <_ZN10r_freertos6kernel5tasks21prvAddTaskToReadyList17h519951c4c19af754E>
    80001a7c:	a009                	j	80001a7e <_ZN10r_freertos6kernel5tasks24prvAddNewTaskToReadyList17hb3ab8ffb8397a00dE+0x10>
    }
    // taskEXIT_CRITICAL!();
}
    80001a7e:	60a2                	ld	ra,8(sp)
    80001a80:	0141                	addi	sp,sp,16
    80001a82:	8082                	ret

0000000080001a84 <_ZN10r_freertos6kernel5tasks21prvAddTaskToReadyList17h519951c4c19af754E>:

/// add task to ready list
pub fn prvAddTaskToReadyList(pxNewTCB: TCB_t_link) {
    80001a84:	714d                	addi	sp,sp,-336
    80001a86:	e686                	sd	ra,328(sp)
    80001a88:	e52a                	sd	a0,136(sp)
    80001a8a:	0128                	addi	a0,sp,136
    let uxPriority = pxNewTCB.read().uxPriority;
    80001a8c:	00002097          	auipc	ra,0x2
    80001a90:	568080e7          	jalr	1384(ra) # 80003ff4 <_ZN69_$LT$alloc..sync..Arc$LT$T$GT$$u20$as$u20$core..ops..deref..Deref$GT$5deref17h5cd65089f56f330bE>
    80001a94:	e12a                	sd	a0,128(sp)
    80001a96:	a009                	j	80001a98 <_ZN10r_freertos6kernel5tasks21prvAddTaskToReadyList17h519951c4c19af754E+0x14>
    80001a98:	650a                	ld	a0,128(sp)
    80001a9a:	00009097          	auipc	ra,0x9
    80001a9e:	c6a080e7          	jalr	-918(ra) # 8000a704 <_ZN4spin7rw_lock15RwLock$LT$T$GT$4read17h1bdffff5ddab3de1E>
    80001aa2:	e92a                	sd	a0,144(sp)
    80001aa4:	ed2e                	sd	a1,152(sp)
    80001aa6:	a009                	j	80001aa8 <_ZN10r_freertos6kernel5tasks21prvAddTaskToReadyList17h519951c4c19af754E+0x24>
    80001aa8:	0908                	addi	a0,sp,144
    80001aaa:	00009097          	auipc	ra,0x9
    80001aae:	10c080e7          	jalr	268(ra) # 8000abb6 <_ZN83_$LT$spin..rw_lock..RwLockReadGuard$LT$T$GT$$u20$as$u20$core..ops..deref..Deref$GT$5deref17h62f52e707b0c90b9E>
    80001ab2:	fcaa                	sd	a0,120(sp)
    80001ab4:	a009                	j	80001ab6 <_ZN10r_freertos6kernel5tasks21prvAddTaskToReadyList17h519951c4c19af754E+0x32>
    80001ab6:	7566                	ld	a0,120(sp)
    80001ab8:	6128                	ld	a0,64(a0)
    80001aba:	f8aa                	sd	a0,112(sp)
    80001abc:	e2aa                	sd	a0,320(sp)
    80001abe:	0908                	addi	a0,sp,144
    80001ac0:	00005097          	auipc	ra,0x5
    80001ac4:	41e080e7          	jalr	1054(ra) # 80006ede <_ZN4core3ptr105drop_in_place$LT$spin..rw_lock..RwLockReadGuard$LT$r_freertos..kernel..tasks..tskTaskControlBlock$GT$$GT$17ha7250d838ab10821E>
    80001ac8:	a009                	j	80001aca <_ZN10r_freertos6kernel5tasks21prvAddTaskToReadyList17h519951c4c19af754E+0x46>
    80001aca:	0128                	addi	a0,sp,136
    let s = format!(
        "add to readylist{:X}",
        pxNewTCB.read().xStateListItem.read().x_item_value
    80001acc:	00002097          	auipc	ra,0x2
    80001ad0:	528080e7          	jalr	1320(ra) # 80003ff4 <_ZN69_$LT$alloc..sync..Arc$LT$T$GT$$u20$as$u20$core..ops..deref..Deref$GT$5deref17h5cd65089f56f330bE>
    80001ad4:	f4aa                	sd	a0,104(sp)
    80001ad6:	a009                	j	80001ad8 <_ZN10r_freertos6kernel5tasks21prvAddTaskToReadyList17h519951c4c19af754E+0x54>
    80001ad8:	7526                	ld	a0,104(sp)
    80001ada:	00009097          	auipc	ra,0x9
    80001ade:	c2a080e7          	jalr	-982(ra) # 8000a704 <_ZN4spin7rw_lock15RwLock$LT$T$GT$4read17h1bdffff5ddab3de1E>
    80001ae2:	f22a                	sd	a0,288(sp)
    80001ae4:	f62e                	sd	a1,296(sp)
    80001ae6:	a009                	j	80001ae8 <_ZN10r_freertos6kernel5tasks21prvAddTaskToReadyList17h519951c4c19af754E+0x64>
    80001ae8:	1208                	addi	a0,sp,288
    80001aea:	00009097          	auipc	ra,0x9
    80001aee:	0cc080e7          	jalr	204(ra) # 8000abb6 <_ZN83_$LT$spin..rw_lock..RwLockReadGuard$LT$T$GT$$u20$as$u20$core..ops..deref..Deref$GT$5deref17h62f52e707b0c90b9E>
    80001af2:	f0aa                	sd	a0,96(sp)
    80001af4:	a009                	j	80001af6 <_ZN10r_freertos6kernel5tasks21prvAddTaskToReadyList17h519951c4c19af754E+0x72>
    80001af6:	7506                	ld	a0,96(sp)
    80001af8:	02850513          	addi	a0,a0,40
    80001afc:	00002097          	auipc	ra,0x2
    80001b00:	4dc080e7          	jalr	1244(ra) # 80003fd8 <_ZN69_$LT$alloc..sync..Arc$LT$T$GT$$u20$as$u20$core..ops..deref..Deref$GT$5deref17h15c5434b05a39806E>
    80001b04:	ecaa                	sd	a0,88(sp)
    80001b06:	a009                	j	80001b08 <_ZN10r_freertos6kernel5tasks21prvAddTaskToReadyList17h519951c4c19af754E+0x84>
    80001b08:	6566                	ld	a0,88(sp)
    80001b0a:	00009097          	auipc	ra,0x9
    80001b0e:	c86080e7          	jalr	-890(ra) # 8000a790 <_ZN4spin7rw_lock15RwLock$LT$T$GT$4read17h8ce8adb25dc7dc38E>
    80001b12:	ea2a                	sd	a0,272(sp)
    80001b14:	ee2e                	sd	a1,280(sp)
    80001b16:	a009                	j	80001b18 <_ZN10r_freertos6kernel5tasks21prvAddTaskToReadyList17h519951c4c19af754E+0x94>
    80001b18:	0a08                	addi	a0,sp,272
    80001b1a:	00009097          	auipc	ra,0x9
    80001b1e:	080080e7          	jalr	128(ra) # 8000ab9a <_ZN83_$LT$spin..rw_lock..RwLockReadGuard$LT$T$GT$$u20$as$u20$core..ops..deref..Deref$GT$5deref17h55177cd0bfb0d56aE>
    80001b22:	e8aa                	sd	a0,80(sp)
    80001b24:	a009                	j	80001b26 <_ZN10r_freertos6kernel5tasks21prvAddTaskToReadyList17h519951c4c19af754E+0xa2>
    let s = format!(
    80001b26:	6546                	ld	a0,80(sp)
    80001b28:	fffff097          	auipc	ra,0xfffff
    80001b2c:	730080e7          	jalr	1840(ra) # 80001258 <_ZN4core3fmt10ArgumentV113new_upper_hex17h95f58828fb322d41E>
    80001b30:	e0aa                	sd	a0,64(sp)
    80001b32:	e4ae                	sd	a1,72(sp)
    80001b34:	a009                	j	80001b36 <_ZN10r_freertos6kernel5tasks21prvAddTaskToReadyList17h519951c4c19af754E+0xb2>
    80001b36:	6526                	ld	a0,72(sp)
    80001b38:	6586                	ld	a1,64(sp)
    80001b3a:	e22e                	sd	a1,256(sp)
    80001b3c:	e62a                	sd	a0,264(sp)

0000000080001b3e <.LBB4_30>:
    80001b3e:	0000c597          	auipc	a1,0xc
    80001b42:	82258593          	addi	a1,a1,-2014 # 8000d360 <.L__unnamed_10>
    80001b46:	0988                	addi	a0,sp,208
    80001b48:	0214                	addi	a3,sp,256
    80001b4a:	4705                	li	a4,1
    80001b4c:	863a                	mv	a2,a4
    80001b4e:	fffff097          	auipc	ra,0xfffff
    80001b52:	a36080e7          	jalr	-1482(ra) # 80000584 <_ZN4core3fmt9Arguments6new_v117hb9c4816a17cef4b5E>
    80001b56:	a009                	j	80001b58 <.LBB4_30+0x1a>
    80001b58:	1928                	addi	a0,sp,184
    80001b5a:	098c                	addi	a1,sp,208
    80001b5c:	0000a097          	auipc	ra,0xa
    80001b60:	126080e7          	jalr	294(ra) # 8000bc82 <_ZN5alloc3fmt6format17h06bcb7061c429322E>
    80001b64:	a009                	j	80001b66 <.LBB4_30+0x28>
    80001b66:	0a08                	addi	a0,sp,272
    80001b68:	00005097          	auipc	ra,0x5
    80001b6c:	34a080e7          	jalr	842(ra) # 80006eb2 <_ZN4core3ptr101drop_in_place$LT$spin..rw_lock..RwLockReadGuard$LT$r_freertos..kernel..linked_list..XListItem$GT$$GT$17h7a90790ac31c45a2E>
    80001b70:	a009                	j	80001b72 <.LBB4_30+0x34>
    80001b72:	1208                	addi	a0,sp,288
    80001b74:	00005097          	auipc	ra,0x5
    80001b78:	36a080e7          	jalr	874(ra) # 80006ede <_ZN4core3ptr105drop_in_place$LT$spin..rw_lock..RwLockReadGuard$LT$r_freertos..kernel..tasks..tskTaskControlBlock$GT$$GT$17ha7250d838ab10821E>
    80001b7c:	a009                	j	80001b7e <.LBB4_30+0x40>
    80001b7e:	652e                	ld	a0,200(sp)
    80001b80:	f92a                	sd	a0,176(sp)
    80001b82:	650e                	ld	a0,192(sp)
    80001b84:	f52a                	sd	a0,168(sp)
    80001b86:	756a                	ld	a0,184(sp)
    80001b88:	f12a                	sd	a0,160(sp)
    80001b8a:	1108                	addi	a0,sp,160
    );
    print(&s);
    80001b8c:	00004097          	auipc	ra,0x4
    80001b90:	648080e7          	jalr	1608(ra) # 800061d4 <_ZN65_$LT$alloc..string..String$u20$as$u20$core..ops..deref..Deref$GT$5deref17h4278e277ab39eb01E>
    80001b94:	f82a                	sd	a0,48(sp)
    80001b96:	fc2e                	sd	a1,56(sp)
    80001b98:	a009                	j	80001b9a <.LBB4_30+0x5c>
    80001b9a:	75e2                	ld	a1,56(sp)
    80001b9c:	7542                	ld	a0,48(sp)
    80001b9e:	00003097          	auipc	ra,0x3
    80001ba2:	370080e7          	jalr	880(ra) # 80004f0e <_ZN10r_freertos6kernel10riscv_virt5print17hf8c77654b83d2d4eE>
    80001ba6:	a009                	j	80001ba8 <.LBB4_30+0x6a>

    taskRECORD_READY_PRIORITY(uxPriority);
    80001ba8:	7546                	ld	a0,112(sp)
    80001baa:	00000097          	auipc	ra,0x0
    80001bae:	0be080e7          	jalr	190(ra) # 80001c68 <_ZN10r_freertos6kernel5tasks25taskRECORD_READY_PRIORITY17h12576ead84f52289E>
    80001bb2:	a009                	j	80001bb4 <.LBB4_31>

0000000080001bb4 <.LBB4_31>:
    v_list_insert_end(
        &READY_TASK_LISTS[uxPriority as usize],
    80001bb4:	0000d517          	auipc	a0,0xd
    80001bb8:	a4f50513          	addi	a0,a0,-1457 # 8000e603 <.L__unnamed_6>
    80001bbc:	00006097          	auipc	ra,0x6
    80001bc0:	016080e7          	jalr	22(ra) # 80007bd2 <_ZN88_$LT$r_freertos..kernel..kernel..READY_TASK_LISTS$u20$as$u20$core..ops..deref..Deref$GT$5deref17h9d35b6a73c1bea1cE>
    80001bc4:	f42a                	sd	a0,40(sp)
    80001bc6:	a009                	j	80001bc8 <.LBB4_31+0x14>
    80001bc8:	75c6                	ld	a1,112(sp)
    80001bca:	453d                	li	a0,15
    80001bcc:	00b56f63          	bltu	a0,a1,80001bea <.LBB4_31+0x36>
    80001bd0:	a009                	j	80001bd2 <.LBB4_31+0x1e>
    80001bd2:	7522                	ld	a0,40(sp)
    80001bd4:	75c6                	ld	a1,112(sp)
    80001bd6:	058e                	slli	a1,a1,0x3
    80001bd8:	952e                	add	a0,a0,a1
        (pxNewTCB.read().xStateListItem).clone(),
    80001bda:	ec2a                	sd	a0,24(sp)
    80001bdc:	0128                	addi	a0,sp,136
    80001bde:	00002097          	auipc	ra,0x2
    80001be2:	416080e7          	jalr	1046(ra) # 80003ff4 <_ZN69_$LT$alloc..sync..Arc$LT$T$GT$$u20$as$u20$core..ops..deref..Deref$GT$5deref17h5cd65089f56f330bE>
    80001be6:	f02a                	sd	a0,32(sp)
    80001be8:	a821                	j	80001c00 <.LBB4_32+0x14>
        &READY_TASK_LISTS[uxPriority as usize],
    80001bea:	7546                	ld	a0,112(sp)

0000000080001bec <.LBB4_32>:
    80001bec:	0000b617          	auipc	a2,0xb
    80001bf0:	78460613          	addi	a2,a2,1924 # 8000d370 <.L__unnamed_11>
    80001bf4:	45c1                	li	a1,16
    80001bf6:	ffffe097          	auipc	ra,0xffffe
    80001bfa:	54c080e7          	jalr	1356(ra) # 80000142 <_ZN4core9panicking18panic_bounds_check17h2da567a7b5b0ce7aE>
    80001bfe:	0000                	unimp
        (pxNewTCB.read().xStateListItem).clone(),
    80001c00:	7502                	ld	a0,32(sp)
    80001c02:	00009097          	auipc	ra,0x9
    80001c06:	b02080e7          	jalr	-1278(ra) # 8000a704 <_ZN4spin7rw_lock15RwLock$LT$T$GT$4read17h1bdffff5ddab3de1E>
    80001c0a:	fa2a                	sd	a0,304(sp)
    80001c0c:	fe2e                	sd	a1,312(sp)
    80001c0e:	a009                	j	80001c10 <.LBB4_32+0x24>
    80001c10:	1a08                	addi	a0,sp,304
    80001c12:	00009097          	auipc	ra,0x9
    80001c16:	fa4080e7          	jalr	-92(ra) # 8000abb6 <_ZN83_$LT$spin..rw_lock..RwLockReadGuard$LT$T$GT$$u20$as$u20$core..ops..deref..Deref$GT$5deref17h62f52e707b0c90b9E>
    80001c1a:	e82a                	sd	a0,16(sp)
    80001c1c:	a009                	j	80001c1e <.LBB4_32+0x32>
    80001c1e:	6542                	ld	a0,16(sp)
    80001c20:	02850513          	addi	a0,a0,40
    80001c24:	00002097          	auipc	ra,0x2
    80001c28:	1d6080e7          	jalr	470(ra) # 80003dfa <_ZN64_$LT$alloc..sync..Arc$LT$T$GT$$u20$as$u20$core..clone..Clone$GT$5clone17hf3a8e2bd675457d4E>
    80001c2c:	e42a                	sd	a0,8(sp)
    80001c2e:	a009                	j	80001c30 <.LBB4_32+0x44>
    v_list_insert_end(
    80001c30:	65a2                	ld	a1,8(sp)
    80001c32:	6562                	ld	a0,24(sp)
    80001c34:	00008097          	auipc	ra,0x8
    80001c38:	59a080e7          	jalr	1434(ra) # 8000a1ce <_ZN10r_freertos6kernel11linked_list17v_list_insert_end17h1b8ff089bc48e736E>
    80001c3c:	a009                	j	80001c3e <.LBB4_32+0x52>
    80001c3e:	1a08                	addi	a0,sp,304
    );
    80001c40:	00005097          	auipc	ra,0x5
    80001c44:	29e080e7          	jalr	670(ra) # 80006ede <_ZN4core3ptr105drop_in_place$LT$spin..rw_lock..RwLockReadGuard$LT$r_freertos..kernel..tasks..tskTaskControlBlock$GT$$GT$17ha7250d838ab10821E>
    80001c48:	a009                	j	80001c4a <.LBB4_32+0x5e>
    80001c4a:	1108                	addi	a0,sp,160
}
    80001c4c:	00005097          	auipc	ra,0x5
    80001c50:	470080e7          	jalr	1136(ra) # 800070bc <_ZN4core3ptr42drop_in_place$LT$alloc..string..String$GT$17h0c7292bf57e9bc31E>
    80001c54:	a009                	j	80001c56 <.LBB4_32+0x6a>
    80001c56:	0128                	addi	a0,sp,136
    80001c58:	00005097          	auipc	ra,0x5
    80001c5c:	320080e7          	jalr	800(ra) # 80006f78 <_ZN4core3ptr120drop_in_place$LT$alloc..sync..Arc$LT$spin..rw_lock..RwLock$LT$r_freertos..kernel..tasks..tskTaskControlBlock$GT$$GT$$GT$17habf28e369a2b2125E>
    80001c60:	a009                	j	80001c62 <.LBB4_32+0x76>
    80001c62:	60b6                	ld	ra,328(sp)
    80001c64:	6171                	addi	sp,sp,336
    80001c66:	8082                	ret

0000000080001c68 <_ZN10r_freertos6kernel5tasks25taskRECORD_READY_PRIORITY17h12576ead84f52289E>:
///set max uxTopReadyPriority
pub fn taskRECORD_READY_PRIORITY(uxPriority: UBaseType) {
    80001c68:	1141                	addi	sp,sp,-16
    80001c6a:	e42a                	sd	a0,8(sp)
    //TODO: set max uxTopReadyPriority
}
    80001c6c:	0141                	addi	sp,sp,16
    80001c6e:	8082                	ret

0000000080001c70 <_ZN10r_freertos6kernel5tasks20prvInitialiseNewTask17he57a82ca37c3fce2E>:

/// initialise new task
pub fn prvInitialiseNewTask(
    80001c70:	c0010113          	addi	sp,sp,-1024
    80001c74:	3e113c23          	sd	ra,1016(sp)
    80001c78:	eac6                	sd	a7,336(sp)
    80001c7a:	eec2                	sd	a6,344(sp)
    80001c7c:	f2b2                	sd	a2,352(sp)
    80001c7e:	f6ae                	sd	a1,360(sp)
    80001c80:	faaa                	sd	a0,368(sp)
    80001c82:	40013283          	ld	t0,1024(sp)
    80001c86:	3aa13823          	sd	a0,944(sp)
    80001c8a:	3ab13c23          	sd	a1,952(sp)
    80001c8e:	3cc13023          	sd	a2,960(sp)
    80001c92:	3cd12623          	sw	a3,972(sp)
    80001c96:	3ce13823          	sd	a4,976(sp)
    80001c9a:	3cf13c23          	sd	a5,984(sp)
    80001c9e:	3f013023          	sd	a6,992(sp)
    80001ca2:	3f113423          	sd	a7,1000(sp)
    80001ca6:	40010513          	addi	a0,sp,1024
    pvParameters: Option<Param_link>,
    pxCreatedTask: &TaskHandle_t,
    priority: UBaseType,
    pxNewTCB: TCB_t_link,
) -> TaskHandle_t {
    let mut pxTopOfStack: StackType_t_link = pxNewTCB.read().pxStack;
    80001caa:	00002097          	auipc	ra,0x2
    80001cae:	34a080e7          	jalr	842(ra) # 80003ff4 <_ZN69_$LT$alloc..sync..Arc$LT$T$GT$$u20$as$u20$core..ops..deref..Deref$GT$5deref17h5cd65089f56f330bE>
    80001cb2:	feaa                	sd	a0,376(sp)
    80001cb4:	a009                	j	80001cb6 <_ZN10r_freertos6kernel5tasks20prvInitialiseNewTask17he57a82ca37c3fce2E+0x46>
    80001cb6:	7576                	ld	a0,376(sp)
    80001cb8:	00009097          	auipc	ra,0x9
    80001cbc:	a4c080e7          	jalr	-1460(ra) # 8000a704 <_ZN4spin7rw_lock15RwLock$LT$T$GT$4read17h1bdffff5ddab3de1E>
    80001cc0:	e72a                	sd	a0,392(sp)
    80001cc2:	eb2e                	sd	a1,400(sp)
    80001cc4:	a009                	j	80001cc6 <_ZN10r_freertos6kernel5tasks20prvInitialiseNewTask17he57a82ca37c3fce2E+0x56>
    80001cc6:	0328                	addi	a0,sp,392
    80001cc8:	00009097          	auipc	ra,0x9
    80001ccc:	eee080e7          	jalr	-274(ra) # 8000abb6 <_ZN83_$LT$spin..rw_lock..RwLockReadGuard$LT$T$GT$$u20$as$u20$core..ops..deref..Deref$GT$5deref17h62f52e707b0c90b9E>
    80001cd0:	e6aa                	sd	a0,328(sp)
    80001cd2:	a009                	j	80001cd4 <_ZN10r_freertos6kernel5tasks20prvInitialiseNewTask17he57a82ca37c3fce2E+0x64>
    80001cd4:	6536                	ld	a0,328(sp)
    80001cd6:	6508                	ld	a0,8(a0)
    80001cd8:	e32a                	sd	a0,384(sp)
    80001cda:	0328                	addi	a0,sp,392
    80001cdc:	00005097          	auipc	ra,0x5
    80001ce0:	202080e7          	jalr	514(ra) # 80006ede <_ZN4core3ptr105drop_in_place$LT$spin..rw_lock..RwLockReadGuard$LT$r_freertos..kernel..tasks..tskTaskControlBlock$GT$$GT$17ha7250d838ab10821E>
    80001ce4:	a009                	j	80001ce6 <_ZN10r_freertos6kernel5tasks20prvInitialiseNewTask17he57a82ca37c3fce2E+0x76>
    pxTopOfStack = pxTopOfStack & (!(0x0007usize));
    80001ce6:	651a                	ld	a0,384(sp)
    80001ce8:	9961                	andi	a0,a0,-8
    80001cea:	e32a                	sd	a0,384(sp)
    80001cec:	4501                	li	a0,0

    let mut x: UBaseType = 0;
    80001cee:	3ea13823          	sd	a0,1008(sp)

0000000080001cf2 <.LBB6_81>:
    //TODO: name length
    print("prvInitialiseNewTask 1111");
    80001cf2:	0000b517          	auipc	a0,0xb
    80001cf6:	69650513          	addi	a0,a0,1686 # 8000d388 <.L__unnamed_12>
    80001cfa:	45e5                	li	a1,25
    80001cfc:	00003097          	auipc	ra,0x3
    80001d00:	212080e7          	jalr	530(ra) # 80004f0e <_ZN10r_freertos6kernel10riscv_virt5print17hf8c77654b83d2d4eE>
    80001d04:	a009                	j	80001d06 <.LBB6_81+0x14>
    pxNewTCB.write().pcTaskName = pcName.to_string();
    80001d06:	7616                	ld	a2,352(sp)
    80001d08:	75b6                	ld	a1,360(sp)
    80001d0a:	0b28                	addi	a0,sp,408
    80001d0c:	00004097          	auipc	ra,0x4
    80001d10:	3c8080e7          	jalr	968(ra) # 800060d4 <_ZN47_$LT$str$u20$as$u20$alloc..string..ToString$GT$9to_string17hc1b8b6e2426ba816E>
    80001d14:	a009                	j	80001d16 <.LBB6_81+0x24>
    80001d16:	40010513          	addi	a0,sp,1024
    80001d1a:	00002097          	auipc	ra,0x2
    80001d1e:	2da080e7          	jalr	730(ra) # 80003ff4 <_ZN69_$LT$alloc..sync..Arc$LT$T$GT$$u20$as$u20$core..ops..deref..Deref$GT$5deref17h5cd65089f56f330bE>
    80001d22:	e2aa                	sd	a0,320(sp)
    80001d24:	a009                	j	80001d26 <.LBB6_81+0x34>
    80001d26:	6516                	ld	a0,320(sp)
    80001d28:	00009097          	auipc	ra,0x9
    80001d2c:	b5c080e7          	jalr	-1188(ra) # 8000a884 <_ZN4spin7rw_lock15RwLock$LT$T$GT$5write17h40aa27e15096be3cE>
    80001d30:	fb2a                	sd	a0,432(sp)
    80001d32:	ff2e                	sd	a1,440(sp)
    80001d34:	a009                	j	80001d36 <.LBB6_81+0x44>
    80001d36:	1b08                	addi	a0,sp,432
    80001d38:	00009097          	auipc	ra,0x9
    80001d3c:	eee080e7          	jalr	-274(ra) # 8000ac26 <_ZN87_$LT$spin..rw_lock..RwLockWriteGuard$LT$T$GT$$u20$as$u20$core..ops..deref..DerefMut$GT$9deref_mut17h4025cb1e60118155E>
    80001d40:	fe2a                	sd	a0,312(sp)
    80001d42:	a009                	j	80001d44 <.LBB6_81+0x52>
    80001d44:	7572                	ld	a0,312(sp)
    80001d46:	0541                	addi	a0,a0,16
    80001d48:	00005097          	auipc	ra,0x5
    80001d4c:	374080e7          	jalr	884(ra) # 800070bc <_ZN4core3ptr42drop_in_place$LT$alloc..string..String$GT$17h0c7292bf57e9bc31E>
    80001d50:	a009                	j	80001d52 <.LBB6_81+0x60>
    80001d52:	75f2                	ld	a1,312(sp)
    80001d54:	753a                	ld	a0,424(sp)
    80001d56:	f188                	sd	a0,32(a1)
    80001d58:	751a                	ld	a0,416(sp)
    80001d5a:	ed88                	sd	a0,24(a1)
    80001d5c:	657a                	ld	a0,408(sp)
    80001d5e:	e988                	sd	a0,16(a1)
    80001d60:	1b08                	addi	a0,sp,432
    80001d62:	00005097          	auipc	ra,0x5
    80001d66:	192080e7          	jalr	402(ra) # 80006ef4 <_ZN4core3ptr106drop_in_place$LT$spin..rw_lock..RwLockWriteGuard$LT$r_freertos..kernel..tasks..tskTaskControlBlock$GT$$GT$17hd69fd8d3e331a0beE>
    80001d6a:	a009                	j	80001d6c <.LBB6_81+0x7a>
    80001d6c:	40010513          	addi	a0,sp,1024
    pxNewTCB.write().uxPriority = priority;
    80001d70:	00002097          	auipc	ra,0x2
    80001d74:	284080e7          	jalr	644(ra) # 80003ff4 <_ZN69_$LT$alloc..sync..Arc$LT$T$GT$$u20$as$u20$core..ops..deref..Deref$GT$5deref17h5cd65089f56f330bE>
    80001d78:	fa2a                	sd	a0,304(sp)
    80001d7a:	a009                	j	80001d7c <.LBB6_81+0x8a>
    80001d7c:	7552                	ld	a0,304(sp)
    80001d7e:	00009097          	auipc	ra,0x9
    80001d82:	b06080e7          	jalr	-1274(ra) # 8000a884 <_ZN4spin7rw_lock15RwLock$LT$T$GT$5write17h40aa27e15096be3cE>
    80001d86:	e3aa                	sd	a0,448(sp)
    80001d88:	e7ae                	sd	a1,456(sp)
    80001d8a:	a009                	j	80001d8c <.LBB6_81+0x9a>
    80001d8c:	0388                	addi	a0,sp,448
    80001d8e:	00009097          	auipc	ra,0x9
    80001d92:	e98080e7          	jalr	-360(ra) # 8000ac26 <_ZN87_$LT$spin..rw_lock..RwLockWriteGuard$LT$T$GT$$u20$as$u20$core..ops..deref..DerefMut$GT$9deref_mut17h4025cb1e60118155E>
    80001d96:	f62a                	sd	a0,296(sp)
    80001d98:	a009                	j	80001d9a <.LBB6_81+0xa8>
    80001d9a:	6556                	ld	a0,336(sp)
    80001d9c:	75b2                	ld	a1,296(sp)
    80001d9e:	e1a8                	sd	a0,64(a1)
    80001da0:	0388                	addi	a0,sp,448
    80001da2:	00005097          	auipc	ra,0x5
    80001da6:	152080e7          	jalr	338(ra) # 80006ef4 <_ZN4core3ptr106drop_in_place$LT$spin..rw_lock..RwLockWriteGuard$LT$r_freertos..kernel..tasks..tskTaskControlBlock$GT$$GT$17hd69fd8d3e331a0beE>
    80001daa:	a009                	j	80001dac <.LBB6_81+0xba>
    80001dac:	40010513          	addi	a0,sp,1024
    if cfg!(feature = "configUSE_MUTEXES") {
        pxNewTCB.write().uxBasePriority = priority;
    80001db0:	00002097          	auipc	ra,0x2
    80001db4:	244080e7          	jalr	580(ra) # 80003ff4 <_ZN69_$LT$alloc..sync..Arc$LT$T$GT$$u20$as$u20$core..ops..deref..Deref$GT$5deref17h5cd65089f56f330bE>
    80001db8:	f22a                	sd	a0,288(sp)
    80001dba:	a009                	j	80001dbc <.LBB6_81+0xca>
    80001dbc:	7512                	ld	a0,288(sp)
    80001dbe:	00009097          	auipc	ra,0x9
    80001dc2:	ac6080e7          	jalr	-1338(ra) # 8000a884 <_ZN4spin7rw_lock15RwLock$LT$T$GT$5write17h40aa27e15096be3cE>
    80001dc6:	ebaa                	sd	a0,464(sp)
    80001dc8:	efae                	sd	a1,472(sp)
    80001dca:	a009                	j	80001dcc <.LBB6_81+0xda>
    80001dcc:	0b88                	addi	a0,sp,464
    80001dce:	00009097          	auipc	ra,0x9
    80001dd2:	e58080e7          	jalr	-424(ra) # 8000ac26 <_ZN87_$LT$spin..rw_lock..RwLockWriteGuard$LT$T$GT$$u20$as$u20$core..ops..deref..DerefMut$GT$9deref_mut17h4025cb1e60118155E>
    80001dd6:	ee2a                	sd	a0,280(sp)
    80001dd8:	a009                	j	80001dda <.LBB6_81+0xe8>
    80001dda:	6556                	ld	a0,336(sp)
    80001ddc:	65f2                	ld	a1,280(sp)
    80001dde:	e9a8                	sd	a0,80(a1)
    80001de0:	0b88                	addi	a0,sp,464
    80001de2:	00005097          	auipc	ra,0x5
    80001de6:	112080e7          	jalr	274(ra) # 80006ef4 <_ZN4core3ptr106drop_in_place$LT$spin..rw_lock..RwLockWriteGuard$LT$r_freertos..kernel..tasks..tskTaskControlBlock$GT$$GT$17hd69fd8d3e331a0beE>
    80001dea:	a009                	j	80001dec <.LBB6_81+0xfa>
    80001dec:	40010513          	addi	a0,sp,1024
        pxNewTCB.write().uxMutexesHeld = 0;
    80001df0:	00002097          	auipc	ra,0x2
    80001df4:	204080e7          	jalr	516(ra) # 80003ff4 <_ZN69_$LT$alloc..sync..Arc$LT$T$GT$$u20$as$u20$core..ops..deref..Deref$GT$5deref17h5cd65089f56f330bE>
    80001df8:	ea2a                	sd	a0,272(sp)
    80001dfa:	a009                	j	80001dfc <.LBB6_81+0x10a>
    80001dfc:	6552                	ld	a0,272(sp)
    80001dfe:	00009097          	auipc	ra,0x9
    80001e02:	a86080e7          	jalr	-1402(ra) # 8000a884 <_ZN4spin7rw_lock15RwLock$LT$T$GT$5write17h40aa27e15096be3cE>
    80001e06:	f3aa                	sd	a0,480(sp)
    80001e08:	f7ae                	sd	a1,488(sp)
    80001e0a:	a009                	j	80001e0c <.LBB6_81+0x11a>
    80001e0c:	1388                	addi	a0,sp,480
    80001e0e:	00009097          	auipc	ra,0x9
    80001e12:	e18080e7          	jalr	-488(ra) # 8000ac26 <_ZN87_$LT$spin..rw_lock..RwLockWriteGuard$LT$T$GT$$u20$as$u20$core..ops..deref..DerefMut$GT$9deref_mut17h4025cb1e60118155E>
    80001e16:	e62a                	sd	a0,264(sp)
    80001e18:	a009                	j	80001e1a <.LBB6_81+0x128>
    80001e1a:	65b2                	ld	a1,264(sp)
    80001e1c:	4501                	li	a0,0
    80001e1e:	e5a8                	sd	a0,72(a1)
    80001e20:	1388                	addi	a0,sp,480
    80001e22:	00005097          	auipc	ra,0x5
    80001e26:	0d2080e7          	jalr	210(ra) # 80006ef4 <_ZN4core3ptr106drop_in_place$LT$spin..rw_lock..RwLockWriteGuard$LT$r_freertos..kernel..tasks..tskTaskControlBlock$GT$$GT$17hd69fd8d3e331a0beE>
    80001e2a:	a009                	j	80001e2c <.LBB6_82>

0000000080001e2c <.LBB6_82>:
    }
    //TODO:auto init
    print("prvInitialiseNewTask 2222");
    80001e2c:	0000b517          	auipc	a0,0xb
    80001e30:	57550513          	addi	a0,a0,1397 # 8000d3a1 <.L__unnamed_13>
    80001e34:	45e5                	li	a1,25
    80001e36:	00003097          	auipc	ra,0x3
    80001e3a:	0d8080e7          	jalr	216(ra) # 80004f0e <_ZN10r_freertos6kernel10riscv_virt5print17hf8c77654b83d2d4eE>
    80001e3e:	a009                	j	80001e40 <.LBB6_82+0x14>
    80001e40:	40010513          	addi	a0,sp,1024
    list_item_set_owner(&pxNewTCB.write().xStateListItem, Arc::downgrade(&pxNewTCB));
    80001e44:	00002097          	auipc	ra,0x2
    80001e48:	1b0080e7          	jalr	432(ra) # 80003ff4 <_ZN69_$LT$alloc..sync..Arc$LT$T$GT$$u20$as$u20$core..ops..deref..Deref$GT$5deref17h5cd65089f56f330bE>
    80001e4c:	e22a                	sd	a0,256(sp)
    80001e4e:	a009                	j	80001e50 <.LBB6_82+0x24>
    80001e50:	6512                	ld	a0,256(sp)
    80001e52:	00009097          	auipc	ra,0x9
    80001e56:	a32080e7          	jalr	-1486(ra) # 8000a884 <_ZN4spin7rw_lock15RwLock$LT$T$GT$5write17h40aa27e15096be3cE>
    80001e5a:	fbaa                	sd	a0,496(sp)
    80001e5c:	ffae                	sd	a1,504(sp)
    80001e5e:	a009                	j	80001e60 <.LBB6_82+0x34>
    80001e60:	1b88                	addi	a0,sp,496
    80001e62:	00009097          	auipc	ra,0x9
    80001e66:	d8c080e7          	jalr	-628(ra) # 8000abee <_ZN84_$LT$spin..rw_lock..RwLockWriteGuard$LT$T$GT$$u20$as$u20$core..ops..deref..Deref$GT$5deref17h593f08c9bc0e6950E>
    80001e6a:	fdaa                	sd	a0,248(sp)
    80001e6c:	a009                	j	80001e6e <.LBB6_82+0x42>
    80001e6e:	756e                	ld	a0,248(sp)
    80001e70:	02850513          	addi	a0,a0,40
    80001e74:	f5aa                	sd	a0,232(sp)
    80001e76:	40010513          	addi	a0,sp,1024
    80001e7a:	00001097          	auipc	ra,0x1
    80001e7e:	77a080e7          	jalr	1914(ra) # 800035f4 <_ZN5alloc4sync12Arc$LT$T$GT$9downgrade17h08f336e22644d765E>
    80001e82:	f9aa                	sd	a0,240(sp)
    80001e84:	a009                	j	80001e86 <.LBB6_82+0x5a>
    80001e86:	75ce                	ld	a1,240(sp)
    80001e88:	752e                	ld	a0,232(sp)
    80001e8a:	00008097          	auipc	ra,0x8
    80001e8e:	b90080e7          	jalr	-1136(ra) # 80009a1a <_ZN10r_freertos6kernel11linked_list19list_item_set_owner17hf9cb35683980af68E>
    80001e92:	a009                	j	80001e94 <.LBB6_82+0x68>
    80001e94:	1b88                	addi	a0,sp,496
    80001e96:	00005097          	auipc	ra,0x5
    80001e9a:	05e080e7          	jalr	94(ra) # 80006ef4 <_ZN4core3ptr106drop_in_place$LT$spin..rw_lock..RwLockWriteGuard$LT$r_freertos..kernel..tasks..tskTaskControlBlock$GT$$GT$17hd69fd8d3e331a0beE>
    80001e9e:	a009                	j	80001ea0 <.LBB6_82+0x74>
    80001ea0:	40010513          	addi	a0,sp,1024
    list_item_set_owner(&pxNewTCB.write().xEventListItem, Arc::downgrade(&pxNewTCB));
    80001ea4:	00002097          	auipc	ra,0x2
    80001ea8:	150080e7          	jalr	336(ra) # 80003ff4 <_ZN69_$LT$alloc..sync..Arc$LT$T$GT$$u20$as$u20$core..ops..deref..Deref$GT$5deref17h5cd65089f56f330bE>
    80001eac:	f1aa                	sd	a0,224(sp)
    80001eae:	a009                	j	80001eb0 <.LBB6_82+0x84>
    80001eb0:	750e                	ld	a0,224(sp)
    80001eb2:	00009097          	auipc	ra,0x9
    80001eb6:	9d2080e7          	jalr	-1582(ra) # 8000a884 <_ZN4spin7rw_lock15RwLock$LT$T$GT$5write17h40aa27e15096be3cE>
    80001eba:	20a13023          	sd	a0,512(sp)
    80001ebe:	20b13423          	sd	a1,520(sp)
    80001ec2:	a009                	j	80001ec4 <.LBB6_82+0x98>
    80001ec4:	0408                	addi	a0,sp,512
    80001ec6:	00009097          	auipc	ra,0x9
    80001eca:	d28080e7          	jalr	-728(ra) # 8000abee <_ZN84_$LT$spin..rw_lock..RwLockWriteGuard$LT$T$GT$$u20$as$u20$core..ops..deref..Deref$GT$5deref17h593f08c9bc0e6950E>
    80001ece:	edaa                	sd	a0,216(sp)
    80001ed0:	a009                	j	80001ed2 <.LBB6_82+0xa6>
    80001ed2:	656e                	ld	a0,216(sp)
    80001ed4:	03050513          	addi	a0,a0,48
    80001ed8:	e5aa                	sd	a0,200(sp)
    80001eda:	40010513          	addi	a0,sp,1024
    80001ede:	00001097          	auipc	ra,0x1
    80001ee2:	716080e7          	jalr	1814(ra) # 800035f4 <_ZN5alloc4sync12Arc$LT$T$GT$9downgrade17h08f336e22644d765E>
    80001ee6:	e9aa                	sd	a0,208(sp)
    80001ee8:	a009                	j	80001eea <.LBB6_82+0xbe>
    80001eea:	65ce                	ld	a1,208(sp)
    80001eec:	652e                	ld	a0,200(sp)
    80001eee:	00008097          	auipc	ra,0x8
    80001ef2:	b2c080e7          	jalr	-1236(ra) # 80009a1a <_ZN10r_freertos6kernel11linked_list19list_item_set_owner17hf9cb35683980af68E>
    80001ef6:	a009                	j	80001ef8 <.LBB6_82+0xcc>
    80001ef8:	0408                	addi	a0,sp,512
    80001efa:	00005097          	auipc	ra,0x5
    80001efe:	ffa080e7          	jalr	-6(ra) # 80006ef4 <_ZN4core3ptr106drop_in_place$LT$spin..rw_lock..RwLockWriteGuard$LT$r_freertos..kernel..tasks..tskTaskControlBlock$GT$$GT$17hd69fd8d3e331a0beE>
    80001f02:	a009                	j	80001f04 <.LBB6_82+0xd8>
    80001f04:	40010513          	addi	a0,sp,1024
    list_item_set_value(
        &pxNewTCB.write().xEventListItem,
    80001f08:	00002097          	auipc	ra,0x2
    80001f0c:	0ec080e7          	jalr	236(ra) # 80003ff4 <_ZN69_$LT$alloc..sync..Arc$LT$T$GT$$u20$as$u20$core..ops..deref..Deref$GT$5deref17h5cd65089f56f330bE>
    80001f10:	e1aa                	sd	a0,192(sp)
    80001f12:	a009                	j	80001f14 <.LBB6_82+0xe8>
    80001f14:	650e                	ld	a0,192(sp)
    80001f16:	00009097          	auipc	ra,0x9
    80001f1a:	96e080e7          	jalr	-1682(ra) # 8000a884 <_ZN4spin7rw_lock15RwLock$LT$T$GT$5write17h40aa27e15096be3cE>
    80001f1e:	20a13823          	sd	a0,528(sp)
    80001f22:	20b13c23          	sd	a1,536(sp)
    80001f26:	a009                	j	80001f28 <.LBB6_82+0xfc>
    80001f28:	0c08                	addi	a0,sp,528
    80001f2a:	00009097          	auipc	ra,0x9
    80001f2e:	cc4080e7          	jalr	-828(ra) # 8000abee <_ZN84_$LT$spin..rw_lock..RwLockWriteGuard$LT$T$GT$$u20$as$u20$core..ops..deref..Deref$GT$5deref17h593f08c9bc0e6950E>
    80001f32:	fd2a                	sd	a0,184(sp)
    80001f34:	a009                	j	80001f36 <.LBB6_82+0x10a>
    80001f36:	65d6                	ld	a1,336(sp)
    80001f38:	756a                	ld	a0,184(sp)
    80001f3a:	03050513          	addi	a0,a0,48
    80001f3e:	f52a                	sd	a0,168(sp)
    80001f40:	4541                	li	a0,16
        configMAX_PRIORITIES - priority,
    80001f42:	40b505b3          	sub	a1,a0,a1
    80001f46:	f92e                	sd	a1,176(sp)
    80001f48:	00b56a63          	bltu	a0,a1,80001f5c <.LBB6_83>
    80001f4c:	a009                	j	80001f4e <.LBB6_82+0x122>
    list_item_set_value(
    80001f4e:	75ca                	ld	a1,176(sp)
    80001f50:	752a                	ld	a0,168(sp)
    80001f52:	00008097          	auipc	ra,0x8
    80001f56:	960080e7          	jalr	-1696(ra) # 800098b2 <_ZN10r_freertos6kernel11linked_list19list_item_set_value17h090a4913d56eba21E>
    80001f5a:	a005                	j	80001f7a <.LBB6_84+0x16>

0000000080001f5c <.LBB6_83>:
        configMAX_PRIORITIES - priority,
    80001f5c:	0000b517          	auipc	a0,0xb
    80001f60:	48450513          	addi	a0,a0,1156 # 8000d3e0 <str.0>

0000000080001f64 <.LBB6_84>:
    80001f64:	0000b617          	auipc	a2,0xb
    80001f68:	45c60613          	addi	a2,a2,1116 # 8000d3c0 <.L__unnamed_14>
    80001f6c:	02100593          	li	a1,33
    80001f70:	ffffe097          	auipc	ra,0xffffe
    80001f74:	1a6080e7          	jalr	422(ra) # 80000116 <_ZN4core9panicking5panic17h7cbb7101b8ec6f33E>
    80001f78:	0000                	unimp
    80001f7a:	0c08                	addi	a0,sp,528
    );
    80001f7c:	00005097          	auipc	ra,0x5
    80001f80:	f78080e7          	jalr	-136(ra) # 80006ef4 <_ZN4core3ptr106drop_in_place$LT$spin..rw_lock..RwLockWriteGuard$LT$r_freertos..kernel..tasks..tskTaskControlBlock$GT$$GT$17hd69fd8d3e331a0beE>
    80001f84:	a009                	j	80001f86 <.LBB6_85>

0000000080001f86 <.LBB6_85>:
    print("prvInitialiseNewTask 33333");
    80001f86:	0000b517          	auipc	a0,0xb
    80001f8a:	47b50513          	addi	a0,a0,1147 # 8000d401 <.L__unnamed_15>
    80001f8e:	45e9                	li	a1,26
    80001f90:	00003097          	auipc	ra,0x3
    80001f94:	f7e080e7          	jalr	-130(ra) # 80004f0e <_ZN10r_freertos6kernel10riscv_virt5print17hf8c77654b83d2d4eE>
    80001f98:	a009                	j	80001f9a <.LBB6_85+0x14>
    80001f9a:	0308                	addi	a0,sp,384
    //TODO: connect
    let s_ = format!("top of stack{:X}", pxTopOfStack);
    80001f9c:	fffff097          	auipc	ra,0xfffff
    80001fa0:	2bc080e7          	jalr	700(ra) # 80001258 <_ZN4core3fmt10ArgumentV113new_upper_hex17h95f58828fb322d41E>
    80001fa4:	ed2a                	sd	a0,152(sp)
    80001fa6:	f12e                	sd	a1,160(sp)
    80001fa8:	a009                	j	80001faa <.LBB6_85+0x24>
    80001faa:	750a                	ld	a0,160(sp)
    80001fac:	65ea                	ld	a1,152(sp)
    80001fae:	28b13023          	sd	a1,640(sp)
    80001fb2:	28a13423          	sd	a0,648(sp)

0000000080001fb6 <.LBB6_86>:
    80001fb6:	0000b597          	auipc	a1,0xb
    80001fba:	33258593          	addi	a1,a1,818 # 8000d2e8 <.L__unnamed_8>
    80001fbe:	0c88                	addi	a0,sp,592
    80001fc0:	0514                	addi	a3,sp,640
    80001fc2:	4705                	li	a4,1
    80001fc4:	863a                	mv	a2,a4
    80001fc6:	ffffe097          	auipc	ra,0xffffe
    80001fca:	5be080e7          	jalr	1470(ra) # 80000584 <_ZN4core3fmt9Arguments6new_v117hb9c4816a17cef4b5E>
    80001fce:	a009                	j	80001fd0 <.LBB6_86+0x1a>
    80001fd0:	1c28                	addi	a0,sp,568
    80001fd2:	0c8c                	addi	a1,sp,592
    80001fd4:	0000a097          	auipc	ra,0xa
    80001fd8:	cae080e7          	jalr	-850(ra) # 8000bc82 <_ZN5alloc3fmt6format17h06bcb7061c429322E>
    80001fdc:	a009                	j	80001fde <.LBB6_86+0x28>
    80001fde:	24813503          	ld	a0,584(sp)
    80001fe2:	22a13823          	sd	a0,560(sp)
    80001fe6:	24013503          	ld	a0,576(sp)
    80001fea:	22a13423          	sd	a0,552(sp)
    80001fee:	23813503          	ld	a0,568(sp)
    80001ff2:	22a13023          	sd	a0,544(sp)
    80001ff6:	1408                	addi	a0,sp,544
    print(&s_);
    80001ff8:	00004097          	auipc	ra,0x4
    80001ffc:	1dc080e7          	jalr	476(ra) # 800061d4 <_ZN65_$LT$alloc..string..String$u20$as$u20$core..ops..deref..Deref$GT$5deref17h4278e277ab39eb01E>
    80002000:	e52a                	sd	a0,136(sp)
    80002002:	e92e                	sd	a1,144(sp)
    80002004:	a009                	j	80002006 <.LBB6_86+0x50>
    80002006:	65ca                	ld	a1,144(sp)
    80002008:	652a                	ld	a0,136(sp)
    8000200a:	00003097          	auipc	ra,0x3
    8000200e:	f04080e7          	jalr	-252(ra) # 80004f0e <_ZN10r_freertos6kernel10riscv_virt5print17hf8c77654b83d2d4eE>
    80002012:	a009                	j	80002014 <.LBB6_86+0x5e>
    unsafe {
        pxNewTCB.write().pxTopOfStack =
            pxPortInitialiseStack(pxTopOfStack as *mut _, pxTaskCode, 0 as *mut _) as usize;
    80002014:	75d6                	ld	a1,368(sp)
    80002016:	651a                	ld	a0,384(sp)
    80002018:	4601                	li	a2,0
    8000201a:	00009097          	auipc	ra,0x9
    8000201e:	f2e080e7          	jalr	-210(ra) # 8000af48 <pxPortInitialiseStack>
    80002022:	e12a                	sd	a0,128(sp)
    80002024:	a009                	j	80002026 <.LBB6_86+0x70>
    80002026:	40010513          	addi	a0,sp,1024
        pxNewTCB.write().pxTopOfStack =
    8000202a:	00002097          	auipc	ra,0x2
    8000202e:	fca080e7          	jalr	-54(ra) # 80003ff4 <_ZN69_$LT$alloc..sync..Arc$LT$T$GT$$u20$as$u20$core..ops..deref..Deref$GT$5deref17h5cd65089f56f330bE>
    80002032:	fcaa                	sd	a0,120(sp)
    80002034:	a009                	j	80002036 <.LBB6_86+0x80>
    80002036:	7566                	ld	a0,120(sp)
    80002038:	00009097          	auipc	ra,0x9
    8000203c:	84c080e7          	jalr	-1972(ra) # 8000a884 <_ZN4spin7rw_lock15RwLock$LT$T$GT$5write17h40aa27e15096be3cE>
    80002040:	28a13823          	sd	a0,656(sp)
    80002044:	28b13c23          	sd	a1,664(sp)
    80002048:	a009                	j	8000204a <.LBB6_86+0x94>
    8000204a:	0d08                	addi	a0,sp,656
    8000204c:	00009097          	auipc	ra,0x9
    80002050:	bda080e7          	jalr	-1062(ra) # 8000ac26 <_ZN87_$LT$spin..rw_lock..RwLockWriteGuard$LT$T$GT$$u20$as$u20$core..ops..deref..DerefMut$GT$9deref_mut17h4025cb1e60118155E>
    80002054:	f8aa                	sd	a0,112(sp)
    80002056:	a009                	j	80002058 <.LBB6_86+0xa2>
    80002058:	650a                	ld	a0,128(sp)
    8000205a:	75c6                	ld	a1,112(sp)
    8000205c:	e188                	sd	a0,0(a1)
    8000205e:	0d08                	addi	a0,sp,656
            pxPortInitialiseStack(pxTopOfStack as *mut _, pxTaskCode, 0 as *mut _) as usize;
    80002060:	00005097          	auipc	ra,0x5
    80002064:	e94080e7          	jalr	-364(ra) # 80006ef4 <_ZN4core3ptr106drop_in_place$LT$spin..rw_lock..RwLockWriteGuard$LT$r_freertos..kernel..tasks..tskTaskControlBlock$GT$$GT$17hd69fd8d3e331a0beE>
    80002068:	a009                	j	8000206a <.LBB6_86+0xb4>
    8000206a:	40010513          	addi	a0,sp,1024
        pxNewTCB.write().uxCriticalNesting = 0;
    8000206e:	00002097          	auipc	ra,0x2
    80002072:	f86080e7          	jalr	-122(ra) # 80003ff4 <_ZN69_$LT$alloc..sync..Arc$LT$T$GT$$u20$as$u20$core..ops..deref..Deref$GT$5deref17h5cd65089f56f330bE>
    80002076:	f4aa                	sd	a0,104(sp)
    80002078:	a009                	j	8000207a <.LBB6_86+0xc4>
    8000207a:	7526                	ld	a0,104(sp)
    8000207c:	00009097          	auipc	ra,0x9
    80002080:	808080e7          	jalr	-2040(ra) # 8000a884 <_ZN4spin7rw_lock15RwLock$LT$T$GT$5write17h40aa27e15096be3cE>
    80002084:	2aa13023          	sd	a0,672(sp)
    80002088:	2ab13423          	sd	a1,680(sp)
    8000208c:	a009                	j	8000208e <.LBB6_86+0xd8>
    8000208e:	1508                	addi	a0,sp,672
    80002090:	00009097          	auipc	ra,0x9
    80002094:	b96080e7          	jalr	-1130(ra) # 8000ac26 <_ZN87_$LT$spin..rw_lock..RwLockWriteGuard$LT$T$GT$$u20$as$u20$core..ops..deref..DerefMut$GT$9deref_mut17h4025cb1e60118155E>
    80002098:	f0aa                	sd	a0,96(sp)
    8000209a:	a009                	j	8000209c <.LBB6_86+0xe6>
    8000209c:	7586                	ld	a1,96(sp)
    8000209e:	4501                	li	a0,0
    800020a0:	fd88                	sd	a0,56(a1)
    800020a2:	1508                	addi	a0,sp,672
    800020a4:	00005097          	auipc	ra,0x5
    800020a8:	e50080e7          	jalr	-432(ra) # 80006ef4 <_ZN4core3ptr106drop_in_place$LT$spin..rw_lock..RwLockWriteGuard$LT$r_freertos..kernel..tasks..tskTaskControlBlock$GT$$GT$17hd69fd8d3e331a0beE>
    800020ac:	a009                	j	800020ae <.LBB6_86+0xf8>
    800020ae:	40010513          	addi	a0,sp,1024
    }
    let s_ = format!("top of stack{:X}", pxNewTCB.read().pxTopOfStack);
    800020b2:	00002097          	auipc	ra,0x2
    800020b6:	f42080e7          	jalr	-190(ra) # 80003ff4 <_ZN69_$LT$alloc..sync..Arc$LT$T$GT$$u20$as$u20$core..ops..deref..Deref$GT$5deref17h5cd65089f56f330bE>
    800020ba:	ecaa                	sd	a0,88(sp)
    800020bc:	a009                	j	800020be <.LBB6_86+0x108>
    800020be:	6566                	ld	a0,88(sp)
    800020c0:	00008097          	auipc	ra,0x8
    800020c4:	644080e7          	jalr	1604(ra) # 8000a704 <_ZN4spin7rw_lock15RwLock$LT$T$GT$4read17h1bdffff5ddab3de1E>
    800020c8:	32a13023          	sd	a0,800(sp)
    800020cc:	32b13423          	sd	a1,808(sp)
    800020d0:	a009                	j	800020d2 <.LBB6_86+0x11c>
    800020d2:	1608                	addi	a0,sp,800
    800020d4:	00009097          	auipc	ra,0x9
    800020d8:	ae2080e7          	jalr	-1310(ra) # 8000abb6 <_ZN83_$LT$spin..rw_lock..RwLockReadGuard$LT$T$GT$$u20$as$u20$core..ops..deref..Deref$GT$5deref17h62f52e707b0c90b9E>
    800020dc:	e8aa                	sd	a0,80(sp)
    800020de:	a009                	j	800020e0 <.LBB6_86+0x12a>
    800020e0:	6546                	ld	a0,80(sp)
    800020e2:	fffff097          	auipc	ra,0xfffff
    800020e6:	176080e7          	jalr	374(ra) # 80001258 <_ZN4core3fmt10ArgumentV113new_upper_hex17h95f58828fb322d41E>
    800020ea:	e0aa                	sd	a0,64(sp)
    800020ec:	e4ae                	sd	a1,72(sp)
    800020ee:	a009                	j	800020f0 <.LBB6_86+0x13a>
    800020f0:	6526                	ld	a0,72(sp)
    800020f2:	6586                	ld	a1,64(sp)
    800020f4:	30b13823          	sd	a1,784(sp)
    800020f8:	30a13c23          	sd	a0,792(sp)

00000000800020fc <.LBB6_87>:
    800020fc:	0000b597          	auipc	a1,0xb
    80002100:	1ec58593          	addi	a1,a1,492 # 8000d2e8 <.L__unnamed_8>
    80002104:	1588                	addi	a0,sp,736
    80002106:	0e14                	addi	a3,sp,784
    80002108:	4705                	li	a4,1
    8000210a:	863a                	mv	a2,a4
    8000210c:	ffffe097          	auipc	ra,0xffffe
    80002110:	478080e7          	jalr	1144(ra) # 80000584 <_ZN4core3fmt9Arguments6new_v117hb9c4816a17cef4b5E>
    80002114:	a009                	j	80002116 <.LBB6_87+0x1a>
    80002116:	05a8                	addi	a0,sp,712
    80002118:	158c                	addi	a1,sp,736
    8000211a:	0000a097          	auipc	ra,0xa
    8000211e:	b68080e7          	jalr	-1176(ra) # 8000bc82 <_ZN5alloc3fmt6format17h06bcb7061c429322E>
    80002122:	a009                	j	80002124 <.LBB6_87+0x28>
    80002124:	1608                	addi	a0,sp,800
    80002126:	00005097          	auipc	ra,0x5
    8000212a:	db8080e7          	jalr	-584(ra) # 80006ede <_ZN4core3ptr105drop_in_place$LT$spin..rw_lock..RwLockReadGuard$LT$r_freertos..kernel..tasks..tskTaskControlBlock$GT$$GT$17ha7250d838ab10821E>
    8000212e:	a009                	j	80002130 <.LBB6_87+0x34>
    80002130:	2d813503          	ld	a0,728(sp)
    80002134:	2ca13023          	sd	a0,704(sp)
    80002138:	2d013503          	ld	a0,720(sp)
    8000213c:	2aa13c23          	sd	a0,696(sp)
    80002140:	2c813503          	ld	a0,712(sp)
    80002144:	2aa13823          	sd	a0,688(sp)
    80002148:	1d08                	addi	a0,sp,688
    print(&s_);
    8000214a:	00004097          	auipc	ra,0x4
    8000214e:	08a080e7          	jalr	138(ra) # 800061d4 <_ZN65_$LT$alloc..string..String$u20$as$u20$core..ops..deref..Deref$GT$5deref17h4278e277ab39eb01E>
    80002152:	f82a                	sd	a0,48(sp)
    80002154:	fc2e                	sd	a1,56(sp)
    80002156:	a009                	j	80002158 <.LBB6_87+0x5c>
    80002158:	75e2                	ld	a1,56(sp)
    8000215a:	7542                	ld	a0,48(sp)
    8000215c:	00003097          	auipc	ra,0x3
    80002160:	db2080e7          	jalr	-590(ra) # 80004f0e <_ZN10r_freertos6kernel10riscv_virt5print17hf8c77654b83d2d4eE>
    80002164:	a009                	j	80002166 <.LBB6_88>

0000000080002166 <.LBB6_88>:
    print("prvInitialiseNewTask 4444");
    80002166:	0000b517          	auipc	a0,0xb
    8000216a:	2b550513          	addi	a0,a0,693 # 8000d41b <.L__unnamed_16>
    8000216e:	45e5                	li	a1,25
    80002170:	00003097          	auipc	ra,0x3
    80002174:	d9e080e7          	jalr	-610(ra) # 80004f0e <_ZN10r_freertos6kernel10riscv_virt5print17hf8c77654b83d2d4eE>
    80002178:	a009                	j	8000217a <.LBB6_88+0x14>
    8000217a:	40010513          	addi	a0,sp,1024
    //TODO: return
    *pxCreatedTask.write() = (*(pxNewTCB.write())).clone();
    8000217e:	00002097          	auipc	ra,0x2
    80002182:	e76080e7          	jalr	-394(ra) # 80003ff4 <_ZN69_$LT$alloc..sync..Arc$LT$T$GT$$u20$as$u20$core..ops..deref..Deref$GT$5deref17h5cd65089f56f330bE>
    80002186:	f42a                	sd	a0,40(sp)
    80002188:	a009                	j	8000218a <.LBB6_88+0x24>
    8000218a:	7522                	ld	a0,40(sp)
    8000218c:	00008097          	auipc	ra,0x8
    80002190:	6f8080e7          	jalr	1784(ra) # 8000a884 <_ZN4spin7rw_lock15RwLock$LT$T$GT$5write17h40aa27e15096be3cE>
    80002194:	38a13823          	sd	a0,912(sp)
    80002198:	38b13c23          	sd	a1,920(sp)
    8000219c:	a009                	j	8000219e <.LBB6_88+0x38>
    8000219e:	0f08                	addi	a0,sp,912
    800021a0:	00009097          	auipc	ra,0x9
    800021a4:	a4e080e7          	jalr	-1458(ra) # 8000abee <_ZN84_$LT$spin..rw_lock..RwLockWriteGuard$LT$T$GT$$u20$as$u20$core..ops..deref..Deref$GT$5deref17h593f08c9bc0e6950E>
    800021a8:	f02a                	sd	a0,32(sp)
    800021aa:	a009                	j	800021ac <.LBB6_88+0x46>
    800021ac:	7582                	ld	a1,32(sp)
    800021ae:	1e08                	addi	a0,sp,816
    800021b0:	00001097          	auipc	ra,0x1
    800021b4:	e54080e7          	jalr	-428(ra) # 80003004 <_ZN85_$LT$r_freertos..kernel..tasks..tskTaskControlBlock$u20$as$u20$core..clone..Clone$GT$5clone17h0d20d1a843da6acdE>
    800021b8:	a009                	j	800021ba <.LBB6_88+0x54>
    800021ba:	6576                	ld	a0,344(sp)
    800021bc:	00002097          	auipc	ra,0x2
    800021c0:	e38080e7          	jalr	-456(ra) # 80003ff4 <_ZN69_$LT$alloc..sync..Arc$LT$T$GT$$u20$as$u20$core..ops..deref..Deref$GT$5deref17h5cd65089f56f330bE>
    800021c4:	ec2a                	sd	a0,24(sp)
    800021c6:	a009                	j	800021c8 <.LBB6_88+0x62>
    800021c8:	6562                	ld	a0,24(sp)
    800021ca:	00008097          	auipc	ra,0x8
    800021ce:	6ba080e7          	jalr	1722(ra) # 8000a884 <_ZN4spin7rw_lock15RwLock$LT$T$GT$5write17h40aa27e15096be3cE>
    800021d2:	3aa13023          	sd	a0,928(sp)
    800021d6:	3ab13423          	sd	a1,936(sp)
    800021da:	a009                	j	800021dc <.LBB6_88+0x76>
    800021dc:	1708                	addi	a0,sp,928
    800021de:	00009097          	auipc	ra,0x9
    800021e2:	a48080e7          	jalr	-1464(ra) # 8000ac26 <_ZN87_$LT$spin..rw_lock..RwLockWriteGuard$LT$T$GT$$u20$as$u20$core..ops..deref..DerefMut$GT$9deref_mut17h4025cb1e60118155E>
    800021e6:	e82a                	sd	a0,16(sp)
    800021e8:	a009                	j	800021ea <.LBB6_88+0x84>
    800021ea:	6542                	ld	a0,16(sp)
    800021ec:	00005097          	auipc	ra,0x5
    800021f0:	f8e080e7          	jalr	-114(ra) # 8000717a <_ZN4core3ptr67drop_in_place$LT$r_freertos..kernel..tasks..tskTaskControlBlock$GT$17h2167d4df5ddf75e9E>
    800021f4:	a009                	j	800021f6 <.LBB6_88+0x90>
    800021f6:	6542                	ld	a0,16(sp)
    800021f8:	1e0c                	addi	a1,sp,816
    800021fa:	06000613          	li	a2,96
    800021fe:	0000b097          	auipc	ra,0xb
    80002202:	b5e080e7          	jalr	-1186(ra) # 8000cd5c <memcpy>
    80002206:	1708                	addi	a0,sp,928
    80002208:	00005097          	auipc	ra,0x5
    8000220c:	cec080e7          	jalr	-788(ra) # 80006ef4 <_ZN4core3ptr106drop_in_place$LT$spin..rw_lock..RwLockWriteGuard$LT$r_freertos..kernel..tasks..tskTaskControlBlock$GT$$GT$17hd69fd8d3e331a0beE>
    80002210:	a009                	j	80002212 <.LBB6_88+0xac>
    80002212:	0f08                	addi	a0,sp,912
    80002214:	00005097          	auipc	ra,0x5
    80002218:	ce0080e7          	jalr	-800(ra) # 80006ef4 <_ZN4core3ptr106drop_in_place$LT$spin..rw_lock..RwLockWriteGuard$LT$r_freertos..kernel..tasks..tskTaskControlBlock$GT$$GT$17hd69fd8d3e331a0beE>
    8000221c:	a009                	j	8000221e <.LBB6_88+0xb8>
    pxNewTCB
    8000221e:	40013503          	ld	a0,1024(sp)
}
    80002222:	e42a                	sd	a0,8(sp)
    80002224:	1d08                	addi	a0,sp,688
    80002226:	00005097          	auipc	ra,0x5
    8000222a:	e96080e7          	jalr	-362(ra) # 800070bc <_ZN4core3ptr42drop_in_place$LT$alloc..string..String$GT$17h0c7292bf57e9bc31E>
    8000222e:	a009                	j	80002230 <.LBB6_88+0xca>
    80002230:	1408                	addi	a0,sp,544
    80002232:	00005097          	auipc	ra,0x5
    80002236:	e8a080e7          	jalr	-374(ra) # 800070bc <_ZN4core3ptr42drop_in_place$LT$alloc..string..String$GT$17h0c7292bf57e9bc31E>
    8000223a:	a009                	j	8000223c <.LBB6_88+0xd6>
    8000223c:	6522                	ld	a0,8(sp)
    8000223e:	3f813083          	ld	ra,1016(sp)
    80002242:	40010113          	addi	sp,sp,1024
    80002246:	8082                	ret

0000000080002248 <_ZN10r_freertos6kernel5tasks11prvIdleTask17h523a64dfebdb9ad5E>:

/// idle task function
pub fn prvIdleTask(t: *mut c_void) {
    80002248:	1141                	addi	sp,sp,-16
    8000224a:	e406                	sd	ra,8(sp)
    8000224c:	e02a                	sd	a0,0(sp)

000000008000224e <.LBB7_2>:
    vSendString("idle gogogogo");
    8000224e:	0000b517          	auipc	a0,0xb
    80002252:	1e650513          	addi	a0,a0,486 # 8000d434 <.L__unnamed_17>
    80002256:	45b5                	li	a1,13
    80002258:	00003097          	auipc	ra,0x3
    8000225c:	d46080e7          	jalr	-698(ra) # 80004f9e <_ZN10r_freertos6kernel10riscv_virt11vSendString17had8a656d0cb47196E>
    80002260:	a009                	j	80002262 <.LBB7_3>

0000000080002262 <.LBB7_3>:
             * without the overhead of a separate task.
             * NOTE: vApplicationIdleHook() MUST NOT, UNDER ANY CIRCUMSTANCES,
             * CALL A FUNCTION THAT MIGHT BLOCK. */
            vApplicationIdleHook();
        } /* configUSE_IDLE_HOOK */
        vSendString("idle gogogogo!!!(in loop)");
    80002262:	0000b517          	auipc	a0,0xb
    80002266:	1df50513          	addi	a0,a0,479 # 8000d441 <.L__unnamed_18>
    8000226a:	45e5                	li	a1,25
    8000226c:	00003097          	auipc	ra,0x3
    80002270:	d32080e7          	jalr	-718(ra) # 80004f9e <_ZN10r_freertos6kernel10riscv_virt11vSendString17had8a656d0cb47196E>
    80002274:	b7fd                	j	80002262 <.LBB7_3>

0000000080002276 <vTaskStartScheduler>:
    }
}

/// start scheduler
#[no_mangle]
pub extern "C" fn vTaskStartScheduler() {
    80002276:	7151                	addi	sp,sp,-240
    unsafe {
        XSCHEDULERRUNNING = pdTRUE;
    80002278:	f586                	sd	ra,232(sp)

000000008000227a <.LBB8_21>:
    8000227a:	01ffe597          	auipc	a1,0x1ffe
    8000227e:	0ee58593          	addi	a1,a1,238 # 82000368 <_ZN10r_freertos6kernel5tasks17XSCHEDULERRUNNING17h1ede12874a4f8eeaE>
    80002282:	4505                	li	a0,1
    80002284:	e188                	sd	a0,0(a1)
    80002286:	4501                	li	a0,0
    }
    if cfg!(feature = "configSUPPORT_STATIC_ALLOCATION") {
        let param: Param_link = 0;
    80002288:	e9aa                	sd	a0,208(sp)
    8000228a:	4521                	li	a0,8
        let size_:usize=size_of::<usize>();
    8000228c:	edaa                	sd	a0,216(sp)
    8000228e:	a009                	j	80002290 <.LBB8_22>

0000000080002290 <.LBB8_22>:
        let stack2ptr: StackType_t_link = &*IDLE_STACK as *const [usize; USER_STACK_SIZE]
    80002290:	0000c517          	auipc	a0,0xc
    80002294:	37350513          	addi	a0,a0,883 # 8000e603 <.L__unnamed_6>
    80002298:	00006097          	auipc	ra,0x6
    8000229c:	a12080e7          	jalr	-1518(ra) # 80007caa <_ZN82_$LT$r_freertos..kernel..kernel..IDLE_STACK$u20$as$u20$core..ops..deref..Deref$GT$5deref17hc76c967f42e4cef7E>
    800022a0:	f0aa                	sd	a0,96(sp)
    800022a2:	a009                	j	800022a4 <.LBB8_22+0x14>
    800022a4:	7506                	ld	a0,96(sp)
    800022a6:	e8aa                	sd	a0,80(sp)
    800022a8:	00080537          	lui	a0,0x80
    800022ac:	ecaa                	sd	a0,88(sp)
    800022ae:	4501                	li	a0,0
            as *const usize as usize
            + USER_STACK_SIZE * size_
    800022b0:	00a51a63          	bne	a0,a0,800022c4 <.LBB8_23>
    800022b4:	a009                	j	800022b6 <.LBB8_22+0x26>
        let stack2ptr: StackType_t_link = &*IDLE_STACK as *const [usize; USER_STACK_SIZE]
    800022b6:	65c6                	ld	a1,80(sp)
    800022b8:	6566                	ld	a0,88(sp)
    800022ba:	952e                	add	a0,a0,a1
    800022bc:	e4aa                	sd	a0,72(sp)
    800022be:	02b56963          	bltu	a0,a1,800022f0 <.LBB8_25>
    800022c2:	a005                	j	800022e2 <.LBB8_24+0x16>

00000000800022c4 <.LBB8_23>:
            + USER_STACK_SIZE * size_
    800022c4:	0000b517          	auipc	a0,0xb
    800022c8:	1bc50513          	addi	a0,a0,444 # 8000d480 <str.1>

00000000800022cc <.LBB8_24>:
    800022cc:	0000b617          	auipc	a2,0xb
    800022d0:	19460613          	addi	a2,a2,404 # 8000d460 <.L__unnamed_19>
    800022d4:	02100593          	li	a1,33
    800022d8:	ffffe097          	auipc	ra,0xffffe
    800022dc:	e3e080e7          	jalr	-450(ra) # 80000116 <_ZN4core9panicking5panic17h7cbb7101b8ec6f33E>
    800022e0:	0000                	unimp
        let stack2ptr: StackType_t_link = &*IDLE_STACK as *const [usize; USER_STACK_SIZE]
    800022e2:	6526                	ld	a0,72(sp)
    800022e4:	ff850593          	addi	a1,a0,-8
    800022e8:	e0ae                	sd	a1,64(sp)
    800022ea:	04b56363          	bltu	a0,a1,80002330 <.LBB8_28>
    800022ee:	a839                	j	8000230c <.LBB8_26+0x14>

00000000800022f0 <.LBB8_25>:
    800022f0:	0000b517          	auipc	a0,0xb
    800022f4:	1d050513          	addi	a0,a0,464 # 8000d4c0 <str.2>

00000000800022f8 <.LBB8_26>:
    800022f8:	0000b617          	auipc	a2,0xb
    800022fc:	1b060613          	addi	a2,a2,432 # 8000d4a8 <.L__unnamed_20>
    80002300:	45f1                	li	a1,28
    80002302:	ffffe097          	auipc	ra,0xffffe
    80002306:	e14080e7          	jalr	-492(ra) # 80000116 <_ZN4core9panicking5panic17h7cbb7101b8ec6f33E>
    8000230a:	0000                	unimp
    8000230c:	6586                	ld	a1,64(sp)
    8000230e:	f1ae                	sd	a1,224(sp)
    80002310:	4501                	li	a0,0
            - size_;
        xTaskCreateStatic(
            prvIdleTask as usize,
            "idle",
            USER_STACK_SIZE as u32,
            Some(param),
    80002312:	fcaa                	sd	a0,120(sp)
    80002314:	4505                	li	a0,1
    80002316:	f8aa                	sd	a0,112(sp)
            Some(stack2ptr),
    80002318:	e52e                	sd	a1,136(sp)
    8000231a:	e12a                	sd	a0,128(sp)

000000008000231c <.LBB8_27>:
            Some(IDLE_p.clone()),
    8000231c:	0000c517          	auipc	a0,0xc
    80002320:	2e750513          	addi	a0,a0,743 # 8000e603 <.L__unnamed_6>
    80002324:	00006097          	auipc	ra,0x6
    80002328:	9aa080e7          	jalr	-1622(ra) # 80007cce <_ZN78_$LT$r_freertos..kernel..kernel..IDLE_p$u20$as$u20$core..ops..deref..Deref$GT$5deref17h0e3dc236cbfa6cb1E>
    8000232c:	fc2a                	sd	a0,56(sp)
    8000232e:	a005                	j	8000234e <.LBB8_29+0x16>

0000000080002330 <.LBB8_28>:
        let stack2ptr: StackType_t_link = &*IDLE_STACK as *const [usize; USER_STACK_SIZE]
    80002330:	0000b517          	auipc	a0,0xb
    80002334:	0b050513          	addi	a0,a0,176 # 8000d3e0 <str.0>

0000000080002338 <.LBB8_29>:
    80002338:	0000b617          	auipc	a2,0xb
    8000233c:	17060613          	addi	a2,a2,368 # 8000d4a8 <.L__unnamed_20>
    80002340:	02100593          	li	a1,33
    80002344:	ffffe097          	auipc	ra,0xffffe
    80002348:	dd2080e7          	jalr	-558(ra) # 80000116 <_ZN4core9panicking5panic17h7cbb7101b8ec6f33E>
    8000234c:	0000                	unimp
            Some(IDLE_p.clone()),
    8000234e:	7562                	ld	a0,56(sp)
    80002350:	00002097          	auipc	ra,0x2
    80002354:	a56080e7          	jalr	-1450(ra) # 80003da6 <_ZN64_$LT$alloc..sync..Arc$LT$T$GT$$u20$as$u20$core..clone..Clone$GT$5clone17hbb68cae9d40ac3d7E>
    80002358:	f82a                	sd	a0,48(sp)
    8000235a:	a009                	j	8000235c <.LBB8_29+0x24>
    8000235c:	7542                	ld	a0,48(sp)
    8000235e:	e92a                	sd	a0,144(sp)
        xTaskCreateStatic(
    80002360:	7746                	ld	a4,112(sp)
    80002362:	77e6                	ld	a5,120(sp)
    80002364:	680a                	ld	a6,128(sp)
    80002366:	68aa                	ld	a7,136(sp)
    80002368:	858a                	mv	a1,sp
    8000236a:	4601                	li	a2,0
    8000236c:	e590                	sd	a2,8(a1)
    8000236e:	e188                	sd	a0,0(a1)

0000000080002370 <.LBB8_30>:
    80002370:	00000517          	auipc	a0,0x0
    80002374:	ed850513          	addi	a0,a0,-296 # 80002248 <_ZN10r_freertos6kernel5tasks11prvIdleTask17h523a64dfebdb9ad5E>

0000000080002378 <.LBB8_31>:
    80002378:	0000b597          	auipc	a1,0xb
    8000237c:	16c58593          	addi	a1,a1,364 # 8000d4e4 <str.2+0x24>
    80002380:	4611                	li	a2,4
    80002382:	66c1                	lui	a3,0x10
    80002384:	fffff097          	auipc	ra,0xfffff
    80002388:	470080e7          	jalr	1136(ra) # 800017f4 <_ZN10r_freertos6kernel5tasks17xTaskCreateStatic17h417a55cb88ec9118E>
    8000238c:	f4aa                	sd	a0,104(sp)
    8000238e:	a009                	j	80002390 <.LBB8_31+0x18>
    80002390:	10a8                	addi	a0,sp,104
            0,
        );
    80002392:	00005097          	auipc	ra,0x5
    80002396:	c9e080e7          	jalr	-866(ra) # 80007030 <_ZN4core3ptr148drop_in_place$LT$core..option..Option$LT$alloc..sync..Arc$LT$spin..rw_lock..RwLock$LT$r_freertos..kernel..tasks..tskTaskControlBlock$GT$$GT$$GT$$GT$17ha415b9ef17e1d5c2E>
    8000239a:	a009                	j	8000239c <.LBB8_32>

000000008000239c <.LBB8_32>:
    }
    set_current_tcb(Some(Arc::downgrade(&IDLE_p)));
    8000239c:	0000c517          	auipc	a0,0xc
    800023a0:	26750513          	addi	a0,a0,615 # 8000e603 <.L__unnamed_6>
    800023a4:	00006097          	auipc	ra,0x6
    800023a8:	92a080e7          	jalr	-1750(ra) # 80007cce <_ZN78_$LT$r_freertos..kernel..kernel..IDLE_p$u20$as$u20$core..ops..deref..Deref$GT$5deref17h0e3dc236cbfa6cb1E>
    800023ac:	f42a                	sd	a0,40(sp)
    800023ae:	a009                	j	800023b0 <.LBB8_32+0x14>
    800023b0:	7522                	ld	a0,40(sp)
    800023b2:	00001097          	auipc	ra,0x1
    800023b6:	242080e7          	jalr	578(ra) # 800035f4 <_ZN5alloc4sync12Arc$LT$T$GT$9downgrade17h08f336e22644d765E>
    800023ba:	f02a                	sd	a0,32(sp)
    800023bc:	a009                	j	800023be <.LBB8_32+0x22>
    800023be:	7502                	ld	a0,32(sp)
    800023c0:	ed2a                	sd	a0,152(sp)
    800023c2:	00002097          	auipc	ra,0x2
    800023c6:	f32080e7          	jalr	-206(ra) # 800042f4 <_ZN10r_freertos6kernel8portable15set_current_tcb17he256d47b20ab182dE>
    800023ca:	a009                	j	800023cc <.LBB8_33>

00000000800023cc <.LBB8_33>:
    print("set tcb success");
    800023cc:	0000b517          	auipc	a0,0xb
    800023d0:	11c50513          	addi	a0,a0,284 # 8000d4e8 <.L__unnamed_22>
    800023d4:	45bd                	li	a1,15
    800023d6:	00003097          	auipc	ra,0x3
    800023da:	b38080e7          	jalr	-1224(ra) # 80004f0e <_ZN10r_freertos6kernel10riscv_virt5print17hf8c77654b83d2d4eE>
    800023de:	a009                	j	800023e0 <.LBB8_33+0x14>
    if x_port_start_scheduler() != pdFALSE {
    800023e0:	00002097          	auipc	ra,0x2
    800023e4:	e98080e7          	jalr	-360(ra) # 80004278 <_ZN10r_freertos6kernel8portable22x_port_start_scheduler17h5acd3f8df29434b5E>
    800023e8:	ec2a                	sd	a0,24(sp)
    800023ea:	a009                	j	800023ec <.LBB8_33+0x20>
    800023ec:	6562                	ld	a0,24(sp)
    800023ee:	4581                	li	a1,0
    800023f0:	00b51663          	bne	a0,a1,800023fc <.LBB8_34>
    800023f4:	a009                	j	800023f6 <.LBB8_33+0x2a>
        panic!("error scheduler!!!!!!");
    }
}
    800023f6:	70ae                	ld	ra,232(sp)
    800023f8:	616d                	addi	sp,sp,240
    800023fa:	8082                	ret

00000000800023fc <.LBB8_34>:
        panic!("error scheduler!!!!!!");
    800023fc:	0000b597          	auipc	a1,0xb
    80002400:	11458593          	addi	a1,a1,276 # 8000d510 <.L__unnamed_23>

0000000080002404 <.LBB8_35>:
    80002404:	0000b697          	auipc	a3,0xb
    80002408:	11c68693          	addi	a3,a3,284 # 8000d520 <.L__unnamed_25>
    8000240c:	1108                	addi	a0,sp,160
    8000240e:	4605                	li	a2,1
    80002410:	4701                	li	a4,0
    80002412:	ffffe097          	auipc	ra,0xffffe
    80002416:	172080e7          	jalr	370(ra) # 80000584 <_ZN4core3fmt9Arguments6new_v117hb9c4816a17cef4b5E>
    8000241a:	a009                	j	8000241c <.LBB8_36>

