
target/riscv64gc-unknown-none-elf/debug/bare_freertos:     file format elf64-littleriscv


Disassembly of section .start:

0000000040000000 <_start>:
#define    EN_THEADISAEE    (0x1 << 22)

.globl _start
_start:
    /*disable interrupt*/
    csrrci x0, mstatus, 0x8
    40000000:	30047073          	csrci	mstatus,8
    csrw mie, zero
    40000004:	30401073          	csrw	mie,zero

#ifndef  RISCV64_QEMU
    /*enable theadisaee*/
    li t1, EN_THEADISAEE
    40000008:	00400337          	lui	t1,0x400
    csrs mxstatus, t1
    4000000c:	7c032073          	csrs	mxstatus,t1

    /*invaild ICACHE/DCACHE/BTB/BHT*/
    li t2, 0x30013
    40000010:	000303b7          	lui	t2,0x30
    40000014:	23cd                	addiw	t2,t2,19
    csrs mcor, t2
    40000016:	7c23a073          	csrs	mcor,t2
#endif

    la sp, __stack_end
    4000001a:	00a14117          	auipc	sp,0xa14
    4000001e:	36610113          	addi	sp,sp,870 # 40a14380 <__stack_end>
    jal clear_bss
    40000022:	00e000ef          	jal	ra,40000030 <clear_bss>
    # jal  main_c
    jal kernel_init
    40000026:	72b020ef          	jal	ra,40002f50 <kernel_init>
    jal main_rust
    4000002a:	479080ef          	jal	ra,40008ca2 <main_rust>
    j .
    4000002e:	a001                	j	4000002e <_start+0x2e>

0000000040000030 <clear_bss>:

clear_bss:
    la    t0, __bss_start
    40000030:	00010297          	auipc	t0,0x10
    40000034:	09828293          	addi	t0,t0,152 # 400100c8 <_ZN13bare_freertos6kernel8portable13pxCurrentTCB_17hf8e7b243035c95b7E>
    la    t1, __bss_end
    40000038:	00614317          	auipc	t1,0x614
    4000003c:	34030313          	addi	t1,t1,832 # 40614378 <__bss_end>

0000000040000040 <clbss_1>:

clbss_1:
    sw zero, 0(t0)
    40000040:	0002a023          	sw	zero,0(t0)
    addi t0, t0, REGBYTES
    40000044:	0291                	addi	t0,t0,4
    blt t0, t1, clbss_1
    40000046:	fe62cde3          	blt	t0,t1,40000040 <clbss_1>
    ret
    4000004a:	8082                	ret

Disassembly of section .text:

0000000040000050 <_ZN4core4sync6atomic11AtomicUsize16compare_and_swap17hc8a56158507e3b62E>:
    40000050:	7119                	addi	sp,sp,-128
    40000052:	fc86                	sd	ra,120(sp)
    40000054:	e836                	sd	a3,16(sp)
    40000056:	e032                	sd	a2,0(sp)
    40000058:	e42e                	sd	a1,8(sp)
    4000005a:	86aa                	mv	a3,a0
    4000005c:	6542                	ld	a0,16(sp)
    4000005e:	ec36                	sd	a3,24(sp)
    40000060:	872a                	mv	a4,a0
    40000062:	f03a                	sd	a4,32(sp)
    40000064:	e4b6                	sd	a3,72(sp)
    40000066:	e8ae                	sd	a1,80(sp)
    40000068:	ecb2                	sd	a2,88(sp)
    4000006a:	06a103a3          	sb	a0,103(sp)
    4000006e:	00000097          	auipc	ra,0x0
    40000072:	200080e7          	jalr	512(ra) # 4000026e <_ZN4core4sync6atomic26strongest_failure_ordering17h393b3e9850ea43ccE>
    40000076:	0ff57513          	andi	a0,a0,255
    4000007a:	f42a                	sd	a0,40(sp)
    4000007c:	a009                	j	4000007e <_ZN4core4sync6atomic11AtomicUsize16compare_and_swap17hc8a56158507e3b62E+0x2e>
    4000007e:	7722                	ld	a4,40(sp)
    40000080:	7682                	ld	a3,32(sp)
    40000082:	6602                	ld	a2,0(sp)
    40000084:	65a2                	ld	a1,8(sp)
    40000086:	6562                	ld	a0,24(sp)
    40000088:	00000097          	auipc	ra,0x0
    4000008c:	034080e7          	jalr	52(ra) # 400000bc <_ZN4core4sync6atomic11AtomicUsize16compare_exchange17h45b9ff0aca897a3fE>
    40000090:	fc2a                	sd	a0,56(sp)
    40000092:	e0ae                	sd	a1,64(sp)
    40000094:	a009                	j	40000096 <_ZN4core4sync6atomic11AtomicUsize16compare_and_swap17hc8a56158507e3b62E+0x46>
    40000096:	7562                	ld	a0,56(sp)
    40000098:	4581                	li	a1,0
    4000009a:	00b50563          	beq	a0,a1,400000a4 <_ZN4core4sync6atomic11AtomicUsize16compare_and_swap17hc8a56158507e3b62E+0x54>
    4000009e:	a009                	j	400000a0 <_ZN4core4sync6atomic11AtomicUsize16compare_and_swap17hc8a56158507e3b62E+0x50>
    400000a0:	a031                	j	400000ac <_ZN4core4sync6atomic11AtomicUsize16compare_and_swap17hc8a56158507e3b62E+0x5c>
    400000a2:	0000                	unimp
    400000a4:	6506                	ld	a0,64(sp)
    400000a6:	f8aa                	sd	a0,112(sp)
    400000a8:	f82a                	sd	a0,48(sp)
    400000aa:	a029                	j	400000b4 <_ZN4core4sync6atomic11AtomicUsize16compare_and_swap17hc8a56158507e3b62E+0x64>
    400000ac:	6506                	ld	a0,64(sp)
    400000ae:	f4aa                	sd	a0,104(sp)
    400000b0:	f82a                	sd	a0,48(sp)
    400000b2:	a009                	j	400000b4 <_ZN4core4sync6atomic11AtomicUsize16compare_and_swap17hc8a56158507e3b62E+0x64>
    400000b4:	7542                	ld	a0,48(sp)
    400000b6:	70e6                	ld	ra,120(sp)
    400000b8:	6109                	addi	sp,sp,128
    400000ba:	8082                	ret

00000000400000bc <_ZN4core4sync6atomic11AtomicUsize16compare_exchange17h45b9ff0aca897a3fE>:
    400000bc:	7159                	addi	sp,sp,-112
    400000be:	f486                	sd	ra,104(sp)
    400000c0:	ec32                	sd	a2,24(sp)
    400000c2:	f02e                	sd	a1,32(sp)
    400000c4:	87ba                	mv	a5,a4
    400000c6:	f43e                	sd	a5,40(sp)
    400000c8:	87b6                	mv	a5,a3
    400000ca:	f83e                	sd	a5,48(sp)
    400000cc:	e0aa                	sd	a0,64(sp)
    400000ce:	e4ae                	sd	a1,72(sp)
    400000d0:	e8b2                	sd	a2,80(sp)
    400000d2:	04d10f23          	sb	a3,94(sp)
    400000d6:	04e10fa3          	sb	a4,95(sp)
    400000da:	85aa                	mv	a1,a0
    400000dc:	fc2e                	sd	a1,56(sp)
    400000de:	f0aa                	sd	a0,96(sp)
    400000e0:	a009                	j	400000e2 <_ZN4core4sync6atomic11AtomicUsize16compare_exchange17h45b9ff0aca897a3fE+0x26>
    400000e2:	7722                	ld	a4,40(sp)
    400000e4:	76c2                	ld	a3,48(sp)
    400000e6:	6662                	ld	a2,24(sp)
    400000e8:	7582                	ld	a1,32(sp)
    400000ea:	7562                	ld	a0,56(sp)
    400000ec:	00008097          	auipc	ra,0x8
    400000f0:	4d0080e7          	jalr	1232(ra) # 400085bc <_ZN4core4sync6atomic23atomic_compare_exchange17h15175fbe3ecf057aE>
    400000f4:	e42a                	sd	a0,8(sp)
    400000f6:	e82e                	sd	a1,16(sp)
    400000f8:	a009                	j	400000fa <_ZN4core4sync6atomic11AtomicUsize16compare_exchange17h45b9ff0aca897a3fE+0x3e>
    400000fa:	65c2                	ld	a1,16(sp)
    400000fc:	6522                	ld	a0,8(sp)
    400000fe:	70a6                	ld	ra,104(sp)
    40000100:	6165                	addi	sp,sp,112
    40000102:	8082                	ret

0000000040000104 <_ZN4core4sync6atomic11AtomicUsize21compare_exchange_weak17hbb5a74d0adc7a34cE>:
    40000104:	7159                	addi	sp,sp,-112
    40000106:	f486                	sd	ra,104(sp)
    40000108:	ec32                	sd	a2,24(sp)
    4000010a:	f02e                	sd	a1,32(sp)
    4000010c:	87ba                	mv	a5,a4
    4000010e:	f43e                	sd	a5,40(sp)
    40000110:	87b6                	mv	a5,a3
    40000112:	f83e                	sd	a5,48(sp)
    40000114:	e0aa                	sd	a0,64(sp)
    40000116:	e4ae                	sd	a1,72(sp)
    40000118:	e8b2                	sd	a2,80(sp)
    4000011a:	04d10f23          	sb	a3,94(sp)
    4000011e:	04e10fa3          	sb	a4,95(sp)
    40000122:	85aa                	mv	a1,a0
    40000124:	fc2e                	sd	a1,56(sp)
    40000126:	f0aa                	sd	a0,96(sp)
    40000128:	a009                	j	4000012a <_ZN4core4sync6atomic11AtomicUsize21compare_exchange_weak17hbb5a74d0adc7a34cE+0x26>
    4000012a:	7722                	ld	a4,40(sp)
    4000012c:	76c2                	ld	a3,48(sp)
    4000012e:	6662                	ld	a2,24(sp)
    40000130:	7582                	ld	a1,32(sp)
    40000132:	7562                	ld	a0,56(sp)
    40000134:	00008097          	auipc	ra,0x8
    40000138:	75c080e7          	jalr	1884(ra) # 40008890 <_ZN4core4sync6atomic28atomic_compare_exchange_weak17h4ae73f6023d9aa35E>
    4000013c:	e42a                	sd	a0,8(sp)
    4000013e:	e82e                	sd	a1,16(sp)
    40000140:	a009                	j	40000142 <_ZN4core4sync6atomic11AtomicUsize21compare_exchange_weak17hbb5a74d0adc7a34cE+0x3e>
    40000142:	65c2                	ld	a1,16(sp)
    40000144:	6522                	ld	a0,8(sp)
    40000146:	70a6                	ld	ra,104(sp)
    40000148:	6165                	addi	sp,sp,112
    4000014a:	8082                	ret

000000004000014c <_ZN4core4sync6atomic11AtomicUsize3new17h349a293f188f093cE>:
    4000014c:	7179                	addi	sp,sp,-48
    4000014e:	ec2a                	sd	a0,24(sp)
    40000150:	f42a                	sd	a0,40(sp)
    40000152:	f02a                	sd	a0,32(sp)
    40000154:	e42a                	sd	a0,8(sp)
    40000156:	a009                	j	40000158 <_ZN4core4sync6atomic11AtomicUsize3new17h349a293f188f093cE+0xc>
    40000158:	6522                	ld	a0,8(sp)
    4000015a:	e82a                	sd	a0,16(sp)
    4000015c:	6145                	addi	sp,sp,48
    4000015e:	8082                	ret

0000000040000160 <_ZN4core4sync6atomic11AtomicUsize4load17h67a5aebe396ba4fbE>:
    40000160:	7139                	addi	sp,sp,-64
    40000162:	fc06                	sd	ra,56(sp)
    40000164:	862e                	mv	a2,a1
    40000166:	e832                	sd	a2,16(sp)
    40000168:	f02a                	sd	a0,32(sp)
    4000016a:	02b107a3          	sb	a1,47(sp)
    4000016e:	85aa                	mv	a1,a0
    40000170:	ec2e                	sd	a1,24(sp)
    40000172:	f82a                	sd	a0,48(sp)
    40000174:	a009                	j	40000176 <_ZN4core4sync6atomic11AtomicUsize4load17h67a5aebe396ba4fbE+0x16>
    40000176:	65c2                	ld	a1,16(sp)
    40000178:	6562                	ld	a0,24(sp)
    4000017a:	0000c097          	auipc	ra,0xc
    4000017e:	eb2080e7          	jalr	-334(ra) # 4000c02c <_ZN4core4sync6atomic11atomic_load17hccb9333b8623df84E>
    40000182:	e42a                	sd	a0,8(sp)
    40000184:	a009                	j	40000186 <_ZN4core4sync6atomic11AtomicUsize4load17h67a5aebe396ba4fbE+0x26>
    40000186:	6522                	ld	a0,8(sp)
    40000188:	70e2                	ld	ra,56(sp)
    4000018a:	6121                	addi	sp,sp,64
    4000018c:	8082                	ret

000000004000018e <_ZN4core4sync6atomic11AtomicUsize5store17h0b5f22ce63624f0fE>:
    4000018e:	7139                	addi	sp,sp,-64
    40000190:	fc06                	sd	ra,56(sp)
    40000192:	e02e                	sd	a1,0(sp)
    40000194:	86b2                	mv	a3,a2
    40000196:	e436                	sd	a3,8(sp)
    40000198:	ec2a                	sd	a0,24(sp)
    4000019a:	f02e                	sd	a1,32(sp)
    4000019c:	02c107a3          	sb	a2,47(sp)
    400001a0:	85aa                	mv	a1,a0
    400001a2:	e82e                	sd	a1,16(sp)
    400001a4:	f82a                	sd	a0,48(sp)
    400001a6:	a009                	j	400001a8 <_ZN4core4sync6atomic11AtomicUsize5store17h0b5f22ce63624f0fE+0x1a>
    400001a8:	6622                	ld	a2,8(sp)
    400001aa:	6582                	ld	a1,0(sp)
    400001ac:	6542                	ld	a0,16(sp)
    400001ae:	0000c097          	auipc	ra,0xc
    400001b2:	f3e080e7          	jalr	-194(ra) # 4000c0ec <_ZN4core4sync6atomic12atomic_store17h35591efab4b2b9edE>
    400001b6:	a009                	j	400001b8 <_ZN4core4sync6atomic11AtomicUsize5store17h0b5f22ce63624f0fE+0x2a>
    400001b8:	70e2                	ld	ra,56(sp)
    400001ba:	6121                	addi	sp,sp,64
    400001bc:	8082                	ret

00000000400001be <_ZN4core4sync6atomic11AtomicUsize9fetch_add17h2a579f006298460dE>:
    400001be:	715d                	addi	sp,sp,-80
    400001c0:	e486                	sd	ra,72(sp)
    400001c2:	e82e                	sd	a1,16(sp)
    400001c4:	86b2                	mv	a3,a2
    400001c6:	ec36                	sd	a3,24(sp)
    400001c8:	f42a                	sd	a0,40(sp)
    400001ca:	f82e                	sd	a1,48(sp)
    400001cc:	02c10fa3          	sb	a2,63(sp)
    400001d0:	85aa                	mv	a1,a0
    400001d2:	f02e                	sd	a1,32(sp)
    400001d4:	e0aa                	sd	a0,64(sp)
    400001d6:	a009                	j	400001d8 <_ZN4core4sync6atomic11AtomicUsize9fetch_add17h2a579f006298460dE+0x1a>
    400001d8:	6662                	ld	a2,24(sp)
    400001da:	65c2                	ld	a1,16(sp)
    400001dc:	7502                	ld	a0,32(sp)
    400001de:	0000c097          	auipc	ra,0xc
    400001e2:	dda080e7          	jalr	-550(ra) # 4000bfb8 <_ZN4core4sync6atomic10atomic_add17hdf8380b4250fc4baE>
    400001e6:	e42a                	sd	a0,8(sp)
    400001e8:	a009                	j	400001ea <_ZN4core4sync6atomic11AtomicUsize9fetch_add17h2a579f006298460dE+0x2c>
    400001ea:	6522                	ld	a0,8(sp)
    400001ec:	60a6                	ld	ra,72(sp)
    400001ee:	6161                	addi	sp,sp,80
    400001f0:	8082                	ret

00000000400001f2 <_ZN4core4sync6atomic11AtomicUsize9fetch_and17hebf024f45e33cabbE>:
    400001f2:	715d                	addi	sp,sp,-80
    400001f4:	e486                	sd	ra,72(sp)
    400001f6:	e82e                	sd	a1,16(sp)
    400001f8:	86b2                	mv	a3,a2
    400001fa:	ec36                	sd	a3,24(sp)
    400001fc:	f42a                	sd	a0,40(sp)
    400001fe:	f82e                	sd	a1,48(sp)
    40000200:	02c10fa3          	sb	a2,63(sp)
    40000204:	85aa                	mv	a1,a0
    40000206:	f02e                	sd	a1,32(sp)
    40000208:	e0aa                	sd	a0,64(sp)
    4000020a:	a009                	j	4000020c <_ZN4core4sync6atomic11AtomicUsize9fetch_and17hebf024f45e33cabbE+0x1a>
    4000020c:	6662                	ld	a2,24(sp)
    4000020e:	65c2                	ld	a1,16(sp)
    40000210:	7502                	ld	a0,32(sp)
    40000212:	00008097          	auipc	ra,0x8
    40000216:	2ae080e7          	jalr	686(ra) # 400084c0 <_ZN4core4sync6atomic10atomic_and17h5de5f3f753a71148E>
    4000021a:	e42a                	sd	a0,8(sp)
    4000021c:	a009                	j	4000021e <_ZN4core4sync6atomic11AtomicUsize9fetch_and17hebf024f45e33cabbE+0x2c>
    4000021e:	6522                	ld	a0,8(sp)
    40000220:	60a6                	ld	ra,72(sp)
    40000222:	6161                	addi	sp,sp,80
    40000224:	8082                	ret

0000000040000226 <_ZN4core4sync6atomic11AtomicUsize9fetch_sub17h51d30d5f8647b71dE>:
    40000226:	715d                	addi	sp,sp,-80
    40000228:	e486                	sd	ra,72(sp)
    4000022a:	e82e                	sd	a1,16(sp)
    4000022c:	86b2                	mv	a3,a2
    4000022e:	ec36                	sd	a3,24(sp)
    40000230:	f42a                	sd	a0,40(sp)
    40000232:	f82e                	sd	a1,48(sp)
    40000234:	02c10fa3          	sb	a2,63(sp)
    40000238:	85aa                	mv	a1,a0
    4000023a:	f02e                	sd	a1,32(sp)
    4000023c:	e0aa                	sd	a0,64(sp)
    4000023e:	a009                	j	40000240 <_ZN4core4sync6atomic11AtomicUsize9fetch_sub17h51d30d5f8647b71dE+0x1a>
    40000240:	6662                	ld	a2,24(sp)
    40000242:	65c2                	ld	a1,16(sp)
    40000244:	7502                	ld	a0,32(sp)
    40000246:	00008097          	auipc	ra,0x8
    4000024a:	2ee080e7          	jalr	750(ra) # 40008534 <_ZN4core4sync6atomic10atomic_sub17h80a6d408d3500ae8E>
    4000024e:	e42a                	sd	a0,8(sp)
    40000250:	a009                	j	40000252 <_ZN4core4sync6atomic11AtomicUsize9fetch_sub17h51d30d5f8647b71dE+0x2c>
    40000252:	6522                	ld	a0,8(sp)
    40000254:	60a6                	ld	ra,72(sp)
    40000256:	6161                	addi	sp,sp,80
    40000258:	8082                	ret

000000004000025a <_ZN4core4sync6atomic14spin_loop_hint17h082d5da2cb0e7c33E>:
    4000025a:	1141                	addi	sp,sp,-16
    4000025c:	e406                	sd	ra,8(sp)
    4000025e:	00007097          	auipc	ra,0x7
    40000262:	85c080e7          	jalr	-1956(ra) # 40006aba <_ZN4core4hint9spin_loop17hba09d073062188a7E>
    40000266:	a009                	j	40000268 <_ZN4core4sync6atomic14spin_loop_hint17h082d5da2cb0e7c33E+0xe>
    40000268:	60a2                	ld	ra,8(sp)
    4000026a:	0141                	addi	sp,sp,16
    4000026c:	8082                	ret

000000004000026e <_ZN4core4sync6atomic26strongest_failure_ordering17h393b3e9850ea43ccE>:
    4000026e:	1141                	addi	sp,sp,-16
    40000270:	00a10723          	sb	a0,14(sp)
    40000274:	0ff57513          	andi	a0,a0,255
    40000278:	e02a                	sd	a0,0(sp)
    4000027a:	6502                	ld	a0,0(sp)
    4000027c:	050e                	slli	a0,a0,0x3
    4000027e:	0000d597          	auipc	a1,0xd
    40000282:	76258593          	addi	a1,a1,1890 # 4000d9e0 <all_interrupt_enable+0x8>
    40000286:	952e                	add	a0,a0,a1
    40000288:	6108                	ld	a0,0(a0)
    4000028a:	8502                	jr	a0
    4000028c:	0000                	unimp
    4000028e:	4501                	li	a0,0
    40000290:	00a107a3          	sb	a0,15(sp)
    40000294:	a00d                	j	400002b6 <_ZN4core4sync6atomic26strongest_failure_ordering17h393b3e9850ea43ccE+0x48>
    40000296:	4501                	li	a0,0
    40000298:	00a107a3          	sb	a0,15(sp)
    4000029c:	a829                	j	400002b6 <_ZN4core4sync6atomic26strongest_failure_ordering17h393b3e9850ea43ccE+0x48>
    4000029e:	4509                	li	a0,2
    400002a0:	00a107a3          	sb	a0,15(sp)
    400002a4:	a809                	j	400002b6 <_ZN4core4sync6atomic26strongest_failure_ordering17h393b3e9850ea43ccE+0x48>
    400002a6:	4509                	li	a0,2
    400002a8:	00a107a3          	sb	a0,15(sp)
    400002ac:	a029                	j	400002b6 <_ZN4core4sync6atomic26strongest_failure_ordering17h393b3e9850ea43ccE+0x48>
    400002ae:	4511                	li	a0,4
    400002b0:	00a107a3          	sb	a0,15(sp)
    400002b4:	a009                	j	400002b6 <_ZN4core4sync6atomic26strongest_failure_ordering17h393b3e9850ea43ccE+0x48>
    400002b6:	00f10503          	lb	a0,15(sp)
    400002ba:	0141                	addi	sp,sp,16
    400002bc:	8082                	ret

00000000400002be <_ZN4core4sync6atomic5fence17h29d2c91a512f5795E>:
    400002be:	715d                	addi	sp,sp,-80
    400002c0:	e486                	sd	ra,72(sp)
    400002c2:	00a10ba3          	sb	a0,23(sp)
    400002c6:	0ff57513          	andi	a0,a0,255
    400002ca:	e42a                	sd	a0,8(sp)
    400002cc:	6522                	ld	a0,8(sp)
    400002ce:	050e                	slli	a0,a0,0x3
    400002d0:	0000d597          	auipc	a1,0xd
    400002d4:	73858593          	addi	a1,a1,1848 # 4000da08 <all_interrupt_enable+0x30>
    400002d8:	952e                	add	a0,a0,a1
    400002da:	6108                	ld	a0,0(a0)
    400002dc:	8502                	jr	a0
    400002de:	0000                	unimp
    400002e0:	0000d597          	auipc	a1,0xd
    400002e4:	78058593          	addi	a1,a1,1920 # 4000da60 <all_interrupt_enable+0x88>
    400002e8:	0000d697          	auipc	a3,0xd
    400002ec:	78868693          	addi	a3,a3,1928 # 4000da70 <all_interrupt_enable+0x98>
    400002f0:	0828                	addi	a0,sp,24
    400002f2:	4605                	li	a2,1
    400002f4:	4701                	li	a4,0
    400002f6:	00008097          	auipc	ra,0x8
    400002fa:	f36080e7          	jalr	-202(ra) # 4000822c <_ZN4core3fmt9Arguments6new_v117h0e3c41f1d039dc5eE>
    400002fe:	a005                	j	4000031e <_ZN4core4sync6atomic5fence17h29d2c91a512f5795E+0x60>
    40000300:	0310000f          	fence	rw,w
    40000304:	a811                	j	40000318 <_ZN4core4sync6atomic5fence17h29d2c91a512f5795E+0x5a>
    40000306:	0230000f          	fence	r,rw
    4000030a:	a039                	j	40000318 <_ZN4core4sync6atomic5fence17h29d2c91a512f5795E+0x5a>
    4000030c:	8330000f          	fence.tso
    40000310:	a021                	j	40000318 <_ZN4core4sync6atomic5fence17h29d2c91a512f5795E+0x5a>
    40000312:	0330000f          	fence	rw,rw
    40000316:	a009                	j	40000318 <_ZN4core4sync6atomic5fence17h29d2c91a512f5795E+0x5a>
    40000318:	60a6                	ld	ra,72(sp)
    4000031a:	6161                	addi	sp,sp,80
    4000031c:	8082                	ret
    4000031e:	0000d597          	auipc	a1,0xd
    40000322:	7a258593          	addi	a1,a1,1954 # 4000dac0 <all_interrupt_enable+0xe8>
    40000326:	0828                	addi	a0,sp,24
    40000328:	0000c097          	auipc	ra,0xc
    4000032c:	6be080e7          	jalr	1726(ra) # 4000c9e6 <_ZN4core9panicking9panic_fmt17h12ba987da58f2e99E>
	...

0000000040000332 <_ZN4core3ops8function6FnOnce9call_once17h0efd2f25d5d0f6f9E>:
    40000332:	7131                	addi	sp,sp,-192
    40000334:	fd06                	sd	ra,184(sp)
    40000336:	18a8                	addi	a0,sp,120
    pub static ref AAA: i32 = 333;
    //pub static ref pxCurrentTCB_: RwLock<Option<TaskHandle_t>> = RwLock::new(None);
    pub static ref TCB1_p:TCB_t_link = Arc::new(RwLock::new(TCB_t::default()));
    pub static ref TCB2_p:TCB_t_link = Arc::new(RwLock::new(TCB_t::default()));
    pub static ref TCB3_p:TCB_t_link = Arc::new(RwLock::new(TCB_t::default()));
    pub static ref IDLE_p:TCB_t_link = Arc::new(RwLock::new(TCB_t::default()));
    40000338:	e42a                	sd	a0,8(sp)
    4000033a:	00003097          	auipc	ra,0x3
    4000033e:	ff2080e7          	jalr	-14(ra) # 4000332c <_ZN92_$LT$bare_freertos..kernel..tasks..tskTaskControlBlock$u20$as$u20$core..default..Default$GT$7default17h68adc77efe5125d3E>
    40000342:	65a2                	ld	a1,8(sp)
    40000344:	1808                	addi	a0,sp,48
    40000346:	e82a                	sd	a0,16(sp)
    40000348:	00002097          	auipc	ra,0x2
    4000034c:	40a080e7          	jalr	1034(ra) # 40002752 <_ZN4spin7rw_lock15RwLock$LT$T$GT$3new17h983610b7d1190f73E>
    40000350:	6542                	ld	a0,16(sp)
    40000352:	00001097          	auipc	ra,0x1
    40000356:	1d4080e7          	jalr	468(ra) # 40001526 <_ZN5alloc4sync12Arc$LT$T$GT$3new17h37e5ef6a3b895540E>
    4000035a:	ec2a                	sd	a0,24(sp)
    4000035c:	a009                	j	4000035e <_ZN4core3ops8function6FnOnce9call_once17h0efd2f25d5d0f6f9E+0x2c>
    4000035e:	6562                	ld	a0,24(sp)
    40000360:	70ea                	ld	ra,184(sp)
    40000362:	6129                	addi	sp,sp,192
    40000364:	8082                	ret

0000000040000366 <_ZN4core3ops8function6FnOnce9call_once17h19e480666742eb20E>:
    40000366:	1101                	addi	sp,sp,-32
    40000368:	ec06                	sd	ra,24(sp)
    4000036a:	4581                	li	a1,0
    4000036c:	00080637          	lui	a2,0x80
    pub static ref TASK3_STACK:[usize;USER_STACK_SIZE]=[0;USER_STACK_SIZE];
    40000370:	0000d097          	auipc	ra,0xd
    40000374:	4a6080e7          	jalr	1190(ra) # 4000d816 <memset>
    40000378:	a009                	j	4000037a <_ZN4core3ops8function6FnOnce9call_once17h19e480666742eb20E+0x14>
    4000037a:	60e2                	ld	ra,24(sp)
    4000037c:	6105                	addi	sp,sp,32
    4000037e:	8082                	ret

0000000040000380 <_ZN4core3ops8function6FnOnce9call_once17h2e7412027fbee8ecE>:
    40000380:	7131                	addi	sp,sp,-192
    40000382:	fd06                	sd	ra,184(sp)
    40000384:	18a8                	addi	a0,sp,120
}
lazy_static! {
    pub static ref task1handler: Option<TaskHandle_t> =
        Some(Arc::new(RwLock::new(tskTaskControlBlock::default())));
    pub static ref task2handler: Option<TaskHandle_t> =
        Some(Arc::new(RwLock::new(tskTaskControlBlock::default())));
    40000386:	e02a                	sd	a0,0(sp)
    40000388:	00003097          	auipc	ra,0x3
    4000038c:	fa4080e7          	jalr	-92(ra) # 4000332c <_ZN92_$LT$bare_freertos..kernel..tasks..tskTaskControlBlock$u20$as$u20$core..default..Default$GT$7default17h68adc77efe5125d3E>
    40000390:	6582                	ld	a1,0(sp)
    40000392:	1808                	addi	a0,sp,48
    40000394:	e42a                	sd	a0,8(sp)
    40000396:	00002097          	auipc	ra,0x2
    4000039a:	3bc080e7          	jalr	956(ra) # 40002752 <_ZN4spin7rw_lock15RwLock$LT$T$GT$3new17h983610b7d1190f73E>
    4000039e:	6522                	ld	a0,8(sp)
    400003a0:	00001097          	auipc	ra,0x1
    400003a4:	186080e7          	jalr	390(ra) # 40001526 <_ZN5alloc4sync12Arc$LT$T$GT$3new17h37e5ef6a3b895540E>
    400003a8:	f42a                	sd	a0,40(sp)
    400003aa:	e82a                	sd	a0,16(sp)
    400003ac:	a009                	j	400003ae <_ZN4core3ops8function6FnOnce9call_once17h2e7412027fbee8ecE+0x2e>
    400003ae:	6542                	ld	a0,16(sp)
    400003b0:	70ea                	ld	ra,184(sp)
    400003b2:	6129                	addi	sp,sp,192
    400003b4:	8082                	ret

00000000400003b6 <_ZN4core3ops8function6FnOnce9call_once17h2f6d256917c18b7aE>:
    400003b6:	1101                	addi	sp,sp,-32
    400003b8:	ec06                	sd	ra,24(sp)
    400003ba:	4581                	li	a1,0
    400003bc:	00080637          	lui	a2,0x80
    pub static ref TASK1_STACK:[usize;USER_STACK_SIZE]= [0;USER_STACK_SIZE] ;
    400003c0:	0000d097          	auipc	ra,0xd
    400003c4:	456080e7          	jalr	1110(ra) # 4000d816 <memset>
    400003c8:	a009                	j	400003ca <_ZN4core3ops8function6FnOnce9call_once17h2f6d256917c18b7aE+0x14>
    400003ca:	60e2                	ld	ra,24(sp)
    400003cc:	6105                	addi	sp,sp,32
    400003ce:	8082                	ret

00000000400003d0 <_ZN4core3ops8function6FnOnce9call_once17h8267881b6e5fc861E>:
    400003d0:	1101                	addi	sp,sp,-32
    pub static ref READY_TASK_LISTS: [ListRealLink; 16] = Default::default();
    400003d2:	ec06                	sd	ra,24(sp)
    400003d4:	00001097          	auipc	ra,0x1
    400003d8:	f22080e7          	jalr	-222(ra) # 400012f6 <_ZN4core5array75_$LT$impl$u20$core..default..Default$u20$for$u20$$u5b$T$u3b$$u20$_$u5d$$GT$7default17h903416dc0ca6768bE>
    400003dc:	a009                	j	400003de <_ZN4core3ops8function6FnOnce9call_once17h8267881b6e5fc861E+0xe>
    400003de:	60e2                	ld	ra,24(sp)
    400003e0:	6105                	addi	sp,sp,32
    400003e2:	8082                	ret

00000000400003e4 <_ZN4core3ops8function6FnOnce9call_once17h853880625c090118E>:
    400003e4:	1101                	addi	sp,sp,-32
    400003e6:	ec06                	sd	ra,24(sp)
    400003e8:	4581                	li	a1,0
    400003ea:	00080637          	lui	a2,0x80
    pub static ref TASK2_STACK:[usize;USER_STACK_SIZE]=[0;USER_STACK_SIZE];
    400003ee:	0000d097          	auipc	ra,0xd
    400003f2:	428080e7          	jalr	1064(ra) # 4000d816 <memset>
    400003f6:	a009                	j	400003f8 <_ZN4core3ops8function6FnOnce9call_once17h853880625c090118E+0x14>
    400003f8:	60e2                	ld	ra,24(sp)
    400003fa:	6105                	addi	sp,sp,32
    400003fc:	8082                	ret

00000000400003fe <_ZN4core3ops8function6FnOnce9call_once17h91b79b379af9faf5E>:
    400003fe:	1101                	addi	sp,sp,-32
    40000400:	ec06                	sd	ra,24(sp)
    40000402:	4581                	li	a1,0
    40000404:	00080637          	lui	a2,0x80
    pub static ref IDLE_STACK:[usize;USER_STACK_SIZE]=[0;USER_STACK_SIZE];
    40000408:	0000d097          	auipc	ra,0xd
    4000040c:	40e080e7          	jalr	1038(ra) # 4000d816 <memset>
    40000410:	a009                	j	40000412 <_ZN4core3ops8function6FnOnce9call_once17h91b79b379af9faf5E+0x14>
    40000412:	60e2                	ld	ra,24(sp)
    40000414:	6105                	addi	sp,sp,32
    40000416:	8082                	ret

0000000040000418 <_ZN4core3ops8function6FnOnce9call_once17hafac25dd12ec51e1E>:
    40000418:	1101                	addi	sp,sp,-32
    pub static ref DELAYED_TASK_LIST: ListRealLink = Default::default();
    4000041a:	ec06                	sd	ra,24(sp)
    4000041c:	00002097          	auipc	ra,0x2
    40000420:	e10080e7          	jalr	-496(ra) # 4000222c <_ZN68_$LT$alloc..sync..Arc$LT$T$GT$$u20$as$u20$core..default..Default$GT$7default17hba93a43140b2bc16E>
    40000424:	e02a                	sd	a0,0(sp)
    40000426:	a009                	j	40000428 <_ZN4core3ops8function6FnOnce9call_once17hafac25dd12ec51e1E+0x10>
    40000428:	6502                	ld	a0,0(sp)
    4000042a:	60e2                	ld	ra,24(sp)
    4000042c:	6105                	addi	sp,sp,32
    4000042e:	8082                	ret

0000000040000430 <_ZN4core3ops8function6FnOnce9call_once17hc04b5f88b5dfcb6dE>:
    40000430:	7131                	addi	sp,sp,-192
    40000432:	fd06                	sd	ra,184(sp)
    40000434:	18a8                	addi	a0,sp,120
        Some(Arc::new(RwLock::new(tskTaskControlBlock::default())));
    40000436:	e02a                	sd	a0,0(sp)
    40000438:	00003097          	auipc	ra,0x3
    4000043c:	ef4080e7          	jalr	-268(ra) # 4000332c <_ZN92_$LT$bare_freertos..kernel..tasks..tskTaskControlBlock$u20$as$u20$core..default..Default$GT$7default17h68adc77efe5125d3E>
    40000440:	6582                	ld	a1,0(sp)
    40000442:	1808                	addi	a0,sp,48
    40000444:	e42a                	sd	a0,8(sp)
    40000446:	00002097          	auipc	ra,0x2
    4000044a:	30c080e7          	jalr	780(ra) # 40002752 <_ZN4spin7rw_lock15RwLock$LT$T$GT$3new17h983610b7d1190f73E>
    4000044e:	6522                	ld	a0,8(sp)
    40000450:	00001097          	auipc	ra,0x1
    40000454:	0d6080e7          	jalr	214(ra) # 40001526 <_ZN5alloc4sync12Arc$LT$T$GT$3new17h37e5ef6a3b895540E>
    40000458:	f42a                	sd	a0,40(sp)
    4000045a:	e82a                	sd	a0,16(sp)
    4000045c:	a009                	j	4000045e <_ZN4core3ops8function6FnOnce9call_once17hc04b5f88b5dfcb6dE+0x2e>
    4000045e:	6542                	ld	a0,16(sp)
    40000460:	70ea                	ld	ra,184(sp)
    40000462:	6129                	addi	sp,sp,192
    40000464:	8082                	ret

0000000040000466 <_ZN4core3ops8function6FnOnce9call_once17hd3a642d511626a69E>:
    40000466:	7179                	addi	sp,sp,-48
    40000468:	f406                	sd	ra,40(sp)
    4000046a:	e82a                	sd	a0,16(sp)
    4000046c:	ec2e                	sd	a1,24(sp)
    4000046e:	00003097          	auipc	ra,0x3
    40000472:	cfc080e7          	jalr	-772(ra) # 4000316a <_ZN4core3cmp5impls50_$LT$impl$u20$core..cmp..Ord$u20$for$u20$usize$GT$3cmp17h0bad8970ea9e1077E>
    40000476:	e42a                	sd	a0,8(sp)
    40000478:	a009                	j	4000047a <_ZN4core3ops8function6FnOnce9call_once17hd3a642d511626a69E+0x14>
    4000047a:	6522                	ld	a0,8(sp)
    4000047c:	70a2                	ld	ra,40(sp)
    4000047e:	6145                	addi	sp,sp,48
    40000480:	8082                	ret

0000000040000482 <_ZN4core3ops8function6FnOnce9call_once17hd9f049b4fc61e376E>:
    40000482:	1101                	addi	sp,sp,-32
    pub static ref OVERFLOW_DELAYED_TASK_LIST: ListRealLink = Default::default();
    40000484:	ec06                	sd	ra,24(sp)
    40000486:	00002097          	auipc	ra,0x2
    4000048a:	da6080e7          	jalr	-602(ra) # 4000222c <_ZN68_$LT$alloc..sync..Arc$LT$T$GT$$u20$as$u20$core..default..Default$GT$7default17hba93a43140b2bc16E>
    4000048e:	e02a                	sd	a0,0(sp)
    40000490:	a009                	j	40000492 <_ZN4core3ops8function6FnOnce9call_once17hd9f049b4fc61e376E+0x10>
    40000492:	6502                	ld	a0,0(sp)
    40000494:	60e2                	ld	ra,24(sp)
    40000496:	6105                	addi	sp,sp,32
    40000498:	8082                	ret

000000004000049a <_ZN4core3ptr100drop_in_place$LT$core..cell..UnsafeCell$LT$bare_freertos..kernel..tasks..tskTaskControlBlock$GT$$GT$17h86239369206b6d6cE>:
    4000049a:	1141                	addi	sp,sp,-16
    4000049c:	e406                	sd	ra,8(sp)
    4000049e:	e02a                	sd	a0,0(sp)
    400004a0:	00000097          	auipc	ra,0x0
    400004a4:	340080e7          	jalr	832(ra) # 400007e0 <_ZN4core3ptr70drop_in_place$LT$bare_freertos..kernel..tasks..tskTaskControlBlock$GT$17h2617d0dbfccfe8c6E>
    400004a8:	a009                	j	400004aa <_ZN4core3ptr100drop_in_place$LT$core..cell..UnsafeCell$LT$bare_freertos..kernel..tasks..tskTaskControlBlock$GT$$GT$17h86239369206b6d6cE+0x10>
    400004aa:	60a2                	ld	ra,8(sp)
    400004ac:	0141                	addi	sp,sp,16
    400004ae:	8082                	ret

00000000400004b0 <_ZN4core3ptr100drop_in_place$LT$spin..rw_lock..RwLockReadGuard$LT$bare_freertos..kernel..linked_list..XList$GT$$GT$17h321811b2bae2ab47E>:
    400004b0:	1141                	addi	sp,sp,-16
    400004b2:	e406                	sd	ra,8(sp)
    400004b4:	e02a                	sd	a0,0(sp)
    400004b6:	00001097          	auipc	ra,0x1
    400004ba:	8d4080e7          	jalr	-1836(ra) # 40000d8a <_ZN81_$LT$spin..rw_lock..RwLockReadGuard$LT$T$GT$$u20$as$u20$core..ops..drop..Drop$GT$4drop17h8651cf1ab593687aE>
    400004be:	a009                	j	400004c0 <_ZN4core3ptr100drop_in_place$LT$spin..rw_lock..RwLockReadGuard$LT$bare_freertos..kernel..linked_list..XList$GT$$GT$17h321811b2bae2ab47E+0x10>
    400004c0:	60a2                	ld	ra,8(sp)
    400004c2:	0141                	addi	sp,sp,16
    400004c4:	8082                	ret

00000000400004c6 <_ZN4core3ptr101drop_in_place$LT$spin..rw_lock..RwLockWriteGuard$LT$bare_freertos..kernel..linked_list..XList$GT$$GT$17hff2585a77ecb36ecE>:
    400004c6:	1141                	addi	sp,sp,-16
    400004c8:	e406                	sd	ra,8(sp)
    400004ca:	e02a                	sd	a0,0(sp)
    400004cc:	00001097          	auipc	ra,0x1
    400004d0:	a7a080e7          	jalr	-1414(ra) # 40000f46 <_ZN82_$LT$spin..rw_lock..RwLockWriteGuard$LT$T$GT$$u20$as$u20$core..ops..drop..Drop$GT$4drop17h6a8af7834efb4f87E>
    400004d4:	a009                	j	400004d6 <_ZN4core3ptr101drop_in_place$LT$spin..rw_lock..RwLockWriteGuard$LT$bare_freertos..kernel..linked_list..XList$GT$$GT$17hff2585a77ecb36ecE+0x10>
    400004d6:	60a2                	ld	ra,8(sp)
    400004d8:	0141                	addi	sp,sp,16
    400004da:	8082                	ret

00000000400004dc <_ZN4core3ptr104drop_in_place$LT$spin..rw_lock..RwLockReadGuard$LT$bare_freertos..kernel..linked_list..XListItem$GT$$GT$17hdf27b85b17f31ca6E>:
    400004dc:	1141                	addi	sp,sp,-16
    400004de:	e406                	sd	ra,8(sp)
    400004e0:	e02a                	sd	a0,0(sp)
    400004e2:	00001097          	auipc	ra,0x1
    400004e6:	846080e7          	jalr	-1978(ra) # 40000d28 <_ZN81_$LT$spin..rw_lock..RwLockReadGuard$LT$T$GT$$u20$as$u20$core..ops..drop..Drop$GT$4drop17h6f9aa6ae5cb75700E>
    400004ea:	a009                	j	400004ec <_ZN4core3ptr104drop_in_place$LT$spin..rw_lock..RwLockReadGuard$LT$bare_freertos..kernel..linked_list..XListItem$GT$$GT$17hdf27b85b17f31ca6E+0x10>
    400004ec:	60a2                	ld	ra,8(sp)
    400004ee:	0141                	addi	sp,sp,16
    400004f0:	8082                	ret

00000000400004f2 <_ZN4core3ptr105drop_in_place$LT$spin..rw_lock..RwLockWriteGuard$LT$bare_freertos..kernel..linked_list..XListItem$GT$$GT$17h9d71d46ec6fbb172E>:
    400004f2:	1141                	addi	sp,sp,-16
    400004f4:	e406                	sd	ra,8(sp)
    400004f6:	e02a                	sd	a0,0(sp)
    400004f8:	00001097          	auipc	ra,0x1
    400004fc:	956080e7          	jalr	-1706(ra) # 40000e4e <_ZN82_$LT$spin..rw_lock..RwLockWriteGuard$LT$T$GT$$u20$as$u20$core..ops..drop..Drop$GT$4drop17h0e5524e5bc60f2b6E>
    40000500:	a009                	j	40000502 <_ZN4core3ptr105drop_in_place$LT$spin..rw_lock..RwLockWriteGuard$LT$bare_freertos..kernel..linked_list..XListItem$GT$$GT$17h9d71d46ec6fbb172E+0x10>
    40000502:	60a2                	ld	ra,8(sp)
    40000504:	0141                	addi	sp,sp,16
    40000506:	8082                	ret

0000000040000508 <_ZN4core3ptr108drop_in_place$LT$spin..rw_lock..RwLockReadGuard$LT$bare_freertos..kernel..tasks..tskTaskControlBlock$GT$$GT$17h04c4dbfe207bfa49E>:
    40000508:	1141                	addi	sp,sp,-16
    4000050a:	e406                	sd	ra,8(sp)
    4000050c:	e02a                	sd	a0,0(sp)
    4000050e:	00001097          	auipc	ra,0x1
    40000512:	8de080e7          	jalr	-1826(ra) # 40000dec <_ZN81_$LT$spin..rw_lock..RwLockReadGuard$LT$T$GT$$u20$as$u20$core..ops..drop..Drop$GT$4drop17h8842cba9786c64ffE>
    40000516:	a009                	j	40000518 <_ZN4core3ptr108drop_in_place$LT$spin..rw_lock..RwLockReadGuard$LT$bare_freertos..kernel..tasks..tskTaskControlBlock$GT$$GT$17h04c4dbfe207bfa49E+0x10>
    40000518:	60a2                	ld	ra,8(sp)
    4000051a:	0141                	addi	sp,sp,16
    4000051c:	8082                	ret

000000004000051e <_ZN4core3ptr109drop_in_place$LT$spin..rw_lock..RwLockWriteGuard$LT$bare_freertos..kernel..tasks..tskTaskControlBlock$GT$$GT$17h9b33388185b06598E>:
    4000051e:	1141                	addi	sp,sp,-16
    40000520:	e406                	sd	ra,8(sp)
    40000522:	e02a                	sd	a0,0(sp)
    40000524:	00001097          	auipc	ra,0x1
    40000528:	9a6080e7          	jalr	-1626(ra) # 40000eca <_ZN82_$LT$spin..rw_lock..RwLockWriteGuard$LT$T$GT$$u20$as$u20$core..ops..drop..Drop$GT$4drop17h3a45c6291727680aE>
    4000052c:	a009                	j	4000052e <_ZN4core3ptr109drop_in_place$LT$spin..rw_lock..RwLockWriteGuard$LT$bare_freertos..kernel..tasks..tskTaskControlBlock$GT$$GT$17h9b33388185b06598E+0x10>
    4000052e:	60a2                	ld	ra,8(sp)
    40000530:	0141                	addi	sp,sp,16
    40000532:	8082                	ret

0000000040000534 <_ZN4core3ptr110drop_in_place$LT$spin..mutex..ticket..TicketMutexGuard$LT$buddy_system_allocator..Heap$LT$32_usize$GT$$GT$$GT$17h87bbad25d8fdc856E>:
    40000534:	1141                	addi	sp,sp,-16
    40000536:	e406                	sd	ra,8(sp)
    40000538:	e02a                	sd	a0,0(sp)
    4000053a:	00001097          	auipc	ra,0x1
    4000053e:	a88080e7          	jalr	-1400(ra) # 40000fc2 <_ZN88_$LT$spin..mutex..ticket..TicketMutexGuard$LT$T$GT$$u20$as$u20$core..ops..drop..Drop$GT$4drop17hf9c29b175317ad90E>
    40000542:	a009                	j	40000544 <_ZN4core3ptr110drop_in_place$LT$spin..mutex..ticket..TicketMutexGuard$LT$buddy_system_allocator..Heap$LT$32_usize$GT$$GT$$GT$17h87bbad25d8fdc856E+0x10>
    40000544:	60a2                	ld	ra,8(sp)
    40000546:	0141                	addi	sp,sp,16
    40000548:	8082                	ret

000000004000054a <_ZN4core3ptr115drop_in_place$LT$alloc..sync..Arc$LT$spin..rw_lock..RwLock$LT$bare_freertos..kernel..linked_list..XList$GT$$GT$$GT$17h922bbd012f764fcaE>:
    4000054a:	1141                	addi	sp,sp,-16
    4000054c:	e406                	sd	ra,8(sp)
    4000054e:	e02a                	sd	a0,0(sp)
    40000550:	00000097          	auipc	ra,0x0
    40000554:	452080e7          	jalr	1106(ra) # 400009a2 <_ZN67_$LT$alloc..sync..Arc$LT$T$GT$$u20$as$u20$core..ops..drop..Drop$GT$4drop17he616c1081e57917cE>
    40000558:	a009                	j	4000055a <_ZN4core3ptr115drop_in_place$LT$alloc..sync..Arc$LT$spin..rw_lock..RwLock$LT$bare_freertos..kernel..linked_list..XList$GT$$GT$$GT$17h922bbd012f764fcaE+0x10>
    4000055a:	60a2                	ld	ra,8(sp)
    4000055c:	0141                	addi	sp,sp,16
    4000055e:	8082                	ret

0000000040000560 <_ZN4core3ptr116drop_in_place$LT$alloc..sync..Weak$LT$spin..rw_lock..RwLock$LT$bare_freertos..kernel..linked_list..XList$GT$$GT$$GT$17h651dfb8c9f9a4045E>:
    40000560:	1141                	addi	sp,sp,-16
    40000562:	e406                	sd	ra,8(sp)
    40000564:	e02a                	sd	a0,0(sp)
    40000566:	00000097          	auipc	ra,0x0
    4000056a:	496080e7          	jalr	1174(ra) # 400009fc <_ZN68_$LT$alloc..sync..Weak$LT$T$GT$$u20$as$u20$core..ops..drop..Drop$GT$4drop17h19c6d6d3d23ce5ddE>
    4000056e:	a009                	j	40000570 <_ZN4core3ptr116drop_in_place$LT$alloc..sync..Weak$LT$spin..rw_lock..RwLock$LT$bare_freertos..kernel..linked_list..XList$GT$$GT$$GT$17h651dfb8c9f9a4045E+0x10>
    40000570:	60a2                	ld	ra,8(sp)
    40000572:	0141                	addi	sp,sp,16
    40000574:	8082                	ret

0000000040000576 <_ZN4core3ptr119drop_in_place$LT$alloc..sync..Arc$LT$spin..rw_lock..RwLock$LT$bare_freertos..kernel..linked_list..XListItem$GT$$GT$$GT$17h2e5348d8cd7ea275E>:
    40000576:	1141                	addi	sp,sp,-16
    40000578:	e406                	sd	ra,8(sp)
    4000057a:	e02a                	sd	a0,0(sp)
    4000057c:	00000097          	auipc	ra,0x0
    40000580:	3cc080e7          	jalr	972(ra) # 40000948 <_ZN67_$LT$alloc..sync..Arc$LT$T$GT$$u20$as$u20$core..ops..drop..Drop$GT$4drop17h89cbe06fc6f85c7bE>
    40000584:	a009                	j	40000586 <_ZN4core3ptr119drop_in_place$LT$alloc..sync..Arc$LT$spin..rw_lock..RwLock$LT$bare_freertos..kernel..linked_list..XListItem$GT$$GT$$GT$17h2e5348d8cd7ea275E+0x10>
    40000586:	60a2                	ld	ra,8(sp)
    40000588:	0141                	addi	sp,sp,16
    4000058a:	8082                	ret

000000004000058c <_ZN4core3ptr120drop_in_place$LT$alloc..sync..Weak$LT$spin..rw_lock..RwLock$LT$bare_freertos..kernel..linked_list..XListItem$GT$$GT$$GT$17h597bbc06fcf25ea9E>:
    4000058c:	1141                	addi	sp,sp,-16
    4000058e:	e406                	sd	ra,8(sp)
    40000590:	e02a                	sd	a0,0(sp)
    40000592:	00000097          	auipc	ra,0x0
    40000596:	67a080e7          	jalr	1658(ra) # 40000c0c <_ZN68_$LT$alloc..sync..Weak$LT$T$GT$$u20$as$u20$core..ops..drop..Drop$GT$4drop17hd94556bb25a6e0efE>
    4000059a:	a009                	j	4000059c <_ZN4core3ptr120drop_in_place$LT$alloc..sync..Weak$LT$spin..rw_lock..RwLock$LT$bare_freertos..kernel..linked_list..XListItem$GT$$GT$$GT$17h597bbc06fcf25ea9E+0x10>
    4000059c:	60a2                	ld	ra,8(sp)
    4000059e:	0141                	addi	sp,sp,16
    400005a0:	8082                	ret

00000000400005a2 <_ZN4core3ptr123drop_in_place$LT$alloc..sync..Arc$LT$spin..rw_lock..RwLock$LT$bare_freertos..kernel..tasks..tskTaskControlBlock$GT$$GT$$GT$17h8b49c6e81170944aE>:
    400005a2:	1141                	addi	sp,sp,-16
    400005a4:	e406                	sd	ra,8(sp)
    400005a6:	e02a                	sd	a0,0(sp)
    400005a8:	00000097          	auipc	ra,0x0
    400005ac:	2ec080e7          	jalr	748(ra) # 40000894 <_ZN67_$LT$alloc..sync..Arc$LT$T$GT$$u20$as$u20$core..ops..drop..Drop$GT$4drop17h092c1e3dff76c5b6E>
    400005b0:	a009                	j	400005b2 <_ZN4core3ptr123drop_in_place$LT$alloc..sync..Arc$LT$spin..rw_lock..RwLock$LT$bare_freertos..kernel..tasks..tskTaskControlBlock$GT$$GT$$GT$17h8b49c6e81170944aE+0x10>
    400005b2:	60a2                	ld	ra,8(sp)
    400005b4:	0141                	addi	sp,sp,16
    400005b6:	8082                	ret

00000000400005b8 <_ZN4core3ptr124drop_in_place$LT$alloc..sync..Weak$LT$spin..rw_lock..RwLock$LT$bare_freertos..kernel..tasks..tskTaskControlBlock$GT$$GT$$GT$17h2ce9a3b5d9346edaE>:
    400005b8:	1141                	addi	sp,sp,-16
    400005ba:	e406                	sd	ra,8(sp)
    400005bc:	e02a                	sd	a0,0(sp)
    400005be:	00000097          	auipc	ra,0x0
    400005c2:	4ee080e7          	jalr	1262(ra) # 40000aac <_ZN68_$LT$alloc..sync..Weak$LT$T$GT$$u20$as$u20$core..ops..drop..Drop$GT$4drop17h233c2bf691a7d597E>
    400005c6:	a009                	j	400005c8 <_ZN4core3ptr124drop_in_place$LT$alloc..sync..Weak$LT$spin..rw_lock..RwLock$LT$bare_freertos..kernel..tasks..tskTaskControlBlock$GT$$GT$$GT$17h2ce9a3b5d9346edaE+0x10>
    400005c8:	60a2                	ld	ra,8(sp)
    400005ca:	0141                	addi	sp,sp,16
    400005cc:	8082                	ret

00000000400005ce <_ZN4core3ptr137drop_in_place$LT$$u5b$alloc..sync..Arc$LT$spin..rw_lock..RwLock$LT$bare_freertos..kernel..linked_list..XList$GT$$GT$$u3b$$u20$16$u5d$$GT$17h3efceba89bc9ae49E>:
    400005ce:	7179                	addi	sp,sp,-48
    400005d0:	f406                	sd	ra,40(sp)
    400005d2:	e42a                	sd	a0,8(sp)
    400005d4:	f02a                	sd	a0,32(sp)
    400005d6:	4581                	li	a1,0
    400005d8:	4505                	li	a0,1
    400005da:	00b51663          	bne	a0,a1,400005e6 <_ZN4core3ptr137drop_in_place$LT$$u5b$alloc..sync..Arc$LT$spin..rw_lock..RwLock$LT$bare_freertos..kernel..linked_list..XList$GT$$GT$$u3b$$u20$16$u5d$$GT$17h3efceba89bc9ae49E+0x18>
    400005de:	a009                	j	400005e0 <_ZN4core3ptr137drop_in_place$LT$$u5b$alloc..sync..Arc$LT$spin..rw_lock..RwLock$LT$bare_freertos..kernel..linked_list..XList$GT$$GT$$u3b$$u20$16$u5d$$GT$17h3efceba89bc9ae49E+0x12>
    400005e0:	4501                	li	a0,0
    400005e2:	e82a                	sd	a0,16(sp)
    400005e4:	a805                	j	40000614 <_ZN4core3ptr137drop_in_place$LT$$u5b$alloc..sync..Arc$LT$spin..rw_lock..RwLock$LT$bare_freertos..kernel..linked_list..XList$GT$$GT$$u3b$$u20$16$u5d$$GT$17h3efceba89bc9ae49E+0x46>
    400005e6:	6522                	ld	a0,8(sp)
    400005e8:	ec2a                	sd	a0,24(sp)
    400005ea:	08050513          	addi	a0,a0,128
    400005ee:	e02a                	sd	a0,0(sp)
    400005f0:	a009                	j	400005f2 <_ZN4core3ptr137drop_in_place$LT$$u5b$alloc..sync..Arc$LT$spin..rw_lock..RwLock$LT$bare_freertos..kernel..linked_list..XList$GT$$GT$$u3b$$u20$16$u5d$$GT$17h3efceba89bc9ae49E+0x24>
    400005f2:	6582                	ld	a1,0(sp)
    400005f4:	6562                	ld	a0,24(sp)
    400005f6:	00b50c63          	beq	a0,a1,4000060e <_ZN4core3ptr137drop_in_place$LT$$u5b$alloc..sync..Arc$LT$spin..rw_lock..RwLock$LT$bare_freertos..kernel..linked_list..XList$GT$$GT$$u3b$$u20$16$u5d$$GT$17h3efceba89bc9ae49E+0x40>
    400005fa:	a009                	j	400005fc <_ZN4core3ptr137drop_in_place$LT$$u5b$alloc..sync..Arc$LT$spin..rw_lock..RwLock$LT$bare_freertos..kernel..linked_list..XList$GT$$GT$$u3b$$u20$16$u5d$$GT$17h3efceba89bc9ae49E+0x2e>
    400005fc:	6562                	ld	a0,24(sp)
    400005fe:	00850593          	addi	a1,a0,8
    40000602:	ec2e                	sd	a1,24(sp)
    40000604:	00000097          	auipc	ra,0x0
    40000608:	f46080e7          	jalr	-186(ra) # 4000054a <_ZN4core3ptr115drop_in_place$LT$alloc..sync..Arc$LT$spin..rw_lock..RwLock$LT$bare_freertos..kernel..linked_list..XList$GT$$GT$$GT$17h922bbd012f764fcaE>
    4000060c:	b7dd                	j	400005f2 <_ZN4core3ptr137drop_in_place$LT$$u5b$alloc..sync..Arc$LT$spin..rw_lock..RwLock$LT$bare_freertos..kernel..linked_list..XList$GT$$GT$$u3b$$u20$16$u5d$$GT$17h3efceba89bc9ae49E+0x24>
    4000060e:	70a2                	ld	ra,40(sp)
    40000610:	6145                	addi	sp,sp,48
    40000612:	8082                	ret
    40000614:	6542                	ld	a0,16(sp)
    40000616:	45c1                	li	a1,16
    40000618:	feb50be3          	beq	a0,a1,4000060e <_ZN4core3ptr137drop_in_place$LT$$u5b$alloc..sync..Arc$LT$spin..rw_lock..RwLock$LT$bare_freertos..kernel..linked_list..XList$GT$$GT$$u3b$$u20$16$u5d$$GT$17h3efceba89bc9ae49E+0x40>
    4000061c:	a009                	j	4000061e <_ZN4core3ptr137drop_in_place$LT$$u5b$alloc..sync..Arc$LT$spin..rw_lock..RwLock$LT$bare_freertos..kernel..linked_list..XList$GT$$GT$$u3b$$u20$16$u5d$$GT$17h3efceba89bc9ae49E+0x50>
    4000061e:	6522                	ld	a0,8(sp)
    40000620:	65c2                	ld	a1,16(sp)
    40000622:	00359613          	slli	a2,a1,0x3
    40000626:	9532                	add	a0,a0,a2
    40000628:	0585                	addi	a1,a1,1
    4000062a:	e82e                	sd	a1,16(sp)
    4000062c:	00000097          	auipc	ra,0x0
    40000630:	f1e080e7          	jalr	-226(ra) # 4000054a <_ZN4core3ptr115drop_in_place$LT$alloc..sync..Arc$LT$spin..rw_lock..RwLock$LT$bare_freertos..kernel..linked_list..XList$GT$$GT$$GT$17h922bbd012f764fcaE>
    40000634:	b7c5                	j	40000614 <_ZN4core3ptr137drop_in_place$LT$$u5b$alloc..sync..Arc$LT$spin..rw_lock..RwLock$LT$bare_freertos..kernel..linked_list..XList$GT$$GT$$u3b$$u20$16$u5d$$GT$17h3efceba89bc9ae49E+0x46>

0000000040000636 <_ZN4core3ptr143drop_in_place$LT$core..option..Option$LT$alloc..sync..Arc$LT$spin..rw_lock..RwLock$LT$bare_freertos..kernel..linked_list..XList$GT$$GT$$GT$$GT$17h65cb6638c6b39d75E>:
    40000636:	1101                	addi	sp,sp,-32
    40000638:	ec06                	sd	ra,24(sp)
    4000063a:	e42a                	sd	a0,8(sp)
    4000063c:	e82a                	sd	a0,16(sp)
    4000063e:	6108                	ld	a0,0(a0)
    40000640:	4581                	li	a1,0
    40000642:	00b51663          	bne	a0,a1,4000064e <_ZN4core3ptr143drop_in_place$LT$core..option..Option$LT$alloc..sync..Arc$LT$spin..rw_lock..RwLock$LT$bare_freertos..kernel..linked_list..XList$GT$$GT$$GT$$GT$17h65cb6638c6b39d75E+0x18>
    40000646:	a009                	j	40000648 <_ZN4core3ptr143drop_in_place$LT$core..option..Option$LT$alloc..sync..Arc$LT$spin..rw_lock..RwLock$LT$bare_freertos..kernel..linked_list..XList$GT$$GT$$GT$$GT$17h65cb6638c6b39d75E+0x12>
    40000648:	60e2                	ld	ra,24(sp)
    4000064a:	6105                	addi	sp,sp,32
    4000064c:	8082                	ret
    4000064e:	6522                	ld	a0,8(sp)
    40000650:	00000097          	auipc	ra,0x0
    40000654:	efa080e7          	jalr	-262(ra) # 4000054a <_ZN4core3ptr115drop_in_place$LT$alloc..sync..Arc$LT$spin..rw_lock..RwLock$LT$bare_freertos..kernel..linked_list..XList$GT$$GT$$GT$17h922bbd012f764fcaE>
    40000658:	bfc5                	j	40000648 <_ZN4core3ptr143drop_in_place$LT$core..option..Option$LT$alloc..sync..Arc$LT$spin..rw_lock..RwLock$LT$bare_freertos..kernel..linked_list..XList$GT$$GT$$GT$$GT$17h65cb6638c6b39d75E+0x12>

000000004000065a <_ZN4core3ptr151drop_in_place$LT$core..option..Option$LT$alloc..sync..Arc$LT$spin..rw_lock..RwLock$LT$bare_freertos..kernel..tasks..tskTaskControlBlock$GT$$GT$$GT$$GT$17hb47484c83106e55aE>:
    4000065a:	1101                	addi	sp,sp,-32
    4000065c:	ec06                	sd	ra,24(sp)
    4000065e:	e42a                	sd	a0,8(sp)
    40000660:	e82a                	sd	a0,16(sp)
    40000662:	6108                	ld	a0,0(a0)
    40000664:	4581                	li	a1,0
    40000666:	00b51663          	bne	a0,a1,40000672 <_ZN4core3ptr151drop_in_place$LT$core..option..Option$LT$alloc..sync..Arc$LT$spin..rw_lock..RwLock$LT$bare_freertos..kernel..tasks..tskTaskControlBlock$GT$$GT$$GT$$GT$17hb47484c83106e55aE+0x18>
    4000066a:	a009                	j	4000066c <_ZN4core3ptr151drop_in_place$LT$core..option..Option$LT$alloc..sync..Arc$LT$spin..rw_lock..RwLock$LT$bare_freertos..kernel..tasks..tskTaskControlBlock$GT$$GT$$GT$$GT$17hb47484c83106e55aE+0x12>
    4000066c:	60e2                	ld	ra,24(sp)
    4000066e:	6105                	addi	sp,sp,32
    40000670:	8082                	ret
    40000672:	6522                	ld	a0,8(sp)
    40000674:	00000097          	auipc	ra,0x0
    40000678:	f2e080e7          	jalr	-210(ra) # 400005a2 <_ZN4core3ptr123drop_in_place$LT$alloc..sync..Arc$LT$spin..rw_lock..RwLock$LT$bare_freertos..kernel..tasks..tskTaskControlBlock$GT$$GT$$GT$17h8b49c6e81170944aE>
    4000067c:	bfc5                	j	4000066c <_ZN4core3ptr151drop_in_place$LT$core..option..Option$LT$alloc..sync..Arc$LT$spin..rw_lock..RwLock$LT$bare_freertos..kernel..tasks..tskTaskControlBlock$GT$$GT$$GT$$GT$17hb47484c83106e55aE+0x12>

000000004000067e <_ZN4core3ptr165drop_in_place$LT$core..option..Option$LT$$u5b$alloc..sync..Arc$LT$spin..rw_lock..RwLock$LT$bare_freertos..kernel..linked_list..XList$GT$$GT$$u3b$$u20$16$u5d$$GT$$GT$17h7061de8c14a75454E>:
    4000067e:	1101                	addi	sp,sp,-32
    40000680:	ec06                	sd	ra,24(sp)
    40000682:	e42a                	sd	a0,8(sp)
    40000684:	e82a                	sd	a0,16(sp)
    40000686:	6108                	ld	a0,0(a0)
    40000688:	4581                	li	a1,0
    4000068a:	00b51663          	bne	a0,a1,40000696 <_ZN4core3ptr165drop_in_place$LT$core..option..Option$LT$$u5b$alloc..sync..Arc$LT$spin..rw_lock..RwLock$LT$bare_freertos..kernel..linked_list..XList$GT$$GT$$u3b$$u20$16$u5d$$GT$$GT$17h7061de8c14a75454E+0x18>
    4000068e:	a009                	j	40000690 <_ZN4core3ptr165drop_in_place$LT$core..option..Option$LT$$u5b$alloc..sync..Arc$LT$spin..rw_lock..RwLock$LT$bare_freertos..kernel..linked_list..XList$GT$$GT$$u3b$$u20$16$u5d$$GT$$GT$17h7061de8c14a75454E+0x12>
    40000690:	60e2                	ld	ra,24(sp)
    40000692:	6105                	addi	sp,sp,32
    40000694:	8082                	ret
    40000696:	6522                	ld	a0,8(sp)
    40000698:	00000097          	auipc	ra,0x0
    4000069c:	f36080e7          	jalr	-202(ra) # 400005ce <_ZN4core3ptr137drop_in_place$LT$$u5b$alloc..sync..Arc$LT$spin..rw_lock..RwLock$LT$bare_freertos..kernel..linked_list..XList$GT$$GT$$u3b$$u20$16$u5d$$GT$17h3efceba89bc9ae49E>
    400006a0:	bfc5                	j	40000690 <_ZN4core3ptr165drop_in_place$LT$core..option..Option$LT$$u5b$alloc..sync..Arc$LT$spin..rw_lock..RwLock$LT$bare_freertos..kernel..linked_list..XList$GT$$GT$$u3b$$u20$16$u5d$$GT$$GT$17h7061de8c14a75454E+0x12>

00000000400006a2 <_ZN4core3ptr179drop_in_place$LT$core..option..Option$LT$core..option..Option$LT$alloc..sync..Arc$LT$spin..rw_lock..RwLock$LT$bare_freertos..kernel..tasks..tskTaskControlBlock$GT$$GT$$GT$$GT$$GT$17hf8cb7dabe7c905a4E>:
    400006a2:	1101                	addi	sp,sp,-32
    400006a4:	ec06                	sd	ra,24(sp)
    400006a6:	e42a                	sd	a0,8(sp)
    400006a8:	e82a                	sd	a0,16(sp)
    400006aa:	6108                	ld	a0,0(a0)
    400006ac:	4581                	li	a1,0
    400006ae:	00b51663          	bne	a0,a1,400006ba <_ZN4core3ptr179drop_in_place$LT$core..option..Option$LT$core..option..Option$LT$alloc..sync..Arc$LT$spin..rw_lock..RwLock$LT$bare_freertos..kernel..tasks..tskTaskControlBlock$GT$$GT$$GT$$GT$$GT$17hf8cb7dabe7c905a4E+0x18>
    400006b2:	a009                	j	400006b4 <_ZN4core3ptr179drop_in_place$LT$core..option..Option$LT$core..option..Option$LT$alloc..sync..Arc$LT$spin..rw_lock..RwLock$LT$bare_freertos..kernel..tasks..tskTaskControlBlock$GT$$GT$$GT$$GT$$GT$17hf8cb7dabe7c905a4E+0x12>
    400006b4:	60e2                	ld	ra,24(sp)
    400006b6:	6105                	addi	sp,sp,32
    400006b8:	8082                	ret
    400006ba:	6522                	ld	a0,8(sp)
    400006bc:	0521                	addi	a0,a0,8
    400006be:	00000097          	auipc	ra,0x0
    400006c2:	f9c080e7          	jalr	-100(ra) # 4000065a <_ZN4core3ptr151drop_in_place$LT$core..option..Option$LT$alloc..sync..Arc$LT$spin..rw_lock..RwLock$LT$bare_freertos..kernel..tasks..tskTaskControlBlock$GT$$GT$$GT$$GT$17hb47484c83106e55aE>
    400006c6:	b7fd                	j	400006b4 <_ZN4core3ptr179drop_in_place$LT$core..option..Option$LT$core..option..Option$LT$alloc..sync..Arc$LT$spin..rw_lock..RwLock$LT$bare_freertos..kernel..tasks..tskTaskControlBlock$GT$$GT$$GT$$GT$$GT$17hf8cb7dabe7c905a4E+0x12>

00000000400006c8 <_ZN4core3ptr30drop_in_place$LT$$RF$usize$GT$17hc8afd7813353ce74E>:
    400006c8:	1141                	addi	sp,sp,-16
    400006ca:	e42a                	sd	a0,8(sp)
    400006cc:	0141                	addi	sp,sp,16
    400006ce:	8082                	ret

00000000400006d0 <_ZN4core3ptr37drop_in_place$LT$core..fmt..Error$GT$17h0b85faf6c87d7264E>:
    400006d0:	1141                	addi	sp,sp,-16
    400006d2:	e42a                	sd	a0,8(sp)
    400006d4:	0141                	addi	sp,sp,16
    400006d6:	8082                	ret

00000000400006d8 <_ZN4core3ptr39drop_in_place$LT$spin..once..Finish$GT$17h3afe3bc9ac334613E>:
    400006d8:	1141                	addi	sp,sp,-16
    400006da:	e406                	sd	ra,8(sp)
    400006dc:	e02a                	sd	a0,0(sp)
    400006de:	0000c097          	auipc	ra,0xc
    400006e2:	b66080e7          	jalr	-1178(ra) # 4000c244 <_ZN60_$LT$spin..once..Finish$u20$as$u20$core..ops..drop..Drop$GT$4drop17h0789fec9af14b76eE>
    400006e6:	a009                	j	400006e8 <_ZN4core3ptr39drop_in_place$LT$spin..once..Finish$GT$17h3afe3bc9ac334613E+0x10>
    400006e8:	60a2                	ld	ra,8(sp)
    400006ea:	0141                	addi	sp,sp,16
    400006ec:	8082                	ret

00000000400006ee <_ZN4core3ptr42drop_in_place$LT$alloc..string..String$GT$17hf9f30bacbc7d4f27E>:
    400006ee:	1141                	addi	sp,sp,-16
    400006f0:	e406                	sd	ra,8(sp)
    400006f2:	e02a                	sd	a0,0(sp)
    400006f4:	00000097          	auipc	ra,0x0
    400006f8:	010080e7          	jalr	16(ra) # 40000704 <_ZN4core3ptr46drop_in_place$LT$alloc..vec..Vec$LT$u8$GT$$GT$17h578d1f35c1788633E>
    400006fc:	a009                	j	400006fe <_ZN4core3ptr42drop_in_place$LT$alloc..string..String$GT$17hf9f30bacbc7d4f27E+0x10>
    400006fe:	60a2                	ld	ra,8(sp)
    40000700:	0141                	addi	sp,sp,16
    40000702:	8082                	ret

0000000040000704 <_ZN4core3ptr46drop_in_place$LT$alloc..vec..Vec$LT$u8$GT$$GT$17h578d1f35c1788633E>:
    40000704:	1101                	addi	sp,sp,-32
    40000706:	ec06                	sd	ra,24(sp)
    40000708:	e42a                	sd	a0,8(sp)
    4000070a:	e82a                	sd	a0,16(sp)
    4000070c:	00000097          	auipc	ra,0x0
    40000710:	5b0080e7          	jalr	1456(ra) # 40000cbc <_ZN70_$LT$alloc..vec..Vec$LT$T$C$A$GT$$u20$as$u20$core..ops..drop..Drop$GT$4drop17hd5c3d6324aab6bafE>
    40000714:	a009                	j	40000716 <_ZN4core3ptr46drop_in_place$LT$alloc..vec..Vec$LT$u8$GT$$GT$17h578d1f35c1788633E+0x12>
    40000716:	6522                	ld	a0,8(sp)
    40000718:	00000097          	auipc	ra,0x0
    4000071c:	026080e7          	jalr	38(ra) # 4000073e <_ZN4core3ptr53drop_in_place$LT$alloc..raw_vec..RawVec$LT$u8$GT$$GT$17h77d83d2ab55109f7E>
    40000720:	a009                	j	40000722 <_ZN4core3ptr46drop_in_place$LT$alloc..vec..Vec$LT$u8$GT$$GT$17h578d1f35c1788633E+0x1e>
    40000722:	60e2                	ld	ra,24(sp)
    40000724:	6105                	addi	sp,sp,32
    40000726:	8082                	ret

0000000040000728 <_ZN4core3ptr52drop_in_place$LT$alloc..sync..Arc$LT$$RF$str$GT$$GT$17hff235533d3fb2d29E>:
    40000728:	1141                	addi	sp,sp,-16
    4000072a:	e406                	sd	ra,8(sp)
    4000072c:	e02a                	sd	a0,0(sp)
    4000072e:	00000097          	auipc	ra,0x0
    40000732:	1c0080e7          	jalr	448(ra) # 400008ee <_ZN67_$LT$alloc..sync..Arc$LT$T$GT$$u20$as$u20$core..ops..drop..Drop$GT$4drop17h5954cd36108e04d3E>
    40000736:	a009                	j	40000738 <_ZN4core3ptr52drop_in_place$LT$alloc..sync..Arc$LT$$RF$str$GT$$GT$17hff235533d3fb2d29E+0x10>
    40000738:	60a2                	ld	ra,8(sp)
    4000073a:	0141                	addi	sp,sp,16
    4000073c:	8082                	ret

000000004000073e <_ZN4core3ptr53drop_in_place$LT$alloc..raw_vec..RawVec$LT$u8$GT$$GT$17h77d83d2ab55109f7E>:
    4000073e:	1141                	addi	sp,sp,-16
    40000740:	e406                	sd	ra,8(sp)
    40000742:	e02a                	sd	a0,0(sp)
    40000744:	00000097          	auipc	ra,0x0
    40000748:	5a4080e7          	jalr	1444(ra) # 40000ce8 <_ZN77_$LT$alloc..raw_vec..RawVec$LT$T$C$A$GT$$u20$as$u20$core..ops..drop..Drop$GT$4drop17h58de6771a435fc28E>
    4000074c:	a009                	j	4000074e <_ZN4core3ptr53drop_in_place$LT$alloc..raw_vec..RawVec$LT$u8$GT$$GT$17h77d83d2ab55109f7E+0x10>
    4000074e:	60a2                	ld	ra,8(sp)
    40000750:	0141                	addi	sp,sp,16
    40000752:	8082                	ret

0000000040000754 <_ZN4core3ptr53drop_in_place$LT$alloc..sync..Weak$LT$$RF$str$GT$$GT$17h313d20302148328aE>:
    40000754:	1141                	addi	sp,sp,-16
    40000756:	e406                	sd	ra,8(sp)
    40000758:	e02a                	sd	a0,0(sp)
    4000075a:	00000097          	auipc	ra,0x0
    4000075e:	402080e7          	jalr	1026(ra) # 40000b5c <_ZN68_$LT$alloc..sync..Weak$LT$T$GT$$u20$as$u20$core..ops..drop..Drop$GT$4drop17hc81eef37266a37baE>
    40000762:	a009                	j	40000764 <_ZN4core3ptr53drop_in_place$LT$alloc..sync..Weak$LT$$RF$str$GT$$GT$17h313d20302148328aE+0x10>
    40000764:	60a2                	ld	ra,8(sp)
    40000766:	0141                	addi	sp,sp,16
    40000768:	8082                	ret

000000004000076a <_ZN4core3ptr54drop_in_place$LT$$RF$mut$u20$alloc..string..String$GT$17hd64a00800f644283E>:
    4000076a:	1141                	addi	sp,sp,-16
    4000076c:	e42a                	sd	a0,8(sp)
    4000076e:	0141                	addi	sp,sp,16
    40000770:	8082                	ret

0000000040000772 <_ZN4core3ptr62drop_in_place$LT$bare_freertos..kernel..linked_list..XList$GT$17h3db908fe49d37820E>:
    40000772:	1101                	addi	sp,sp,-32
    40000774:	ec06                	sd	ra,24(sp)
    40000776:	e42a                	sd	a0,8(sp)
    40000778:	e82a                	sd	a0,16(sp)
    4000077a:	0521                	addi	a0,a0,8
    4000077c:	00000097          	auipc	ra,0x0
    40000780:	e10080e7          	jalr	-496(ra) # 4000058c <_ZN4core3ptr120drop_in_place$LT$alloc..sync..Weak$LT$spin..rw_lock..RwLock$LT$bare_freertos..kernel..linked_list..XListItem$GT$$GT$$GT$17h597bbc06fcf25ea9E>
    40000784:	a009                	j	40000786 <_ZN4core3ptr62drop_in_place$LT$bare_freertos..kernel..linked_list..XList$GT$17h3db908fe49d37820E+0x14>
    40000786:	6522                	ld	a0,8(sp)
    40000788:	0541                	addi	a0,a0,16
    4000078a:	00000097          	auipc	ra,0x0
    4000078e:	dec080e7          	jalr	-532(ra) # 40000576 <_ZN4core3ptr119drop_in_place$LT$alloc..sync..Arc$LT$spin..rw_lock..RwLock$LT$bare_freertos..kernel..linked_list..XListItem$GT$$GT$$GT$17h2e5348d8cd7ea275E>
    40000792:	a009                	j	40000794 <_ZN4core3ptr62drop_in_place$LT$bare_freertos..kernel..linked_list..XList$GT$17h3db908fe49d37820E+0x22>
    40000794:	60e2                	ld	ra,24(sp)
    40000796:	6105                	addi	sp,sp,32
    40000798:	8082                	ret

000000004000079a <_ZN4core3ptr66drop_in_place$LT$bare_freertos..kernel..linked_list..XListItem$GT$17h5cfd7df0e2a7cc7dE>:
    4000079a:	1101                	addi	sp,sp,-32
    4000079c:	ec06                	sd	ra,24(sp)
    4000079e:	e42a                	sd	a0,8(sp)
    400007a0:	e82a                	sd	a0,16(sp)
    400007a2:	0521                	addi	a0,a0,8
    400007a4:	00000097          	auipc	ra,0x0
    400007a8:	de8080e7          	jalr	-536(ra) # 4000058c <_ZN4core3ptr120drop_in_place$LT$alloc..sync..Weak$LT$spin..rw_lock..RwLock$LT$bare_freertos..kernel..linked_list..XListItem$GT$$GT$$GT$17h597bbc06fcf25ea9E>
    400007ac:	a009                	j	400007ae <_ZN4core3ptr66drop_in_place$LT$bare_freertos..kernel..linked_list..XListItem$GT$17h5cfd7df0e2a7cc7dE+0x14>
    400007ae:	6522                	ld	a0,8(sp)
    400007b0:	0541                	addi	a0,a0,16
    400007b2:	00000097          	auipc	ra,0x0
    400007b6:	dda080e7          	jalr	-550(ra) # 4000058c <_ZN4core3ptr120drop_in_place$LT$alloc..sync..Weak$LT$spin..rw_lock..RwLock$LT$bare_freertos..kernel..linked_list..XListItem$GT$$GT$$GT$17h597bbc06fcf25ea9E>
    400007ba:	a009                	j	400007bc <_ZN4core3ptr66drop_in_place$LT$bare_freertos..kernel..linked_list..XListItem$GT$17h5cfd7df0e2a7cc7dE+0x22>
    400007bc:	6522                	ld	a0,8(sp)
    400007be:	0561                	addi	a0,a0,24
    400007c0:	00000097          	auipc	ra,0x0
    400007c4:	df8080e7          	jalr	-520(ra) # 400005b8 <_ZN4core3ptr124drop_in_place$LT$alloc..sync..Weak$LT$spin..rw_lock..RwLock$LT$bare_freertos..kernel..tasks..tskTaskControlBlock$GT$$GT$$GT$17h2ce9a3b5d9346edaE>
    400007c8:	a009                	j	400007ca <_ZN4core3ptr66drop_in_place$LT$bare_freertos..kernel..linked_list..XListItem$GT$17h5cfd7df0e2a7cc7dE+0x30>
    400007ca:	6522                	ld	a0,8(sp)
    400007cc:	02050513          	addi	a0,a0,32
    400007d0:	00000097          	auipc	ra,0x0
    400007d4:	d90080e7          	jalr	-624(ra) # 40000560 <_ZN4core3ptr116drop_in_place$LT$alloc..sync..Weak$LT$spin..rw_lock..RwLock$LT$bare_freertos..kernel..linked_list..XList$GT$$GT$$GT$17h651dfb8c9f9a4045E>
    400007d8:	a009                	j	400007da <_ZN4core3ptr66drop_in_place$LT$bare_freertos..kernel..linked_list..XListItem$GT$17h5cfd7df0e2a7cc7dE+0x40>
    400007da:	60e2                	ld	ra,24(sp)
    400007dc:	6105                	addi	sp,sp,32
    400007de:	8082                	ret

00000000400007e0 <_ZN4core3ptr70drop_in_place$LT$bare_freertos..kernel..tasks..tskTaskControlBlock$GT$17h2617d0dbfccfe8c6E>:
    400007e0:	1101                	addi	sp,sp,-32
    400007e2:	ec06                	sd	ra,24(sp)
    400007e4:	e42a                	sd	a0,8(sp)
    400007e6:	e82a                	sd	a0,16(sp)
    400007e8:	0541                	addi	a0,a0,16
    400007ea:	00000097          	auipc	ra,0x0
    400007ee:	f04080e7          	jalr	-252(ra) # 400006ee <_ZN4core3ptr42drop_in_place$LT$alloc..string..String$GT$17hf9f30bacbc7d4f27E>
    400007f2:	a009                	j	400007f4 <_ZN4core3ptr70drop_in_place$LT$bare_freertos..kernel..tasks..tskTaskControlBlock$GT$17h2617d0dbfccfe8c6E+0x14>
    400007f4:	6522                	ld	a0,8(sp)
    400007f6:	02850513          	addi	a0,a0,40
    400007fa:	00000097          	auipc	ra,0x0
    400007fe:	d7c080e7          	jalr	-644(ra) # 40000576 <_ZN4core3ptr119drop_in_place$LT$alloc..sync..Arc$LT$spin..rw_lock..RwLock$LT$bare_freertos..kernel..linked_list..XListItem$GT$$GT$$GT$17h2e5348d8cd7ea275E>
    40000802:	a009                	j	40000804 <_ZN4core3ptr70drop_in_place$LT$bare_freertos..kernel..tasks..tskTaskControlBlock$GT$17h2617d0dbfccfe8c6E+0x24>
    40000804:	60e2                	ld	ra,24(sp)
    40000806:	6105                	addi	sp,sp,32
    40000808:	8082                	ret

000000004000080a <_ZN4core3ptr91drop_in_place$LT$spin..rw_lock..RwLock$LT$bare_freertos..kernel..linked_list..XList$GT$$GT$17he0024edd434bae28E>:
    4000080a:	1141                	addi	sp,sp,-16
    4000080c:	e406                	sd	ra,8(sp)
    4000080e:	e02a                	sd	a0,0(sp)
    40000810:	0521                	addi	a0,a0,8
    40000812:	00000097          	auipc	ra,0x0
    40000816:	010080e7          	jalr	16(ra) # 40000822 <_ZN4core3ptr92drop_in_place$LT$core..cell..UnsafeCell$LT$bare_freertos..kernel..linked_list..XList$GT$$GT$17h901fb241bae7e818E>
    4000081a:	a009                	j	4000081c <_ZN4core3ptr91drop_in_place$LT$spin..rw_lock..RwLock$LT$bare_freertos..kernel..linked_list..XList$GT$$GT$17he0024edd434bae28E+0x12>
    4000081c:	60a2                	ld	ra,8(sp)
    4000081e:	0141                	addi	sp,sp,16
    40000820:	8082                	ret

0000000040000822 <_ZN4core3ptr92drop_in_place$LT$core..cell..UnsafeCell$LT$bare_freertos..kernel..linked_list..XList$GT$$GT$17h901fb241bae7e818E>:
    40000822:	1141                	addi	sp,sp,-16
    40000824:	e406                	sd	ra,8(sp)
    40000826:	e02a                	sd	a0,0(sp)
    40000828:	00000097          	auipc	ra,0x0
    4000082c:	f4a080e7          	jalr	-182(ra) # 40000772 <_ZN4core3ptr62drop_in_place$LT$bare_freertos..kernel..linked_list..XList$GT$17h3db908fe49d37820E>
    40000830:	a009                	j	40000832 <_ZN4core3ptr92drop_in_place$LT$core..cell..UnsafeCell$LT$bare_freertos..kernel..linked_list..XList$GT$$GT$17h901fb241bae7e818E+0x10>
    40000832:	60a2                	ld	ra,8(sp)
    40000834:	0141                	addi	sp,sp,16
    40000836:	8082                	ret

0000000040000838 <_ZN4core3ptr95drop_in_place$LT$spin..rw_lock..RwLock$LT$bare_freertos..kernel..linked_list..XListItem$GT$$GT$17heaf26bcc9af68d33E>:
    40000838:	1141                	addi	sp,sp,-16
    4000083a:	e406                	sd	ra,8(sp)
    4000083c:	e02a                	sd	a0,0(sp)
    4000083e:	0521                	addi	a0,a0,8
    40000840:	00000097          	auipc	ra,0x0
    40000844:	010080e7          	jalr	16(ra) # 40000850 <_ZN4core3ptr96drop_in_place$LT$core..cell..UnsafeCell$LT$bare_freertos..kernel..linked_list..XListItem$GT$$GT$17h8f74d37b3b66a900E>
    40000848:	a009                	j	4000084a <_ZN4core3ptr95drop_in_place$LT$spin..rw_lock..RwLock$LT$bare_freertos..kernel..linked_list..XListItem$GT$$GT$17heaf26bcc9af68d33E+0x12>
    4000084a:	60a2                	ld	ra,8(sp)
    4000084c:	0141                	addi	sp,sp,16
    4000084e:	8082                	ret

0000000040000850 <_ZN4core3ptr96drop_in_place$LT$core..cell..UnsafeCell$LT$bare_freertos..kernel..linked_list..XListItem$GT$$GT$17h8f74d37b3b66a900E>:
    40000850:	1141                	addi	sp,sp,-16
    40000852:	e406                	sd	ra,8(sp)
    40000854:	e02a                	sd	a0,0(sp)
    40000856:	00000097          	auipc	ra,0x0
    4000085a:	f44080e7          	jalr	-188(ra) # 4000079a <_ZN4core3ptr66drop_in_place$LT$bare_freertos..kernel..linked_list..XListItem$GT$17h5cfd7df0e2a7cc7dE>
    4000085e:	a009                	j	40000860 <_ZN4core3ptr96drop_in_place$LT$core..cell..UnsafeCell$LT$bare_freertos..kernel..linked_list..XListItem$GT$$GT$17h8f74d37b3b66a900E+0x10>
    40000860:	60a2                	ld	ra,8(sp)
    40000862:	0141                	addi	sp,sp,16
    40000864:	8082                	ret

0000000040000866 <_ZN4core3ptr96drop_in_place$LT$spin..mutex..MutexGuard$LT$buddy_system_allocator..Heap$LT$32_usize$GT$$GT$$GT$17h1201f5ff895939d6E>:
    40000866:	1141                	addi	sp,sp,-16
    40000868:	e406                	sd	ra,8(sp)
    4000086a:	e02a                	sd	a0,0(sp)
    4000086c:	00000097          	auipc	ra,0x0
    40000870:	cc8080e7          	jalr	-824(ra) # 40000534 <_ZN4core3ptr110drop_in_place$LT$spin..mutex..ticket..TicketMutexGuard$LT$buddy_system_allocator..Heap$LT$32_usize$GT$$GT$$GT$17h87bbad25d8fdc856E>
    40000874:	a009                	j	40000876 <_ZN4core3ptr96drop_in_place$LT$spin..mutex..MutexGuard$LT$buddy_system_allocator..Heap$LT$32_usize$GT$$GT$$GT$17h1201f5ff895939d6E+0x10>
    40000876:	60a2                	ld	ra,8(sp)
    40000878:	0141                	addi	sp,sp,16
    4000087a:	8082                	ret

000000004000087c <_ZN4core3ptr99drop_in_place$LT$spin..rw_lock..RwLock$LT$bare_freertos..kernel..tasks..tskTaskControlBlock$GT$$GT$17h9b5dde0d6eeac659E>:
    4000087c:	1141                	addi	sp,sp,-16
    4000087e:	e406                	sd	ra,8(sp)
    40000880:	e02a                	sd	a0,0(sp)
    40000882:	0521                	addi	a0,a0,8
    40000884:	00000097          	auipc	ra,0x0
    40000888:	c16080e7          	jalr	-1002(ra) # 4000049a <_ZN4core3ptr100drop_in_place$LT$core..cell..UnsafeCell$LT$bare_freertos..kernel..tasks..tskTaskControlBlock$GT$$GT$17h86239369206b6d6cE>
    4000088c:	a009                	j	4000088e <_ZN4core3ptr99drop_in_place$LT$spin..rw_lock..RwLock$LT$bare_freertos..kernel..tasks..tskTaskControlBlock$GT$$GT$17h9b5dde0d6eeac659E+0x12>
    4000088e:	60a2                	ld	ra,8(sp)
    40000890:	0141                	addi	sp,sp,16
    40000892:	8082                	ret

0000000040000894 <_ZN67_$LT$alloc..sync..Arc$LT$T$GT$$u20$as$u20$core..ops..drop..Drop$GT$4drop17h092c1e3dff76c5b6E>:
    40000894:	7179                	addi	sp,sp,-48
    40000896:	f406                	sd	ra,40(sp)
    40000898:	e42a                	sd	a0,8(sp)
    4000089a:	f02a                	sd	a0,32(sp)
    4000089c:	00001097          	auipc	ra,0x1
    400008a0:	f3e080e7          	jalr	-194(ra) # 400017da <_ZN5alloc4sync12Arc$LT$T$GT$5inner17he41cb5b8c0b172e7E>
    400008a4:	e82a                	sd	a0,16(sp)
    400008a6:	a009                	j	400008a8 <_ZN67_$LT$alloc..sync..Arc$LT$T$GT$$u20$as$u20$core..ops..drop..Drop$GT$4drop17h092c1e3dff76c5b6E+0x14>
    400008a8:	6542                	ld	a0,16(sp)
    400008aa:	4605                	li	a2,1
    400008ac:	00c10f23          	sb	a2,30(sp)
    400008b0:	85b2                	mv	a1,a2
    400008b2:	00000097          	auipc	ra,0x0
    400008b6:	974080e7          	jalr	-1676(ra) # 40000226 <_ZN4core4sync6atomic11AtomicUsize9fetch_sub17h51d30d5f8647b71dE>
    400008ba:	e02a                	sd	a0,0(sp)
    400008bc:	a009                	j	400008be <_ZN67_$LT$alloc..sync..Arc$LT$T$GT$$u20$as$u20$core..ops..drop..Drop$GT$4drop17h092c1e3dff76c5b6E+0x2a>
    400008be:	6502                	ld	a0,0(sp)
    400008c0:	4585                	li	a1,1
    400008c2:	00b51b63          	bne	a0,a1,400008d8 <_ZN67_$LT$alloc..sync..Arc$LT$T$GT$$u20$as$u20$core..ops..drop..Drop$GT$4drop17h092c1e3dff76c5b6E+0x44>
    400008c6:	a009                	j	400008c8 <_ZN67_$LT$alloc..sync..Arc$LT$T$GT$$u20$as$u20$core..ops..drop..Drop$GT$4drop17h092c1e3dff76c5b6E+0x34>
    400008c8:	4509                	li	a0,2
    400008ca:	00a10fa3          	sb	a0,31(sp)
    400008ce:	00000097          	auipc	ra,0x0
    400008d2:	9f0080e7          	jalr	-1552(ra) # 400002be <_ZN4core4sync6atomic5fence17h29d2c91a512f5795E>
    400008d6:	a029                	j	400008e0 <_ZN67_$LT$alloc..sync..Arc$LT$T$GT$$u20$as$u20$core..ops..drop..Drop$GT$4drop17h092c1e3dff76c5b6E+0x4c>
    400008d8:	a009                	j	400008da <_ZN67_$LT$alloc..sync..Arc$LT$T$GT$$u20$as$u20$core..ops..drop..Drop$GT$4drop17h092c1e3dff76c5b6E+0x46>
    400008da:	70a2                	ld	ra,40(sp)
    400008dc:	6145                	addi	sp,sp,48
    400008de:	8082                	ret
    400008e0:	6522                	ld	a0,8(sp)
    400008e2:	00001097          	auipc	ra,0x1
    400008e6:	182080e7          	jalr	386(ra) # 40001a64 <_ZN5alloc4sync12Arc$LT$T$GT$9drop_slow17h8e9b17e5db94950bE>
    400008ea:	a009                	j	400008ec <_ZN67_$LT$alloc..sync..Arc$LT$T$GT$$u20$as$u20$core..ops..drop..Drop$GT$4drop17h092c1e3dff76c5b6E+0x58>
    400008ec:	b7fd                	j	400008da <_ZN67_$LT$alloc..sync..Arc$LT$T$GT$$u20$as$u20$core..ops..drop..Drop$GT$4drop17h092c1e3dff76c5b6E+0x46>

00000000400008ee <_ZN67_$LT$alloc..sync..Arc$LT$T$GT$$u20$as$u20$core..ops..drop..Drop$GT$4drop17h5954cd36108e04d3E>:
    400008ee:	7179                	addi	sp,sp,-48
    400008f0:	f406                	sd	ra,40(sp)
    400008f2:	e42a                	sd	a0,8(sp)
    400008f4:	f02a                	sd	a0,32(sp)
    400008f6:	00001097          	auipc	ra,0x1
    400008fa:	eb0080e7          	jalr	-336(ra) # 400017a6 <_ZN5alloc4sync12Arc$LT$T$GT$5inner17h96932ab6be3a577cE>
    400008fe:	e82a                	sd	a0,16(sp)
    40000900:	a009                	j	40000902 <_ZN67_$LT$alloc..sync..Arc$LT$T$GT$$u20$as$u20$core..ops..drop..Drop$GT$4drop17h5954cd36108e04d3E+0x14>
    40000902:	6542                	ld	a0,16(sp)
    40000904:	4605                	li	a2,1
    40000906:	00c10f23          	sb	a2,30(sp)
    4000090a:	85b2                	mv	a1,a2
    4000090c:	00000097          	auipc	ra,0x0
    40000910:	91a080e7          	jalr	-1766(ra) # 40000226 <_ZN4core4sync6atomic11AtomicUsize9fetch_sub17h51d30d5f8647b71dE>
    40000914:	e02a                	sd	a0,0(sp)
    40000916:	a009                	j	40000918 <_ZN67_$LT$alloc..sync..Arc$LT$T$GT$$u20$as$u20$core..ops..drop..Drop$GT$4drop17h5954cd36108e04d3E+0x2a>
    40000918:	6502                	ld	a0,0(sp)
    4000091a:	4585                	li	a1,1
    4000091c:	00b51b63          	bne	a0,a1,40000932 <_ZN67_$LT$alloc..sync..Arc$LT$T$GT$$u20$as$u20$core..ops..drop..Drop$GT$4drop17h5954cd36108e04d3E+0x44>
    40000920:	a009                	j	40000922 <_ZN67_$LT$alloc..sync..Arc$LT$T$GT$$u20$as$u20$core..ops..drop..Drop$GT$4drop17h5954cd36108e04d3E+0x34>
    40000922:	4509                	li	a0,2
    40000924:	00a10fa3          	sb	a0,31(sp)
    40000928:	00000097          	auipc	ra,0x0
    4000092c:	996080e7          	jalr	-1642(ra) # 400002be <_ZN4core4sync6atomic5fence17h29d2c91a512f5795E>
    40000930:	a029                	j	4000093a <_ZN67_$LT$alloc..sync..Arc$LT$T$GT$$u20$as$u20$core..ops..drop..Drop$GT$4drop17h5954cd36108e04d3E+0x4c>
    40000932:	a009                	j	40000934 <_ZN67_$LT$alloc..sync..Arc$LT$T$GT$$u20$as$u20$core..ops..drop..Drop$GT$4drop17h5954cd36108e04d3E+0x46>
    40000934:	70a2                	ld	ra,40(sp)
    40000936:	6145                	addi	sp,sp,48
    40000938:	8082                	ret
    4000093a:	6522                	ld	a0,8(sp)
    4000093c:	00001097          	auipc	ra,0x1
    40000940:	194080e7          	jalr	404(ra) # 40001ad0 <_ZN5alloc4sync12Arc$LT$T$GT$9drop_slow17hfa8b617a19258aacE>
    40000944:	a009                	j	40000946 <_ZN67_$LT$alloc..sync..Arc$LT$T$GT$$u20$as$u20$core..ops..drop..Drop$GT$4drop17h5954cd36108e04d3E+0x58>
    40000946:	b7fd                	j	40000934 <_ZN67_$LT$alloc..sync..Arc$LT$T$GT$$u20$as$u20$core..ops..drop..Drop$GT$4drop17h5954cd36108e04d3E+0x46>

0000000040000948 <_ZN67_$LT$alloc..sync..Arc$LT$T$GT$$u20$as$u20$core..ops..drop..Drop$GT$4drop17h89cbe06fc6f85c7bE>:
    40000948:	7179                	addi	sp,sp,-48
    4000094a:	f406                	sd	ra,40(sp)
    4000094c:	e42a                	sd	a0,8(sp)
    4000094e:	f02a                	sd	a0,32(sp)
    40000950:	00001097          	auipc	ra,0x1
    40000954:	e70080e7          	jalr	-400(ra) # 400017c0 <_ZN5alloc4sync12Arc$LT$T$GT$5inner17haf562a9866012f50E>
    40000958:	e82a                	sd	a0,16(sp)
    4000095a:	a009                	j	4000095c <_ZN67_$LT$alloc..sync..Arc$LT$T$GT$$u20$as$u20$core..ops..drop..Drop$GT$4drop17h89cbe06fc6f85c7bE+0x14>
    4000095c:	6542                	ld	a0,16(sp)
    4000095e:	4605                	li	a2,1
    40000960:	00c10f23          	sb	a2,30(sp)
    40000964:	85b2                	mv	a1,a2
    40000966:	00000097          	auipc	ra,0x0
    4000096a:	8c0080e7          	jalr	-1856(ra) # 40000226 <_ZN4core4sync6atomic11AtomicUsize9fetch_sub17h51d30d5f8647b71dE>
    4000096e:	e02a                	sd	a0,0(sp)
    40000970:	a009                	j	40000972 <_ZN67_$LT$alloc..sync..Arc$LT$T$GT$$u20$as$u20$core..ops..drop..Drop$GT$4drop17h89cbe06fc6f85c7bE+0x2a>
    40000972:	6502                	ld	a0,0(sp)
    40000974:	4585                	li	a1,1
    40000976:	00b51b63          	bne	a0,a1,4000098c <_ZN67_$LT$alloc..sync..Arc$LT$T$GT$$u20$as$u20$core..ops..drop..Drop$GT$4drop17h89cbe06fc6f85c7bE+0x44>
    4000097a:	a009                	j	4000097c <_ZN67_$LT$alloc..sync..Arc$LT$T$GT$$u20$as$u20$core..ops..drop..Drop$GT$4drop17h89cbe06fc6f85c7bE+0x34>
    4000097c:	4509                	li	a0,2
    4000097e:	00a10fa3          	sb	a0,31(sp)
    40000982:	00000097          	auipc	ra,0x0
    40000986:	93c080e7          	jalr	-1732(ra) # 400002be <_ZN4core4sync6atomic5fence17h29d2c91a512f5795E>
    4000098a:	a029                	j	40000994 <_ZN67_$LT$alloc..sync..Arc$LT$T$GT$$u20$as$u20$core..ops..drop..Drop$GT$4drop17h89cbe06fc6f85c7bE+0x4c>
    4000098c:	a009                	j	4000098e <_ZN67_$LT$alloc..sync..Arc$LT$T$GT$$u20$as$u20$core..ops..drop..Drop$GT$4drop17h89cbe06fc6f85c7bE+0x46>
    4000098e:	70a2                	ld	ra,40(sp)
    40000990:	6145                	addi	sp,sp,48
    40000992:	8082                	ret
    40000994:	6522                	ld	a0,8(sp)
    40000996:	00001097          	auipc	ra,0x1
    4000099a:	104080e7          	jalr	260(ra) # 40001a9a <_ZN5alloc4sync12Arc$LT$T$GT$9drop_slow17hdc069c342a5ccef3E>
    4000099e:	a009                	j	400009a0 <_ZN67_$LT$alloc..sync..Arc$LT$T$GT$$u20$as$u20$core..ops..drop..Drop$GT$4drop17h89cbe06fc6f85c7bE+0x58>
    400009a0:	b7fd                	j	4000098e <_ZN67_$LT$alloc..sync..Arc$LT$T$GT$$u20$as$u20$core..ops..drop..Drop$GT$4drop17h89cbe06fc6f85c7bE+0x46>

00000000400009a2 <_ZN67_$LT$alloc..sync..Arc$LT$T$GT$$u20$as$u20$core..ops..drop..Drop$GT$4drop17he616c1081e57917cE>:
    400009a2:	7179                	addi	sp,sp,-48
    400009a4:	f406                	sd	ra,40(sp)
    400009a6:	e42a                	sd	a0,8(sp)
    400009a8:	f02a                	sd	a0,32(sp)
    400009aa:	00001097          	auipc	ra,0x1
    400009ae:	de2080e7          	jalr	-542(ra) # 4000178c <_ZN5alloc4sync12Arc$LT$T$GT$5inner17h5dde84270ee7e717E>
    400009b2:	e82a                	sd	a0,16(sp)
    400009b4:	a009                	j	400009b6 <_ZN67_$LT$alloc..sync..Arc$LT$T$GT$$u20$as$u20$core..ops..drop..Drop$GT$4drop17he616c1081e57917cE+0x14>
    400009b6:	6542                	ld	a0,16(sp)
    400009b8:	4605                	li	a2,1
    400009ba:	00c10f23          	sb	a2,30(sp)
    400009be:	85b2                	mv	a1,a2
    400009c0:	00000097          	auipc	ra,0x0
    400009c4:	866080e7          	jalr	-1946(ra) # 40000226 <_ZN4core4sync6atomic11AtomicUsize9fetch_sub17h51d30d5f8647b71dE>
    400009c8:	e02a                	sd	a0,0(sp)
    400009ca:	a009                	j	400009cc <_ZN67_$LT$alloc..sync..Arc$LT$T$GT$$u20$as$u20$core..ops..drop..Drop$GT$4drop17he616c1081e57917cE+0x2a>
    400009cc:	6502                	ld	a0,0(sp)
    400009ce:	4585                	li	a1,1
    400009d0:	00b51b63          	bne	a0,a1,400009e6 <_ZN67_$LT$alloc..sync..Arc$LT$T$GT$$u20$as$u20$core..ops..drop..Drop$GT$4drop17he616c1081e57917cE+0x44>
    400009d4:	a009                	j	400009d6 <_ZN67_$LT$alloc..sync..Arc$LT$T$GT$$u20$as$u20$core..ops..drop..Drop$GT$4drop17he616c1081e57917cE+0x34>
    400009d6:	4509                	li	a0,2
    400009d8:	00a10fa3          	sb	a0,31(sp)
    400009dc:	00000097          	auipc	ra,0x0
    400009e0:	8e2080e7          	jalr	-1822(ra) # 400002be <_ZN4core4sync6atomic5fence17h29d2c91a512f5795E>
    400009e4:	a029                	j	400009ee <_ZN67_$LT$alloc..sync..Arc$LT$T$GT$$u20$as$u20$core..ops..drop..Drop$GT$4drop17he616c1081e57917cE+0x4c>
    400009e6:	a009                	j	400009e8 <_ZN67_$LT$alloc..sync..Arc$LT$T$GT$$u20$as$u20$core..ops..drop..Drop$GT$4drop17he616c1081e57917cE+0x46>
    400009e8:	70a2                	ld	ra,40(sp)
    400009ea:	6145                	addi	sp,sp,48
    400009ec:	8082                	ret
    400009ee:	6522                	ld	a0,8(sp)
    400009f0:	00001097          	auipc	ra,0x1
    400009f4:	03e080e7          	jalr	62(ra) # 40001a2e <_ZN5alloc4sync12Arc$LT$T$GT$9drop_slow17h4a2768b499ccdc27E>
    400009f8:	a009                	j	400009fa <_ZN67_$LT$alloc..sync..Arc$LT$T$GT$$u20$as$u20$core..ops..drop..Drop$GT$4drop17he616c1081e57917cE+0x58>
    400009fa:	b7fd                	j	400009e8 <_ZN67_$LT$alloc..sync..Arc$LT$T$GT$$u20$as$u20$core..ops..drop..Drop$GT$4drop17he616c1081e57917cE+0x46>

00000000400009fc <_ZN68_$LT$alloc..sync..Weak$LT$T$GT$$u20$as$u20$core..ops..drop..Drop$GT$4drop17h19c6d6d3d23ce5ddE>:
    400009fc:	7119                	addi	sp,sp,-128
    400009fe:	fc86                	sd	ra,120(sp)
    40000a00:	f82a                	sd	a0,48(sp)
    40000a02:	e8aa                	sd	a0,80(sp)
    40000a04:	00001097          	auipc	ra,0x1
    40000a08:	20e080e7          	jalr	526(ra) # 40001c12 <_ZN5alloc4sync13Weak$LT$T$GT$5inner17h5f47443d394aa5ebE>
    40000a0c:	fc2a                	sd	a0,56(sp)
    40000a0e:	e0ae                	sd	a1,64(sp)
    40000a10:	a009                	j	40000a12 <_ZN68_$LT$alloc..sync..Weak$LT$T$GT$$u20$as$u20$core..ops..drop..Drop$GT$4drop17h19c6d6d3d23ce5ddE+0x16>
    40000a12:	7562                	ld	a0,56(sp)
    40000a14:	4581                	li	a1,0
    40000a16:	02b50363          	beq	a0,a1,40000a3c <_ZN68_$LT$alloc..sync..Weak$LT$T$GT$$u20$as$u20$core..ops..drop..Drop$GT$4drop17h19c6d6d3d23ce5ddE+0x40>
    40000a1a:	a009                	j	40000a1c <_ZN68_$LT$alloc..sync..Weak$LT$T$GT$$u20$as$u20$core..ops..drop..Drop$GT$4drop17h19c6d6d3d23ce5ddE+0x20>
    40000a1c:	7562                	ld	a0,56(sp)
    40000a1e:	6586                	ld	a1,64(sp)
    40000a20:	ecaa                	sd	a0,88(sp)
    40000a22:	f0ae                	sd	a1,96(sp)
    40000a24:	f4aa                	sd	a0,104(sp)
    40000a26:	f8ae                	sd	a1,112(sp)
    40000a28:	4605                	li	a2,1
    40000a2a:	04c10723          	sb	a2,78(sp)
    40000a2e:	85b2                	mv	a1,a2
    40000a30:	fffff097          	auipc	ra,0xfffff
    40000a34:	7f6080e7          	jalr	2038(ra) # 40000226 <_ZN4core4sync6atomic11AtomicUsize9fetch_sub17h51d30d5f8647b71dE>
    40000a38:	f42a                	sd	a0,40(sp)
    40000a3a:	a029                	j	40000a44 <_ZN68_$LT$alloc..sync..Weak$LT$T$GT$$u20$as$u20$core..ops..drop..Drop$GT$4drop17h19c6d6d3d23ce5ddE+0x48>
    40000a3c:	a009                	j	40000a3e <_ZN68_$LT$alloc..sync..Weak$LT$T$GT$$u20$as$u20$core..ops..drop..Drop$GT$4drop17h19c6d6d3d23ce5ddE+0x42>
    40000a3e:	70e6                	ld	ra,120(sp)
    40000a40:	6109                	addi	sp,sp,128
    40000a42:	8082                	ret
    40000a44:	7522                	ld	a0,40(sp)
    40000a46:	4585                	li	a1,1
    40000a48:	00b51b63          	bne	a0,a1,40000a5e <_ZN68_$LT$alloc..sync..Weak$LT$T$GT$$u20$as$u20$core..ops..drop..Drop$GT$4drop17h19c6d6d3d23ce5ddE+0x62>
    40000a4c:	a009                	j	40000a4e <_ZN68_$LT$alloc..sync..Weak$LT$T$GT$$u20$as$u20$core..ops..drop..Drop$GT$4drop17h19c6d6d3d23ce5ddE+0x52>
    40000a4e:	4509                	li	a0,2
    40000a50:	04a107a3          	sb	a0,79(sp)
    40000a54:	00000097          	auipc	ra,0x0
    40000a58:	86a080e7          	jalr	-1942(ra) # 400002be <_ZN4core4sync6atomic5fence17h29d2c91a512f5795E>
    40000a5c:	a019                	j	40000a62 <_ZN68_$LT$alloc..sync..Weak$LT$T$GT$$u20$as$u20$core..ops..drop..Drop$GT$4drop17h19c6d6d3d23ce5ddE+0x66>
    40000a5e:	a009                	j	40000a60 <_ZN68_$LT$alloc..sync..Weak$LT$T$GT$$u20$as$u20$core..ops..drop..Drop$GT$4drop17h19c6d6d3d23ce5ddE+0x64>
    40000a60:	bff9                	j	40000a3e <_ZN68_$LT$alloc..sync..Weak$LT$T$GT$$u20$as$u20$core..ops..drop..Drop$GT$4drop17h19c6d6d3d23ce5ddE+0x42>
    40000a62:	7542                	ld	a0,48(sp)
    40000a64:	6108                	ld	a0,0(a0)
    40000a66:	00002097          	auipc	ra,0x2
    40000a6a:	a76080e7          	jalr	-1418(ra) # 400024dc <_ZN4core3ptr8non_null16NonNull$LT$T$GT$4cast17h7174581df4b52b11E>
    40000a6e:	f02a                	sd	a0,32(sp)
    40000a70:	a009                	j	40000a72 <_ZN68_$LT$alloc..sync..Weak$LT$T$GT$$u20$as$u20$core..ops..drop..Drop$GT$4drop17h19c6d6d3d23ce5ddE+0x76>
    40000a72:	7542                	ld	a0,48(sp)
    40000a74:	6108                	ld	a0,0(a0)
    40000a76:	00002097          	auipc	ra,0x2
    40000a7a:	b2a080e7          	jalr	-1238(ra) # 400025a0 <_ZN4core3ptr8non_null16NonNull$LT$T$GT$6as_ptr17hd2345c746c00bad7E>
    40000a7e:	ec2a                	sd	a0,24(sp)
    40000a80:	a009                	j	40000a82 <_ZN68_$LT$alloc..sync..Weak$LT$T$GT$$u20$as$u20$core..ops..drop..Drop$GT$4drop17h19c6d6d3d23ce5ddE+0x86>
    40000a82:	6562                	ld	a0,24(sp)
    40000a84:	00007097          	auipc	ra,0x7
    40000a88:	6c6080e7          	jalr	1734(ra) # 4000814a <_ZN4core5alloc6layout6Layout13for_value_raw17h46a25fb6fe3cf20cE>
    40000a8c:	e42a                	sd	a0,8(sp)
    40000a8e:	e82e                	sd	a1,16(sp)
    40000a90:	a009                	j	40000a92 <_ZN68_$LT$alloc..sync..Weak$LT$T$GT$$u20$as$u20$core..ops..drop..Drop$GT$4drop17h19c6d6d3d23ce5ddE+0x96>
    40000a92:	66c2                	ld	a3,16(sp)
    40000a94:	6622                	ld	a2,8(sp)
    40000a96:	7582                	ld	a1,32(sp)
    40000a98:	0000d517          	auipc	a0,0xd
    40000a9c:	04050513          	addi	a0,a0,64 # 4000dad8 <all_interrupt_enable+0x100>
    40000aa0:	00005097          	auipc	ra,0x5
    40000aa4:	9ba080e7          	jalr	-1606(ra) # 4000545a <_ZN63_$LT$alloc..alloc..Global$u20$as$u20$core..alloc..Allocator$GT$10deallocate17hef048112439cde8fE>
    40000aa8:	a009                	j	40000aaa <_ZN68_$LT$alloc..sync..Weak$LT$T$GT$$u20$as$u20$core..ops..drop..Drop$GT$4drop17h19c6d6d3d23ce5ddE+0xae>
    40000aaa:	bf5d                	j	40000a60 <_ZN68_$LT$alloc..sync..Weak$LT$T$GT$$u20$as$u20$core..ops..drop..Drop$GT$4drop17h19c6d6d3d23ce5ddE+0x64>

0000000040000aac <_ZN68_$LT$alloc..sync..Weak$LT$T$GT$$u20$as$u20$core..ops..drop..Drop$GT$4drop17h233c2bf691a7d597E>:
    40000aac:	7119                	addi	sp,sp,-128
    40000aae:	fc86                	sd	ra,120(sp)
    40000ab0:	f82a                	sd	a0,48(sp)
    40000ab2:	e8aa                	sd	a0,80(sp)
    40000ab4:	00001097          	auipc	ra,0x1
    40000ab8:	09a080e7          	jalr	154(ra) # 40001b4e <_ZN5alloc4sync13Weak$LT$T$GT$5inner17h1635089628a8e5a0E>
    40000abc:	fc2a                	sd	a0,56(sp)
    40000abe:	e0ae                	sd	a1,64(sp)
    40000ac0:	a009                	j	40000ac2 <_ZN68_$LT$alloc..sync..Weak$LT$T$GT$$u20$as$u20$core..ops..drop..Drop$GT$4drop17h233c2bf691a7d597E+0x16>
    40000ac2:	7562                	ld	a0,56(sp)
    40000ac4:	4581                	li	a1,0
    40000ac6:	02b50363          	beq	a0,a1,40000aec <_ZN68_$LT$alloc..sync..Weak$LT$T$GT$$u20$as$u20$core..ops..drop..Drop$GT$4drop17h233c2bf691a7d597E+0x40>
    40000aca:	a009                	j	40000acc <_ZN68_$LT$alloc..sync..Weak$LT$T$GT$$u20$as$u20$core..ops..drop..Drop$GT$4drop17h233c2bf691a7d597E+0x20>
    40000acc:	7562                	ld	a0,56(sp)
    40000ace:	6586                	ld	a1,64(sp)
    40000ad0:	ecaa                	sd	a0,88(sp)
    40000ad2:	f0ae                	sd	a1,96(sp)
    40000ad4:	f4aa                	sd	a0,104(sp)
    40000ad6:	f8ae                	sd	a1,112(sp)
    40000ad8:	4605                	li	a2,1
    40000ada:	04c10723          	sb	a2,78(sp)
    40000ade:	85b2                	mv	a1,a2
    40000ae0:	fffff097          	auipc	ra,0xfffff
    40000ae4:	746080e7          	jalr	1862(ra) # 40000226 <_ZN4core4sync6atomic11AtomicUsize9fetch_sub17h51d30d5f8647b71dE>
    40000ae8:	f42a                	sd	a0,40(sp)
    40000aea:	a029                	j	40000af4 <_ZN68_$LT$alloc..sync..Weak$LT$T$GT$$u20$as$u20$core..ops..drop..Drop$GT$4drop17h233c2bf691a7d597E+0x48>
    40000aec:	a009                	j	40000aee <_ZN68_$LT$alloc..sync..Weak$LT$T$GT$$u20$as$u20$core..ops..drop..Drop$GT$4drop17h233c2bf691a7d597E+0x42>
    40000aee:	70e6                	ld	ra,120(sp)
    40000af0:	6109                	addi	sp,sp,128
    40000af2:	8082                	ret
    40000af4:	7522                	ld	a0,40(sp)
    40000af6:	4585                	li	a1,1
    40000af8:	00b51b63          	bne	a0,a1,40000b0e <_ZN68_$LT$alloc..sync..Weak$LT$T$GT$$u20$as$u20$core..ops..drop..Drop$GT$4drop17h233c2bf691a7d597E+0x62>
    40000afc:	a009                	j	40000afe <_ZN68_$LT$alloc..sync..Weak$LT$T$GT$$u20$as$u20$core..ops..drop..Drop$GT$4drop17h233c2bf691a7d597E+0x52>
    40000afe:	4509                	li	a0,2
    40000b00:	04a107a3          	sb	a0,79(sp)
    40000b04:	fffff097          	auipc	ra,0xfffff
    40000b08:	7ba080e7          	jalr	1978(ra) # 400002be <_ZN4core4sync6atomic5fence17h29d2c91a512f5795E>
    40000b0c:	a019                	j	40000b12 <_ZN68_$LT$alloc..sync..Weak$LT$T$GT$$u20$as$u20$core..ops..drop..Drop$GT$4drop17h233c2bf691a7d597E+0x66>
    40000b0e:	a009                	j	40000b10 <_ZN68_$LT$alloc..sync..Weak$LT$T$GT$$u20$as$u20$core..ops..drop..Drop$GT$4drop17h233c2bf691a7d597E+0x64>
    40000b10:	bff9                	j	40000aee <_ZN68_$LT$alloc..sync..Weak$LT$T$GT$$u20$as$u20$core..ops..drop..Drop$GT$4drop17h233c2bf691a7d597E+0x42>
    40000b12:	7542                	ld	a0,48(sp)
    40000b14:	6108                	ld	a0,0(a0)
    40000b16:	00002097          	auipc	ra,0x2
    40000b1a:	94c080e7          	jalr	-1716(ra) # 40002462 <_ZN4core3ptr8non_null16NonNull$LT$T$GT$4cast17h20edca7f0b0661a0E>
    40000b1e:	f02a                	sd	a0,32(sp)
    40000b20:	a009                	j	40000b22 <_ZN68_$LT$alloc..sync..Weak$LT$T$GT$$u20$as$u20$core..ops..drop..Drop$GT$4drop17h233c2bf691a7d597E+0x76>
    40000b22:	7542                	ld	a0,48(sp)
    40000b24:	6108                	ld	a0,0(a0)
    40000b26:	00002097          	auipc	ra,0x2
    40000b2a:	a5a080e7          	jalr	-1446(ra) # 40002580 <_ZN4core3ptr8non_null16NonNull$LT$T$GT$6as_ptr17h3b56c91fe8670886E>
    40000b2e:	ec2a                	sd	a0,24(sp)
    40000b30:	a009                	j	40000b32 <_ZN68_$LT$alloc..sync..Weak$LT$T$GT$$u20$as$u20$core..ops..drop..Drop$GT$4drop17h233c2bf691a7d597E+0x86>
    40000b32:	6562                	ld	a0,24(sp)
    40000b34:	00007097          	auipc	ra,0x7
    40000b38:	5d0080e7          	jalr	1488(ra) # 40008104 <_ZN4core5alloc6layout6Layout13for_value_raw17h270cc6e223e32a8dE>
    40000b3c:	e42a                	sd	a0,8(sp)
    40000b3e:	e82e                	sd	a1,16(sp)
    40000b40:	a009                	j	40000b42 <_ZN68_$LT$alloc..sync..Weak$LT$T$GT$$u20$as$u20$core..ops..drop..Drop$GT$4drop17h233c2bf691a7d597E+0x96>
    40000b42:	66c2                	ld	a3,16(sp)
    40000b44:	6622                	ld	a2,8(sp)
    40000b46:	7582                	ld	a1,32(sp)
    40000b48:	0000d517          	auipc	a0,0xd
    40000b4c:	f9050513          	addi	a0,a0,-112 # 4000dad8 <all_interrupt_enable+0x100>
    40000b50:	00005097          	auipc	ra,0x5
    40000b54:	90a080e7          	jalr	-1782(ra) # 4000545a <_ZN63_$LT$alloc..alloc..Global$u20$as$u20$core..alloc..Allocator$GT$10deallocate17hef048112439cde8fE>
    40000b58:	a009                	j	40000b5a <_ZN68_$LT$alloc..sync..Weak$LT$T$GT$$u20$as$u20$core..ops..drop..Drop$GT$4drop17h233c2bf691a7d597E+0xae>
    40000b5a:	bf5d                	j	40000b10 <_ZN68_$LT$alloc..sync..Weak$LT$T$GT$$u20$as$u20$core..ops..drop..Drop$GT$4drop17h233c2bf691a7d597E+0x64>

0000000040000b5c <_ZN68_$LT$alloc..sync..Weak$LT$T$GT$$u20$as$u20$core..ops..drop..Drop$GT$4drop17hc81eef37266a37baE>:
    40000b5c:	7119                	addi	sp,sp,-128
    40000b5e:	fc86                	sd	ra,120(sp)
    40000b60:	f82a                	sd	a0,48(sp)
    40000b62:	e8aa                	sd	a0,80(sp)
    40000b64:	00001097          	auipc	ra,0x1
    40000b68:	110080e7          	jalr	272(ra) # 40001c74 <_ZN5alloc4sync13Weak$LT$T$GT$5inner17hd7521c2e5beee7caE>
    40000b6c:	fc2a                	sd	a0,56(sp)
    40000b6e:	e0ae                	sd	a1,64(sp)
    40000b70:	a009                	j	40000b72 <_ZN68_$LT$alloc..sync..Weak$LT$T$GT$$u20$as$u20$core..ops..drop..Drop$GT$4drop17hc81eef37266a37baE+0x16>
    40000b72:	7562                	ld	a0,56(sp)
    40000b74:	4581                	li	a1,0
    40000b76:	02b50363          	beq	a0,a1,40000b9c <_ZN68_$LT$alloc..sync..Weak$LT$T$GT$$u20$as$u20$core..ops..drop..Drop$GT$4drop17hc81eef37266a37baE+0x40>
    40000b7a:	a009                	j	40000b7c <_ZN68_$LT$alloc..sync..Weak$LT$T$GT$$u20$as$u20$core..ops..drop..Drop$GT$4drop17hc81eef37266a37baE+0x20>
    40000b7c:	7562                	ld	a0,56(sp)
    40000b7e:	6586                	ld	a1,64(sp)
    40000b80:	ecaa                	sd	a0,88(sp)
    40000b82:	f0ae                	sd	a1,96(sp)
    40000b84:	f4aa                	sd	a0,104(sp)
    40000b86:	f8ae                	sd	a1,112(sp)
    40000b88:	4605                	li	a2,1
    40000b8a:	04c10723          	sb	a2,78(sp)
    40000b8e:	85b2                	mv	a1,a2
    40000b90:	fffff097          	auipc	ra,0xfffff
    40000b94:	696080e7          	jalr	1686(ra) # 40000226 <_ZN4core4sync6atomic11AtomicUsize9fetch_sub17h51d30d5f8647b71dE>
    40000b98:	f42a                	sd	a0,40(sp)
    40000b9a:	a029                	j	40000ba4 <_ZN68_$LT$alloc..sync..Weak$LT$T$GT$$u20$as$u20$core..ops..drop..Drop$GT$4drop17hc81eef37266a37baE+0x48>
    40000b9c:	a009                	j	40000b9e <_ZN68_$LT$alloc..sync..Weak$LT$T$GT$$u20$as$u20$core..ops..drop..Drop$GT$4drop17hc81eef37266a37baE+0x42>
    40000b9e:	70e6                	ld	ra,120(sp)
    40000ba0:	6109                	addi	sp,sp,128
    40000ba2:	8082                	ret
    40000ba4:	7522                	ld	a0,40(sp)
    40000ba6:	4585                	li	a1,1
    40000ba8:	00b51b63          	bne	a0,a1,40000bbe <_ZN68_$LT$alloc..sync..Weak$LT$T$GT$$u20$as$u20$core..ops..drop..Drop$GT$4drop17hc81eef37266a37baE+0x62>
    40000bac:	a009                	j	40000bae <_ZN68_$LT$alloc..sync..Weak$LT$T$GT$$u20$as$u20$core..ops..drop..Drop$GT$4drop17hc81eef37266a37baE+0x52>
    40000bae:	4509                	li	a0,2
    40000bb0:	04a107a3          	sb	a0,79(sp)
    40000bb4:	fffff097          	auipc	ra,0xfffff
    40000bb8:	70a080e7          	jalr	1802(ra) # 400002be <_ZN4core4sync6atomic5fence17h29d2c91a512f5795E>
    40000bbc:	a019                	j	40000bc2 <_ZN68_$LT$alloc..sync..Weak$LT$T$GT$$u20$as$u20$core..ops..drop..Drop$GT$4drop17hc81eef37266a37baE+0x66>
    40000bbe:	a009                	j	40000bc0 <_ZN68_$LT$alloc..sync..Weak$LT$T$GT$$u20$as$u20$core..ops..drop..Drop$GT$4drop17hc81eef37266a37baE+0x64>
    40000bc0:	bff9                	j	40000b9e <_ZN68_$LT$alloc..sync..Weak$LT$T$GT$$u20$as$u20$core..ops..drop..Drop$GT$4drop17hc81eef37266a37baE+0x42>
    40000bc2:	7542                	ld	a0,48(sp)
    40000bc4:	6108                	ld	a0,0(a0)
    40000bc6:	00002097          	auipc	ra,0x2
    40000bca:	8c4080e7          	jalr	-1852(ra) # 4000248a <_ZN4core3ptr8non_null16NonNull$LT$T$GT$4cast17h25b9675dab49325fE>
    40000bce:	f02a                	sd	a0,32(sp)
    40000bd0:	a009                	j	40000bd2 <_ZN68_$LT$alloc..sync..Weak$LT$T$GT$$u20$as$u20$core..ops..drop..Drop$GT$4drop17hc81eef37266a37baE+0x76>
    40000bd2:	7542                	ld	a0,48(sp)
    40000bd4:	6108                	ld	a0,0(a0)
    40000bd6:	00002097          	auipc	ra,0x2
    40000bda:	9da080e7          	jalr	-1574(ra) # 400025b0 <_ZN4core3ptr8non_null16NonNull$LT$T$GT$6as_ptr17hf57ca35c1e72da38E>
    40000bde:	ec2a                	sd	a0,24(sp)
    40000be0:	a009                	j	40000be2 <_ZN68_$LT$alloc..sync..Weak$LT$T$GT$$u20$as$u20$core..ops..drop..Drop$GT$4drop17hc81eef37266a37baE+0x86>
    40000be2:	6562                	ld	a0,24(sp)
    40000be4:	00007097          	auipc	ra,0x7
    40000be8:	4da080e7          	jalr	1242(ra) # 400080be <_ZN4core5alloc6layout6Layout13for_value_raw17h1fbb680626bd36afE>
    40000bec:	e42a                	sd	a0,8(sp)
    40000bee:	e82e                	sd	a1,16(sp)
    40000bf0:	a009                	j	40000bf2 <_ZN68_$LT$alloc..sync..Weak$LT$T$GT$$u20$as$u20$core..ops..drop..Drop$GT$4drop17hc81eef37266a37baE+0x96>
    40000bf2:	66c2                	ld	a3,16(sp)
    40000bf4:	6622                	ld	a2,8(sp)
    40000bf6:	7582                	ld	a1,32(sp)
    40000bf8:	0000d517          	auipc	a0,0xd
    40000bfc:	ee050513          	addi	a0,a0,-288 # 4000dad8 <all_interrupt_enable+0x100>
    40000c00:	00005097          	auipc	ra,0x5
    40000c04:	85a080e7          	jalr	-1958(ra) # 4000545a <_ZN63_$LT$alloc..alloc..Global$u20$as$u20$core..alloc..Allocator$GT$10deallocate17hef048112439cde8fE>
    40000c08:	a009                	j	40000c0a <_ZN68_$LT$alloc..sync..Weak$LT$T$GT$$u20$as$u20$core..ops..drop..Drop$GT$4drop17hc81eef37266a37baE+0xae>
    40000c0a:	bf5d                	j	40000bc0 <_ZN68_$LT$alloc..sync..Weak$LT$T$GT$$u20$as$u20$core..ops..drop..Drop$GT$4drop17hc81eef37266a37baE+0x64>

0000000040000c0c <_ZN68_$LT$alloc..sync..Weak$LT$T$GT$$u20$as$u20$core..ops..drop..Drop$GT$4drop17hd94556bb25a6e0efE>:
    40000c0c:	7119                	addi	sp,sp,-128
    40000c0e:	fc86                	sd	ra,120(sp)
    40000c10:	f82a                	sd	a0,48(sp)
    40000c12:	e8aa                	sd	a0,80(sp)
    40000c14:	00001097          	auipc	ra,0x1
    40000c18:	f9c080e7          	jalr	-100(ra) # 40001bb0 <_ZN5alloc4sync13Weak$LT$T$GT$5inner17h2c4953d20cd91706E>
    40000c1c:	fc2a                	sd	a0,56(sp)
    40000c1e:	e0ae                	sd	a1,64(sp)
    40000c20:	a009                	j	40000c22 <_ZN68_$LT$alloc..sync..Weak$LT$T$GT$$u20$as$u20$core..ops..drop..Drop$GT$4drop17hd94556bb25a6e0efE+0x16>
    40000c22:	7562                	ld	a0,56(sp)
    40000c24:	4581                	li	a1,0
    40000c26:	02b50363          	beq	a0,a1,40000c4c <_ZN68_$LT$alloc..sync..Weak$LT$T$GT$$u20$as$u20$core..ops..drop..Drop$GT$4drop17hd94556bb25a6e0efE+0x40>
    40000c2a:	a009                	j	40000c2c <_ZN68_$LT$alloc..sync..Weak$LT$T$GT$$u20$as$u20$core..ops..drop..Drop$GT$4drop17hd94556bb25a6e0efE+0x20>
    40000c2c:	7562                	ld	a0,56(sp)
    40000c2e:	6586                	ld	a1,64(sp)
    40000c30:	ecaa                	sd	a0,88(sp)
    40000c32:	f0ae                	sd	a1,96(sp)
    40000c34:	f4aa                	sd	a0,104(sp)
    40000c36:	f8ae                	sd	a1,112(sp)
    40000c38:	4605                	li	a2,1
    40000c3a:	04c10723          	sb	a2,78(sp)
    40000c3e:	85b2                	mv	a1,a2
    40000c40:	fffff097          	auipc	ra,0xfffff
    40000c44:	5e6080e7          	jalr	1510(ra) # 40000226 <_ZN4core4sync6atomic11AtomicUsize9fetch_sub17h51d30d5f8647b71dE>
    40000c48:	f42a                	sd	a0,40(sp)
    40000c4a:	a029                	j	40000c54 <_ZN68_$LT$alloc..sync..Weak$LT$T$GT$$u20$as$u20$core..ops..drop..Drop$GT$4drop17hd94556bb25a6e0efE+0x48>
    40000c4c:	a009                	j	40000c4e <_ZN68_$LT$alloc..sync..Weak$LT$T$GT$$u20$as$u20$core..ops..drop..Drop$GT$4drop17hd94556bb25a6e0efE+0x42>
    40000c4e:	70e6                	ld	ra,120(sp)
    40000c50:	6109                	addi	sp,sp,128
    40000c52:	8082                	ret
    40000c54:	7522                	ld	a0,40(sp)
    40000c56:	4585                	li	a1,1
    40000c58:	00b51b63          	bne	a0,a1,40000c6e <_ZN68_$LT$alloc..sync..Weak$LT$T$GT$$u20$as$u20$core..ops..drop..Drop$GT$4drop17hd94556bb25a6e0efE+0x62>
    40000c5c:	a009                	j	40000c5e <_ZN68_$LT$alloc..sync..Weak$LT$T$GT$$u20$as$u20$core..ops..drop..Drop$GT$4drop17hd94556bb25a6e0efE+0x52>
    40000c5e:	4509                	li	a0,2
    40000c60:	04a107a3          	sb	a0,79(sp)
    40000c64:	fffff097          	auipc	ra,0xfffff
    40000c68:	65a080e7          	jalr	1626(ra) # 400002be <_ZN4core4sync6atomic5fence17h29d2c91a512f5795E>
    40000c6c:	a019                	j	40000c72 <_ZN68_$LT$alloc..sync..Weak$LT$T$GT$$u20$as$u20$core..ops..drop..Drop$GT$4drop17hd94556bb25a6e0efE+0x66>
    40000c6e:	a009                	j	40000c70 <_ZN68_$LT$alloc..sync..Weak$LT$T$GT$$u20$as$u20$core..ops..drop..Drop$GT$4drop17hd94556bb25a6e0efE+0x64>
    40000c70:	bff9                	j	40000c4e <_ZN68_$LT$alloc..sync..Weak$LT$T$GT$$u20$as$u20$core..ops..drop..Drop$GT$4drop17hd94556bb25a6e0efE+0x42>
    40000c72:	7542                	ld	a0,48(sp)
    40000c74:	6108                	ld	a0,0(a0)
    40000c76:	00002097          	auipc	ra,0x2
    40000c7a:	88e080e7          	jalr	-1906(ra) # 40002504 <_ZN4core3ptr8non_null16NonNull$LT$T$GT$4cast17he2e6c7599968fdc2E>
    40000c7e:	f02a                	sd	a0,32(sp)
    40000c80:	a009                	j	40000c82 <_ZN68_$LT$alloc..sync..Weak$LT$T$GT$$u20$as$u20$core..ops..drop..Drop$GT$4drop17hd94556bb25a6e0efE+0x76>
    40000c82:	7542                	ld	a0,48(sp)
    40000c84:	6108                	ld	a0,0(a0)
    40000c86:	00002097          	auipc	ra,0x2
    40000c8a:	90a080e7          	jalr	-1782(ra) # 40002590 <_ZN4core3ptr8non_null16NonNull$LT$T$GT$6as_ptr17h7d0cf91b7e4d22cdE>
    40000c8e:	ec2a                	sd	a0,24(sp)
    40000c90:	a009                	j	40000c92 <_ZN68_$LT$alloc..sync..Weak$LT$T$GT$$u20$as$u20$core..ops..drop..Drop$GT$4drop17hd94556bb25a6e0efE+0x86>
    40000c92:	6562                	ld	a0,24(sp)
    40000c94:	00007097          	auipc	ra,0x7
    40000c98:	3e4080e7          	jalr	996(ra) # 40008078 <_ZN4core5alloc6layout6Layout13for_value_raw17h1da23014f28260faE>
    40000c9c:	e42a                	sd	a0,8(sp)
    40000c9e:	e82e                	sd	a1,16(sp)
    40000ca0:	a009                	j	40000ca2 <_ZN68_$LT$alloc..sync..Weak$LT$T$GT$$u20$as$u20$core..ops..drop..Drop$GT$4drop17hd94556bb25a6e0efE+0x96>
    40000ca2:	66c2                	ld	a3,16(sp)
    40000ca4:	6622                	ld	a2,8(sp)
    40000ca6:	7582                	ld	a1,32(sp)
    40000ca8:	0000d517          	auipc	a0,0xd
    40000cac:	e3050513          	addi	a0,a0,-464 # 4000dad8 <all_interrupt_enable+0x100>
    40000cb0:	00004097          	auipc	ra,0x4
    40000cb4:	7aa080e7          	jalr	1962(ra) # 4000545a <_ZN63_$LT$alloc..alloc..Global$u20$as$u20$core..alloc..Allocator$GT$10deallocate17hef048112439cde8fE>
    40000cb8:	a009                	j	40000cba <_ZN68_$LT$alloc..sync..Weak$LT$T$GT$$u20$as$u20$core..ops..drop..Drop$GT$4drop17hd94556bb25a6e0efE+0xae>
    40000cba:	bf5d                	j	40000c70 <_ZN68_$LT$alloc..sync..Weak$LT$T$GT$$u20$as$u20$core..ops..drop..Drop$GT$4drop17hd94556bb25a6e0efE+0x64>

0000000040000cbc <_ZN70_$LT$alloc..vec..Vec$LT$T$C$A$GT$$u20$as$u20$core..ops..drop..Drop$GT$4drop17hd5c3d6324aab6bafE>:
    40000cbc:	1101                	addi	sp,sp,-32
    40000cbe:	ec06                	sd	ra,24(sp)
    40000cc0:	e02a                	sd	a0,0(sp)
    40000cc2:	e82a                	sd	a0,16(sp)
    40000cc4:	00008097          	auipc	ra,0x8
    40000cc8:	4dc080e7          	jalr	1244(ra) # 400091a0 <_ZN5alloc3vec16Vec$LT$T$C$A$GT$10as_mut_ptr17ha3beb021aef2ea11E>
    40000ccc:	e42a                	sd	a0,8(sp)
    40000cce:	a009                	j	40000cd0 <_ZN70_$LT$alloc..vec..Vec$LT$T$C$A$GT$$u20$as$u20$core..ops..drop..Drop$GT$4drop17hd5c3d6324aab6bafE+0x14>
    40000cd0:	6522                	ld	a0,8(sp)
    40000cd2:	6582                	ld	a1,0(sp)
    40000cd4:	698c                	ld	a1,16(a1)
    40000cd6:	0000b097          	auipc	ra,0xb
    40000cda:	284080e7          	jalr	644(ra) # 4000bf5a <_ZN4core3ptr24slice_from_raw_parts_mut17h650186bd1abb2fdaE>
    40000cde:	a009                	j	40000ce0 <_ZN70_$LT$alloc..vec..Vec$LT$T$C$A$GT$$u20$as$u20$core..ops..drop..Drop$GT$4drop17hd5c3d6324aab6bafE+0x24>
    40000ce0:	a009                	j	40000ce2 <_ZN70_$LT$alloc..vec..Vec$LT$T$C$A$GT$$u20$as$u20$core..ops..drop..Drop$GT$4drop17hd5c3d6324aab6bafE+0x26>
    40000ce2:	60e2                	ld	ra,24(sp)
    40000ce4:	6105                	addi	sp,sp,32
    40000ce6:	8082                	ret

0000000040000ce8 <_ZN77_$LT$alloc..raw_vec..RawVec$LT$T$C$A$GT$$u20$as$u20$core..ops..drop..Drop$GT$4drop17h58de6771a435fc28E>:
    40000ce8:	715d                	addi	sp,sp,-80
    40000cea:	e486                	sd	ra,72(sp)
    40000cec:	85aa                	mv	a1,a0
    40000cee:	e42e                	sd	a1,8(sp)
    40000cf0:	f42e                	sd	a1,40(sp)
    40000cf2:	0808                	addi	a0,sp,16
    40000cf4:	00004097          	auipc	ra,0x4
    40000cf8:	e2c080e7          	jalr	-468(ra) # 40004b20 <_ZN5alloc7raw_vec19RawVec$LT$T$C$A$GT$14current_memory17h1bf45d2e02cfd39dE>
    40000cfc:	a009                	j	40000cfe <_ZN77_$LT$alloc..raw_vec..RawVec$LT$T$C$A$GT$$u20$as$u20$core..ops..drop..Drop$GT$4drop17h58de6771a435fc28E+0x16>
    40000cfe:	6542                	ld	a0,16(sp)
    40000d00:	4581                	li	a1,0
    40000d02:	00b50f63          	beq	a0,a1,40000d20 <_ZN77_$LT$alloc..raw_vec..RawVec$LT$T$C$A$GT$$u20$as$u20$core..ops..drop..Drop$GT$4drop17h58de6771a435fc28E+0x38>
    40000d06:	a009                	j	40000d08 <_ZN77_$LT$alloc..raw_vec..RawVec$LT$T$C$A$GT$$u20$as$u20$core..ops..drop..Drop$GT$4drop17h58de6771a435fc28E+0x20>
    40000d08:	6522                	ld	a0,8(sp)
    40000d0a:	65c2                	ld	a1,16(sp)
    40000d0c:	f82e                	sd	a1,48(sp)
    40000d0e:	6662                	ld	a2,24(sp)
    40000d10:	7682                	ld	a3,32(sp)
    40000d12:	fc32                	sd	a2,56(sp)
    40000d14:	e0b6                	sd	a3,64(sp)
    40000d16:	00004097          	auipc	ra,0x4
    40000d1a:	744080e7          	jalr	1860(ra) # 4000545a <_ZN63_$LT$alloc..alloc..Global$u20$as$u20$core..alloc..Allocator$GT$10deallocate17hef048112439cde8fE>
    40000d1e:	a021                	j	40000d26 <_ZN77_$LT$alloc..raw_vec..RawVec$LT$T$C$A$GT$$u20$as$u20$core..ops..drop..Drop$GT$4drop17h58de6771a435fc28E+0x3e>
    40000d20:	60a6                	ld	ra,72(sp)
    40000d22:	6161                	addi	sp,sp,80
    40000d24:	8082                	ret
    40000d26:	bfed                	j	40000d20 <_ZN77_$LT$alloc..raw_vec..RawVec$LT$T$C$A$GT$$u20$as$u20$core..ops..drop..Drop$GT$4drop17h58de6771a435fc28E+0x38>

0000000040000d28 <_ZN81_$LT$spin..rw_lock..RwLockReadGuard$LT$T$GT$$u20$as$u20$core..ops..drop..Drop$GT$4drop17h6f9aa6ae5cb75700E>:
        unsafe { self.data.as_mut() }
    }
}

impl<'rwlock, T: ?Sized> Drop for RwLockReadGuard<'rwlock, T> {
    fn drop(&mut self) {
    40000d28:	7179                	addi	sp,sp,-48
    40000d2a:	f406                	sd	ra,40(sp)
    40000d2c:	e42a                	sd	a0,8(sp)
    40000d2e:	f02a                	sd	a0,32(sp)
        debug_assert!(self.lock.load(Ordering::Relaxed) & !(WRITER | UPGRADED) > 0);
    40000d30:	6108                	ld	a0,0(a0)
    40000d32:	4581                	li	a1,0
    40000d34:	00b10f23          	sb	a1,30(sp)
    40000d38:	fffff097          	auipc	ra,0xfffff
    40000d3c:	428080e7          	jalr	1064(ra) # 40000160 <_ZN4core4sync6atomic11AtomicUsize4load17h67a5aebe396ba4fbE>
    40000d40:	e82a                	sd	a0,16(sp)
    40000d42:	a009                	j	40000d44 <_ZN81_$LT$spin..rw_lock..RwLockReadGuard$LT$T$GT$$u20$as$u20$core..ops..drop..Drop$GT$4drop17h6f9aa6ae5cb75700E+0x1c>
    40000d44:	6542                	ld	a0,16(sp)
    40000d46:	9971                	andi	a0,a0,-4
    40000d48:	4581                	li	a1,0
    40000d4a:	00b50e63          	beq	a0,a1,40000d66 <_ZN81_$LT$spin..rw_lock..RwLockReadGuard$LT$T$GT$$u20$as$u20$core..ops..drop..Drop$GT$4drop17h6f9aa6ae5cb75700E+0x3e>
    40000d4e:	a009                	j	40000d50 <_ZN81_$LT$spin..rw_lock..RwLockReadGuard$LT$T$GT$$u20$as$u20$core..ops..drop..Drop$GT$4drop17h6f9aa6ae5cb75700E+0x28>
        self.lock.fetch_sub(READER, Ordering::Release);
    40000d50:	6522                	ld	a0,8(sp)
    40000d52:	6108                	ld	a0,0(a0)
    40000d54:	4605                	li	a2,1
    40000d56:	00c10fa3          	sb	a2,31(sp)
    40000d5a:	4591                	li	a1,4
    40000d5c:	fffff097          	auipc	ra,0xfffff
    40000d60:	4ca080e7          	jalr	1226(ra) # 40000226 <_ZN4core4sync6atomic11AtomicUsize9fetch_sub17h51d30d5f8647b71dE>
    40000d64:	a005                	j	40000d84 <_ZN81_$LT$spin..rw_lock..RwLockReadGuard$LT$T$GT$$u20$as$u20$core..ops..drop..Drop$GT$4drop17h6f9aa6ae5cb75700E+0x5c>
        debug_assert!(self.lock.load(Ordering::Relaxed) & !(WRITER | UPGRADED) > 0);
    40000d66:	0000d517          	auipc	a0,0xd
    40000d6a:	d7250513          	addi	a0,a0,-654 # 4000dad8 <all_interrupt_enable+0x100>
    40000d6e:	0000d617          	auipc	a2,0xd
    40000d72:	e1260613          	addi	a2,a2,-494 # 4000db80 <all_interrupt_enable+0x1a8>
    40000d76:	04e00593          	li	a1,78
    40000d7a:	0000c097          	auipc	ra,0xc
    40000d7e:	bb8080e7          	jalr	-1096(ra) # 4000c932 <_ZN4core9panicking5panic17h28296ff19e5e6271E>
    40000d82:	0000                	unimp
    }
    40000d84:	70a2                	ld	ra,40(sp)
    40000d86:	6145                	addi	sp,sp,48
    40000d88:	8082                	ret

0000000040000d8a <_ZN81_$LT$spin..rw_lock..RwLockReadGuard$LT$T$GT$$u20$as$u20$core..ops..drop..Drop$GT$4drop17h8651cf1ab593687aE>:
    fn drop(&mut self) {
    40000d8a:	7179                	addi	sp,sp,-48
    40000d8c:	f406                	sd	ra,40(sp)
    40000d8e:	e42a                	sd	a0,8(sp)
    40000d90:	f02a                	sd	a0,32(sp)
        debug_assert!(self.lock.load(Ordering::Relaxed) & !(WRITER | UPGRADED) > 0);
    40000d92:	6108                	ld	a0,0(a0)
    40000d94:	4581                	li	a1,0
    40000d96:	00b10f23          	sb	a1,30(sp)
    40000d9a:	fffff097          	auipc	ra,0xfffff
    40000d9e:	3c6080e7          	jalr	966(ra) # 40000160 <_ZN4core4sync6atomic11AtomicUsize4load17h67a5aebe396ba4fbE>
    40000da2:	e82a                	sd	a0,16(sp)
    40000da4:	a009                	j	40000da6 <_ZN81_$LT$spin..rw_lock..RwLockReadGuard$LT$T$GT$$u20$as$u20$core..ops..drop..Drop$GT$4drop17h8651cf1ab593687aE+0x1c>
    40000da6:	6542                	ld	a0,16(sp)
    40000da8:	9971                	andi	a0,a0,-4
    40000daa:	4581                	li	a1,0
    40000dac:	00b50e63          	beq	a0,a1,40000dc8 <_ZN81_$LT$spin..rw_lock..RwLockReadGuard$LT$T$GT$$u20$as$u20$core..ops..drop..Drop$GT$4drop17h8651cf1ab593687aE+0x3e>
    40000db0:	a009                	j	40000db2 <_ZN81_$LT$spin..rw_lock..RwLockReadGuard$LT$T$GT$$u20$as$u20$core..ops..drop..Drop$GT$4drop17h8651cf1ab593687aE+0x28>
        self.lock.fetch_sub(READER, Ordering::Release);
    40000db2:	6522                	ld	a0,8(sp)
    40000db4:	6108                	ld	a0,0(a0)
    40000db6:	4605                	li	a2,1
    40000db8:	00c10fa3          	sb	a2,31(sp)
    40000dbc:	4591                	li	a1,4
    40000dbe:	fffff097          	auipc	ra,0xfffff
    40000dc2:	468080e7          	jalr	1128(ra) # 40000226 <_ZN4core4sync6atomic11AtomicUsize9fetch_sub17h51d30d5f8647b71dE>
    40000dc6:	a005                	j	40000de6 <_ZN81_$LT$spin..rw_lock..RwLockReadGuard$LT$T$GT$$u20$as$u20$core..ops..drop..Drop$GT$4drop17h8651cf1ab593687aE+0x5c>
        debug_assert!(self.lock.load(Ordering::Relaxed) & !(WRITER | UPGRADED) > 0);
    40000dc8:	0000d517          	auipc	a0,0xd
    40000dcc:	d1050513          	addi	a0,a0,-752 # 4000dad8 <all_interrupt_enable+0x100>
    40000dd0:	0000d617          	auipc	a2,0xd
    40000dd4:	db060613          	addi	a2,a2,-592 # 4000db80 <all_interrupt_enable+0x1a8>
    40000dd8:	04e00593          	li	a1,78
    40000ddc:	0000c097          	auipc	ra,0xc
    40000de0:	b56080e7          	jalr	-1194(ra) # 4000c932 <_ZN4core9panicking5panic17h28296ff19e5e6271E>
    40000de4:	0000                	unimp
    }
    40000de6:	70a2                	ld	ra,40(sp)
    40000de8:	6145                	addi	sp,sp,48
    40000dea:	8082                	ret

0000000040000dec <_ZN81_$LT$spin..rw_lock..RwLockReadGuard$LT$T$GT$$u20$as$u20$core..ops..drop..Drop$GT$4drop17h8842cba9786c64ffE>:
    fn drop(&mut self) {
    40000dec:	7179                	addi	sp,sp,-48
    40000dee:	f406                	sd	ra,40(sp)
    40000df0:	e42a                	sd	a0,8(sp)
    40000df2:	f02a                	sd	a0,32(sp)
        debug_assert!(self.lock.load(Ordering::Relaxed) & !(WRITER | UPGRADED) > 0);
    40000df4:	6108                	ld	a0,0(a0)
    40000df6:	4581                	li	a1,0
    40000df8:	00b10f23          	sb	a1,30(sp)
    40000dfc:	fffff097          	auipc	ra,0xfffff
    40000e00:	364080e7          	jalr	868(ra) # 40000160 <_ZN4core4sync6atomic11AtomicUsize4load17h67a5aebe396ba4fbE>
    40000e04:	e82a                	sd	a0,16(sp)
    40000e06:	a009                	j	40000e08 <_ZN81_$LT$spin..rw_lock..RwLockReadGuard$LT$T$GT$$u20$as$u20$core..ops..drop..Drop$GT$4drop17h8842cba9786c64ffE+0x1c>
    40000e08:	6542                	ld	a0,16(sp)
    40000e0a:	9971                	andi	a0,a0,-4
    40000e0c:	4581                	li	a1,0
    40000e0e:	00b50e63          	beq	a0,a1,40000e2a <_ZN81_$LT$spin..rw_lock..RwLockReadGuard$LT$T$GT$$u20$as$u20$core..ops..drop..Drop$GT$4drop17h8842cba9786c64ffE+0x3e>
    40000e12:	a009                	j	40000e14 <_ZN81_$LT$spin..rw_lock..RwLockReadGuard$LT$T$GT$$u20$as$u20$core..ops..drop..Drop$GT$4drop17h8842cba9786c64ffE+0x28>
        self.lock.fetch_sub(READER, Ordering::Release);
    40000e14:	6522                	ld	a0,8(sp)
    40000e16:	6108                	ld	a0,0(a0)
    40000e18:	4605                	li	a2,1
    40000e1a:	00c10fa3          	sb	a2,31(sp)
    40000e1e:	4591                	li	a1,4
    40000e20:	fffff097          	auipc	ra,0xfffff
    40000e24:	406080e7          	jalr	1030(ra) # 40000226 <_ZN4core4sync6atomic11AtomicUsize9fetch_sub17h51d30d5f8647b71dE>
    40000e28:	a005                	j	40000e48 <_ZN81_$LT$spin..rw_lock..RwLockReadGuard$LT$T$GT$$u20$as$u20$core..ops..drop..Drop$GT$4drop17h8842cba9786c64ffE+0x5c>
        debug_assert!(self.lock.load(Ordering::Relaxed) & !(WRITER | UPGRADED) > 0);
    40000e2a:	0000d517          	auipc	a0,0xd
    40000e2e:	cae50513          	addi	a0,a0,-850 # 4000dad8 <all_interrupt_enable+0x100>
    40000e32:	0000d617          	auipc	a2,0xd
    40000e36:	d4e60613          	addi	a2,a2,-690 # 4000db80 <all_interrupt_enable+0x1a8>
    40000e3a:	04e00593          	li	a1,78
    40000e3e:	0000c097          	auipc	ra,0xc
    40000e42:	af4080e7          	jalr	-1292(ra) # 4000c932 <_ZN4core9panicking5panic17h28296ff19e5e6271E>
    40000e46:	0000                	unimp
    }
    40000e48:	70a2                	ld	ra,40(sp)
    40000e4a:	6145                	addi	sp,sp,48
    40000e4c:	8082                	ret

0000000040000e4e <_ZN82_$LT$spin..rw_lock..RwLockWriteGuard$LT$T$GT$$u20$as$u20$core..ops..drop..Drop$GT$4drop17h0e5524e5bc60f2b6E>:
        self.lock.fetch_sub(UPGRADED, Ordering::AcqRel);
    }
}

impl<'rwlock, T: ?Sized> Drop for RwLockWriteGuard<'rwlock, T> {
    fn drop(&mut self) {
    40000e4e:	7135                	addi	sp,sp,-160
    40000e50:	ed06                	sd	ra,152(sp)
    40000e52:	ec2a                	sd	a0,24(sp)
    40000e54:	e12a                	sd	a0,128(sp)
        debug_assert_eq!(self.lock.load(Ordering::Relaxed) & WRITER, WRITER);
    40000e56:	6108                	ld	a0,0(a0)
    40000e58:	4581                	li	a1,0
    40000e5a:	04b10323          	sb	a1,70(sp)
    40000e5e:	fffff097          	auipc	ra,0xfffff
    40000e62:	302080e7          	jalr	770(ra) # 40000160 <_ZN4core4sync6atomic11AtomicUsize4load17h67a5aebe396ba4fbE>
    40000e66:	f02a                	sd	a0,32(sp)
    40000e68:	a009                	j	40000e6a <_ZN82_$LT$spin..rw_lock..RwLockWriteGuard$LT$T$GT$$u20$as$u20$core..ops..drop..Drop$GT$4drop17h0e5524e5bc60f2b6E+0x1c>
    40000e6a:	7502                	ld	a0,32(sp)
    40000e6c:	8905                	andi	a0,a0,1
    40000e6e:	fc2a                	sd	a0,56(sp)
    40000e70:	1830                	addi	a2,sp,56
    40000e72:	e432                	sd	a2,8(sp)
    40000e74:	f432                	sd	a2,40(sp)
    40000e76:	0000d597          	auipc	a1,0xd
    40000e7a:	d2258593          	addi	a1,a1,-734 # 4000db98 <all_interrupt_enable+0x1c0>
    40000e7e:	e82e                	sd	a1,16(sp)
    40000e80:	f82e                	sd	a1,48(sp)
    40000e82:	e532                	sd	a2,136(sp)
    40000e84:	e92e                	sd	a1,144(sp)
    40000e86:	618c                	ld	a1,0(a1)
    40000e88:	00b51e63          	bne	a0,a1,40000ea4 <_ZN82_$LT$spin..rw_lock..RwLockWriteGuard$LT$T$GT$$u20$as$u20$core..ops..drop..Drop$GT$4drop17h0e5524e5bc60f2b6E+0x56>
    40000e8c:	a009                	j	40000e8e <_ZN82_$LT$spin..rw_lock..RwLockWriteGuard$LT$T$GT$$u20$as$u20$core..ops..drop..Drop$GT$4drop17h0e5524e5bc60f2b6E+0x40>

        // Writer is responsible for clearing both WRITER and UPGRADED bits.
        // The UPGRADED bit may be set if an upgradeable lock attempts an upgrade while this lock is held.
        self.lock.fetch_and(!(WRITER | UPGRADED), Ordering::Release);
    40000e8e:	6562                	ld	a0,24(sp)
    40000e90:	6108                	ld	a0,0(a0)
    40000e92:	4605                	li	a2,1
    40000e94:	06c10fa3          	sb	a2,127(sp)
    40000e98:	55f1                	li	a1,-4
    40000e9a:	fffff097          	auipc	ra,0xfffff
    40000e9e:	358080e7          	jalr	856(ra) # 400001f2 <_ZN4core4sync6atomic11AtomicUsize9fetch_and17hebf024f45e33cabbE>
    40000ea2:	a00d                	j	40000ec4 <_ZN82_$LT$spin..rw_lock..RwLockWriteGuard$LT$T$GT$$u20$as$u20$core..ops..drop..Drop$GT$4drop17h0e5524e5bc60f2b6E+0x76>
    40000ea4:	6642                	ld	a2,16(sp)
    40000ea6:	65a2                	ld	a1,8(sp)
    40000ea8:	4501                	li	a0,0
        debug_assert_eq!(self.lock.load(Ordering::Relaxed) & WRITER, WRITER);
    40000eaa:	04a103a3          	sb	a0,71(sp)
    40000eae:	e4aa                	sd	a0,72(sp)
    40000eb0:	0000d717          	auipc	a4,0xd
    40000eb4:	cf070713          	addi	a4,a4,-784 # 4000dba0 <all_interrupt_enable+0x1c8>
    40000eb8:	00b4                	addi	a3,sp,72
    40000eba:	00008097          	auipc	ra,0x8
    40000ebe:	caa080e7          	jalr	-854(ra) # 40008b64 <_ZN4core9panicking13assert_failed17h6ea95001fee38999E>
    40000ec2:	0000                	unimp
    }
    40000ec4:	60ea                	ld	ra,152(sp)
    40000ec6:	610d                	addi	sp,sp,160
    40000ec8:	8082                	ret

0000000040000eca <_ZN82_$LT$spin..rw_lock..RwLockWriteGuard$LT$T$GT$$u20$as$u20$core..ops..drop..Drop$GT$4drop17h3a45c6291727680aE>:
    fn drop(&mut self) {
    40000eca:	7135                	addi	sp,sp,-160
    40000ecc:	ed06                	sd	ra,152(sp)
    40000ece:	ec2a                	sd	a0,24(sp)
    40000ed0:	e12a                	sd	a0,128(sp)
        debug_assert_eq!(self.lock.load(Ordering::Relaxed) & WRITER, WRITER);
    40000ed2:	6108                	ld	a0,0(a0)
    40000ed4:	4581                	li	a1,0
    40000ed6:	04b10323          	sb	a1,70(sp)
    40000eda:	fffff097          	auipc	ra,0xfffff
    40000ede:	286080e7          	jalr	646(ra) # 40000160 <_ZN4core4sync6atomic11AtomicUsize4load17h67a5aebe396ba4fbE>
    40000ee2:	f02a                	sd	a0,32(sp)
    40000ee4:	a009                	j	40000ee6 <_ZN82_$LT$spin..rw_lock..RwLockWriteGuard$LT$T$GT$$u20$as$u20$core..ops..drop..Drop$GT$4drop17h3a45c6291727680aE+0x1c>
    40000ee6:	7502                	ld	a0,32(sp)
    40000ee8:	8905                	andi	a0,a0,1
    40000eea:	fc2a                	sd	a0,56(sp)
    40000eec:	1830                	addi	a2,sp,56
    40000eee:	e432                	sd	a2,8(sp)
    40000ef0:	f432                	sd	a2,40(sp)
    40000ef2:	0000d597          	auipc	a1,0xd
    40000ef6:	ca658593          	addi	a1,a1,-858 # 4000db98 <all_interrupt_enable+0x1c0>
    40000efa:	e82e                	sd	a1,16(sp)
    40000efc:	f82e                	sd	a1,48(sp)
    40000efe:	e532                	sd	a2,136(sp)
    40000f00:	e92e                	sd	a1,144(sp)
    40000f02:	618c                	ld	a1,0(a1)
    40000f04:	00b51e63          	bne	a0,a1,40000f20 <_ZN82_$LT$spin..rw_lock..RwLockWriteGuard$LT$T$GT$$u20$as$u20$core..ops..drop..Drop$GT$4drop17h3a45c6291727680aE+0x56>
    40000f08:	a009                	j	40000f0a <_ZN82_$LT$spin..rw_lock..RwLockWriteGuard$LT$T$GT$$u20$as$u20$core..ops..drop..Drop$GT$4drop17h3a45c6291727680aE+0x40>
        self.lock.fetch_and(!(WRITER | UPGRADED), Ordering::Release);
    40000f0a:	6562                	ld	a0,24(sp)
    40000f0c:	6108                	ld	a0,0(a0)
    40000f0e:	4605                	li	a2,1
    40000f10:	06c10fa3          	sb	a2,127(sp)
    40000f14:	55f1                	li	a1,-4
    40000f16:	fffff097          	auipc	ra,0xfffff
    40000f1a:	2dc080e7          	jalr	732(ra) # 400001f2 <_ZN4core4sync6atomic11AtomicUsize9fetch_and17hebf024f45e33cabbE>
    40000f1e:	a00d                	j	40000f40 <_ZN82_$LT$spin..rw_lock..RwLockWriteGuard$LT$T$GT$$u20$as$u20$core..ops..drop..Drop$GT$4drop17h3a45c6291727680aE+0x76>
    40000f20:	6642                	ld	a2,16(sp)
    40000f22:	65a2                	ld	a1,8(sp)
    40000f24:	4501                	li	a0,0
        debug_assert_eq!(self.lock.load(Ordering::Relaxed) & WRITER, WRITER);
    40000f26:	04a103a3          	sb	a0,71(sp)
    40000f2a:	e4aa                	sd	a0,72(sp)
    40000f2c:	0000d717          	auipc	a4,0xd
    40000f30:	c7470713          	addi	a4,a4,-908 # 4000dba0 <all_interrupt_enable+0x1c8>
    40000f34:	00b4                	addi	a3,sp,72
    40000f36:	00008097          	auipc	ra,0x8
    40000f3a:	c2e080e7          	jalr	-978(ra) # 40008b64 <_ZN4core9panicking13assert_failed17h6ea95001fee38999E>
    40000f3e:	0000                	unimp
    }
    40000f40:	60ea                	ld	ra,152(sp)
    40000f42:	610d                	addi	sp,sp,160
    40000f44:	8082                	ret

0000000040000f46 <_ZN82_$LT$spin..rw_lock..RwLockWriteGuard$LT$T$GT$$u20$as$u20$core..ops..drop..Drop$GT$4drop17h6a8af7834efb4f87E>:
    fn drop(&mut self) {
    40000f46:	7135                	addi	sp,sp,-160
    40000f48:	ed06                	sd	ra,152(sp)
    40000f4a:	ec2a                	sd	a0,24(sp)
    40000f4c:	e12a                	sd	a0,128(sp)
        debug_assert_eq!(self.lock.load(Ordering::Relaxed) & WRITER, WRITER);
    40000f4e:	6108                	ld	a0,0(a0)
    40000f50:	4581                	li	a1,0
    40000f52:	04b10323          	sb	a1,70(sp)
    40000f56:	fffff097          	auipc	ra,0xfffff
    40000f5a:	20a080e7          	jalr	522(ra) # 40000160 <_ZN4core4sync6atomic11AtomicUsize4load17h67a5aebe396ba4fbE>
    40000f5e:	f02a                	sd	a0,32(sp)
    40000f60:	a009                	j	40000f62 <_ZN82_$LT$spin..rw_lock..RwLockWriteGuard$LT$T$GT$$u20$as$u20$core..ops..drop..Drop$GT$4drop17h6a8af7834efb4f87E+0x1c>
    40000f62:	7502                	ld	a0,32(sp)
    40000f64:	8905                	andi	a0,a0,1
    40000f66:	fc2a                	sd	a0,56(sp)
    40000f68:	1830                	addi	a2,sp,56
    40000f6a:	e432                	sd	a2,8(sp)
    40000f6c:	f432                	sd	a2,40(sp)
    40000f6e:	0000d597          	auipc	a1,0xd
    40000f72:	c2a58593          	addi	a1,a1,-982 # 4000db98 <all_interrupt_enable+0x1c0>
    40000f76:	e82e                	sd	a1,16(sp)
    40000f78:	f82e                	sd	a1,48(sp)
    40000f7a:	e532                	sd	a2,136(sp)
    40000f7c:	e92e                	sd	a1,144(sp)
    40000f7e:	618c                	ld	a1,0(a1)
    40000f80:	00b51e63          	bne	a0,a1,40000f9c <_ZN82_$LT$spin..rw_lock..RwLockWriteGuard$LT$T$GT$$u20$as$u20$core..ops..drop..Drop$GT$4drop17h6a8af7834efb4f87E+0x56>
    40000f84:	a009                	j	40000f86 <_ZN82_$LT$spin..rw_lock..RwLockWriteGuard$LT$T$GT$$u20$as$u20$core..ops..drop..Drop$GT$4drop17h6a8af7834efb4f87E+0x40>
        self.lock.fetch_and(!(WRITER | UPGRADED), Ordering::Release);
    40000f86:	6562                	ld	a0,24(sp)
    40000f88:	6108                	ld	a0,0(a0)
    40000f8a:	4605                	li	a2,1
    40000f8c:	06c10fa3          	sb	a2,127(sp)
    40000f90:	55f1                	li	a1,-4
    40000f92:	fffff097          	auipc	ra,0xfffff
    40000f96:	260080e7          	jalr	608(ra) # 400001f2 <_ZN4core4sync6atomic11AtomicUsize9fetch_and17hebf024f45e33cabbE>
    40000f9a:	a00d                	j	40000fbc <_ZN82_$LT$spin..rw_lock..RwLockWriteGuard$LT$T$GT$$u20$as$u20$core..ops..drop..Drop$GT$4drop17h6a8af7834efb4f87E+0x76>
    40000f9c:	6642                	ld	a2,16(sp)
    40000f9e:	65a2                	ld	a1,8(sp)
    40000fa0:	4501                	li	a0,0
        debug_assert_eq!(self.lock.load(Ordering::Relaxed) & WRITER, WRITER);
    40000fa2:	04a103a3          	sb	a0,71(sp)
    40000fa6:	e4aa                	sd	a0,72(sp)
    40000fa8:	0000d717          	auipc	a4,0xd
    40000fac:	bf870713          	addi	a4,a4,-1032 # 4000dba0 <all_interrupt_enable+0x1c8>
    40000fb0:	00b4                	addi	a3,sp,72
    40000fb2:	00008097          	auipc	ra,0x8
    40000fb6:	bb2080e7          	jalr	-1102(ra) # 40008b64 <_ZN4core9panicking13assert_failed17h6ea95001fee38999E>
    40000fba:	0000                	unimp
    }
    40000fbc:	60ea                	ld	ra,152(sp)
    40000fbe:	610d                	addi	sp,sp,160
    40000fc0:	8082                	ret

0000000040000fc2 <_ZN88_$LT$spin..mutex..ticket..TicketMutexGuard$LT$T$GT$$u20$as$u20$core..ops..drop..Drop$GT$4drop17hf9c29b175317ad90E>:
        self.value
    }
}

impl<'a, T: ?Sized> Drop for TicketMutexGuard<'a, T> {
    fn drop(&mut self) {
    40000fc2:	7179                	addi	sp,sp,-48
    40000fc4:	f406                	sd	ra,40(sp)
    40000fc6:	e02a                	sd	a0,0(sp)
    40000fc8:	ec2a                	sd	a0,24(sp)
        let new_ticket = self.ticket + 1;
    40000fca:	650c                	ld	a1,8(a0)
    40000fcc:	00158513          	addi	a0,a1,1
    40000fd0:	e42a                	sd	a0,8(sp)
    40000fd2:	00b56f63          	bltu	a0,a1,40000ff0 <_ZN88_$LT$spin..mutex..ticket..TicketMutexGuard$LT$T$GT$$u20$as$u20$core..ops..drop..Drop$GT$4drop17hf9c29b175317ad90E+0x2e>
    40000fd6:	a009                	j	40000fd8 <_ZN88_$LT$spin..mutex..ticket..TicketMutexGuard$LT$T$GT$$u20$as$u20$core..ops..drop..Drop$GT$4drop17hf9c29b175317ad90E+0x16>
    40000fd8:	65a2                	ld	a1,8(sp)
    40000fda:	6502                	ld	a0,0(sp)
    40000fdc:	f02e                	sd	a1,32(sp)
        self.next_serving.store(new_ticket, Ordering::Release);
    40000fde:	6108                	ld	a0,0(a0)
    40000fe0:	4605                	li	a2,1
    40000fe2:	00c10ba3          	sb	a2,23(sp)
    40000fe6:	fffff097          	auipc	ra,0xfffff
    40000fea:	1a8080e7          	jalr	424(ra) # 4000018e <_ZN4core4sync6atomic11AtomicUsize5store17h0b5f22ce63624f0fE>
    40000fee:	a839                	j	4000100c <_ZN88_$LT$spin..mutex..ticket..TicketMutexGuard$LT$T$GT$$u20$as$u20$core..ops..drop..Drop$GT$4drop17hf9c29b175317ad90E+0x4a>
        let new_ticket = self.ticket + 1;
    40000ff0:	0000d517          	auipc	a0,0xd
    40000ff4:	c4050513          	addi	a0,a0,-960 # 4000dc30 <str.0>
    40000ff8:	0000d617          	auipc	a2,0xd
    40000ffc:	c2060613          	addi	a2,a2,-992 # 4000dc18 <all_interrupt_enable+0x240>
    40001000:	45f1                	li	a1,28
    40001002:	0000c097          	auipc	ra,0xc
    40001006:	930080e7          	jalr	-1744(ra) # 4000c932 <_ZN4core9panicking5panic17h28296ff19e5e6271E>
    4000100a:	0000                	unimp
    }
    4000100c:	70a2                	ld	ra,40(sp)
    4000100e:	6145                	addi	sp,sp,48
    40001010:	8082                	ret

0000000040001012 <_ZN13bare_freertos6kernel8portable28v_port_setup_timer_interrupt17h73ee05058d60998fE>:
    }
    
    result
}

pub fn v_port_setup_timer_interrupt() {
    40001012:	1141                	addi	sp,sp,-16
    unsafe{
        clint_timer_init();
    40001014:	e406                	sd	ra,8(sp)
    40001016:	0000a097          	auipc	ra,0xa
    4000101a:	efa080e7          	jalr	-262(ra) # 4000af10 <clint_timer_init>
    4000101e:	a009                	j	40001020 <_ZN13bare_freertos6kernel8portable28v_port_setup_timer_interrupt17h73ee05058d60998fE+0xe>
        *pointer = ULL_NEXT_TIME;
        ULL_NEXT_TIME += uxTimerIncrementsForOneTick as u64;
    }

    //todo
}
    40001020:	60a2                	ld	ra,8(sp)
    40001022:	0141                	addi	sp,sp,16
    40001024:	8082                	ret

0000000040001026 <_ZN13bare_freertos6kernel8portable19auto_set_currentTcb17hd0bd28240e584f0fE>:

pub fn auto_set_currentTcb() {
    40001026:	1101                	addi	sp,sp,-32
    unsafe {
        match get_current_tcb(){
    40001028:	ec06                	sd	ra,24(sp)
    4000102a:	00000097          	auipc	ra,0x0
    4000102e:	1b4080e7          	jalr	436(ra) # 400011de <_ZN13bare_freertos6kernel8portable15get_current_tcb17h8a38df7fb2be09efE>
    40001032:	e42a                	sd	a0,8(sp)
    40001034:	a009                	j	40001036 <_ZN13bare_freertos6kernel8portable19auto_set_currentTcb17hd0bd28240e584f0fE+0x10>
    40001036:	6522                	ld	a0,8(sp)
    40001038:	00a035b3          	snez	a1,a0
    4000103c:	4581                	li	a1,0
    4000103e:	00b50563          	beq	a0,a1,40001048 <_ZN13bare_freertos6kernel8portable19auto_set_currentTcb17hd0bd28240e584f0fE+0x22>
    40001042:	a009                	j	40001044 <_ZN13bare_freertos6kernel8portable19auto_set_currentTcb17hd0bd28240e584f0fE+0x1e>
    40001044:	a809                	j	40001056 <_ZN13bare_freertos6kernel8portable19auto_set_currentTcb17hd0bd28240e584f0fE+0x30>
    40001046:	0000                	unimp
            Some(x) => pxCurrentTCB = x as *const tskTaskControlBlock as usize,
            None => pxCurrentTCB = 0,
    40001048:	00613597          	auipc	a1,0x613
    4000104c:	30058593          	addi	a1,a1,768 # 40614348 <pxCurrentTCB>
    40001050:	4501                	li	a0,0
    40001052:	e188                	sd	a0,0(a1)
    40001054:	a809                	j	40001066 <_ZN13bare_freertos6kernel8portable19auto_set_currentTcb17hd0bd28240e584f0fE+0x40>
            Some(x) => pxCurrentTCB = x as *const tskTaskControlBlock as usize,
    40001056:	6522                	ld	a0,8(sp)
    40001058:	e82a                	sd	a0,16(sp)
    4000105a:	00613597          	auipc	a1,0x613
    4000105e:	2ee58593          	addi	a1,a1,750 # 40614348 <pxCurrentTCB>
    40001062:	e188                	sd	a0,0(a1)
    40001064:	a009                	j	40001066 <_ZN13bare_freertos6kernel8portable19auto_set_currentTcb17hd0bd28240e584f0fE+0x40>
        }
    }
}
    40001066:	60e2                	ld	ra,24(sp)
    40001068:	6105                	addi	sp,sp,32
    4000106a:	8082                	ret

000000004000106c <_ZN13bare_freertos6kernel8portable22x_port_start_scheduler17h874d84f37700b78fE>:
pub fn x_port_start_scheduler() -> bool {
    4000106c:	1141                	addi	sp,sp,-16
    print("11111");
    4000106e:	e406                	sd	ra,8(sp)
    40001070:	0000d517          	auipc	a0,0xd
    40001074:	bdc50513          	addi	a0,a0,-1060 # 4000dc4c <str.0+0x1c>
    40001078:	4595                	li	a1,5
    4000107a:	00004097          	auipc	ra,0x4
    4000107e:	4b0080e7          	jalr	1200(ra) # 4000552a <_ZN13bare_freertos6kernel10riscv_virt5print17h0a76f19372209f34E>
    40001082:	a009                	j	40001084 <_ZN13bare_freertos6kernel8portable22x_port_start_scheduler17h874d84f37700b78fE+0x18>
    unsafe {
        xISRStackTop = (&X_ISRSTACK[CONFIG_ISR_STACK_SIZE_WORDS - 1]) as *const usize;
    40001084:	00613597          	auipc	a1,0x613
    40001088:	2a458593          	addi	a1,a1,676 # 40614328 <xISRStackTop>
    4000108c:	6511                	lui	a0,0x4
    4000108e:	ff85061b          	addiw	a2,a0,-8
    40001092:	0000f517          	auipc	a0,0xf
    40001096:	04650513          	addi	a0,a0,70 # 400100d8 <_ZN13bare_freertos6kernel8portable10X_ISRSTACK17h2b072839eee44fc4E>
    4000109a:	9532                	add	a0,a0,a2
    4000109c:	e188                	sd	a0,0(a1)
    }
    print("22222");
    4000109e:	0000d517          	auipc	a0,0xd
    400010a2:	bb350513          	addi	a0,a0,-1101 # 4000dc51 <str.0+0x21>
    400010a6:	4595                	li	a1,5
    400010a8:	00004097          	auipc	ra,0x4
    400010ac:	482080e7          	jalr	1154(ra) # 4000552a <_ZN13bare_freertos6kernel10riscv_virt5print17h0a76f19372209f34E>
    400010b0:	a009                	j	400010b2 <_ZN13bare_freertos6kernel8portable22x_port_start_scheduler17h874d84f37700b78fE+0x46>
    v_port_setup_timer_interrupt(); // rsc
    400010b2:	00000097          	auipc	ra,0x0
    400010b6:	f60080e7          	jalr	-160(ra) # 40001012 <_ZN13bare_freertos6kernel8portable28v_port_setup_timer_interrupt17h73ee05058d60998fE>
    400010ba:	a009                	j	400010bc <_ZN13bare_freertos6kernel8portable22x_port_start_scheduler17h874d84f37700b78fE+0x50>
    print("33333");
    400010bc:	0000d517          	auipc	a0,0xd
    400010c0:	b9a50513          	addi	a0,a0,-1126 # 4000dc56 <str.0+0x26>
    400010c4:	4595                	li	a1,5
    400010c6:	00004097          	auipc	ra,0x4
    400010ca:	464080e7          	jalr	1124(ra) # 4000552a <_ZN13bare_freertos6kernel10riscv_virt5print17h0a76f19372209f34E>
    400010ce:	a009                	j	400010d0 <_ZN13bare_freertos6kernel8portable22x_port_start_scheduler17h874d84f37700b78fE+0x64>
    400010d0:	6505                	lui	a0,0x1
    400010d2:	8005051b          	addiw	a0,a0,-2048
    let mut tmp: usize = 0x800;
    400010d6:	e02a                	sd	a0,0(sp)
    400010d8:	4581                	li	a1,0
    400010da:	4505                	li	a0,1
    if CONFIG_MTIME_BASE_ADDRESS != 0 && CONFIG_MTIMECMP_BASE_ADDRESS != 0 {
    400010dc:	00b51d63          	bne	a0,a1,400010f6 <_ZN13bare_freertos6kernel8portable22x_port_start_scheduler17h874d84f37700b78fE+0x8a>
    400010e0:	a009                	j	400010e2 <_ZN13bare_freertos6kernel8portable22x_port_start_scheduler17h874d84f37700b78fE+0x76>
        tmp = 0x880;
    }
    print("start first task");
    400010e2:	0000d517          	auipc	a0,0xd
    400010e6:	b7950513          	addi	a0,a0,-1159 # 4000dc5b <str.0+0x2b>
    400010ea:	45c1                	li	a1,16
    400010ec:	00004097          	auipc	ra,0x4
    400010f0:	43e080e7          	jalr	1086(ra) # 4000552a <_ZN13bare_freertos6kernel10riscv_virt5print17h0a76f19372209f34E>
    400010f4:	a031                	j	40001100 <_ZN13bare_freertos6kernel8portable22x_port_start_scheduler17h874d84f37700b78fE+0x94>
    400010f6:	6505                	lui	a0,0x1
    400010f8:	8805051b          	addiw	a0,a0,-1920
        tmp = 0x880;
    400010fc:	e02a                	sd	a0,0(sp)
    if CONFIG_MTIME_BASE_ADDRESS != 0 && CONFIG_MTIMECMP_BASE_ADDRESS != 0 {
    400010fe:	b7d5                	j	400010e2 <_ZN13bare_freertos6kernel8portable22x_port_start_scheduler17h874d84f37700b78fE+0x76>
    unsafe {
        print("111");
    40001100:	0000d517          	auipc	a0,0xd
    40001104:	b6b50513          	addi	a0,a0,-1173 # 4000dc6b <str.0+0x3b>
    40001108:	458d                	li	a1,3
    4000110a:	00004097          	auipc	ra,0x4
    4000110e:	420080e7          	jalr	1056(ra) # 4000552a <_ZN13bare_freertos6kernel10riscv_virt5print17h0a76f19372209f34E>
    40001112:	a009                	j	40001114 <_ZN13bare_freertos6kernel8portable22x_port_start_scheduler17h874d84f37700b78fE+0xa8>
        auto_set_currentTcb();
    40001114:	00000097          	auipc	ra,0x0
    40001118:	f12080e7          	jalr	-238(ra) # 40001026 <_ZN13bare_freertos6kernel8portable19auto_set_currentTcb17hd0bd28240e584f0fE>
    4000111c:	a009                	j	4000111e <_ZN13bare_freertos6kernel8portable22x_port_start_scheduler17h874d84f37700b78fE+0xb2>
        print("222");
    4000111e:	0000d517          	auipc	a0,0xd
    40001122:	b5050513          	addi	a0,a0,-1200 # 4000dc6e <str.0+0x3e>
    40001126:	458d                	li	a1,3
    40001128:	00004097          	auipc	ra,0x4
    4000112c:	402080e7          	jalr	1026(ra) # 4000552a <_ZN13bare_freertos6kernel10riscv_virt5print17h0a76f19372209f34E>
    40001130:	a009                	j	40001132 <_ZN13bare_freertos6kernel8portable22x_port_start_scheduler17h874d84f37700b78fE+0xc6>
        asm!("csrs mie,{0}",in(reg) tmp);
    40001132:	6502                	ld	a0,0(sp)
    40001134:	30452073          	csrs	mie,a0
    40001138:	a009                	j	4000113a <_ZN13bare_freertos6kernel8portable22x_port_start_scheduler17h874d84f37700b78fE+0xce>
        print("333");
    4000113a:	0000d517          	auipc	a0,0xd
    4000113e:	b3750513          	addi	a0,a0,-1225 # 4000dc71 <str.0+0x41>
    40001142:	458d                	li	a1,3
    40001144:	00004097          	auipc	ra,0x4
    40001148:	3e6080e7          	jalr	998(ra) # 4000552a <_ZN13bare_freertos6kernel10riscv_virt5print17h0a76f19372209f34E>
    4000114c:	a009                	j	4000114e <_ZN13bare_freertos6kernel8portable22x_port_start_scheduler17h874d84f37700b78fE+0xe2>
        xPortStartFirstTask();
    4000114e:	0000a097          	auipc	ra,0xa
    40001152:	638080e7          	jalr	1592(ra) # 4000b786 <xPortStartFirstTask>
    40001156:	a009                	j	40001158 <_ZN13bare_freertos6kernel8portable22x_port_start_scheduler17h874d84f37700b78fE+0xec>
    40001158:	4501                	li	a0,0
    }
    false
}
    4000115a:	60a2                	ld	ra,8(sp)
    4000115c:	0141                	addi	sp,sp,16
    4000115e:	8082                	ret

0000000040001160 <_ZN13bare_freertos6kernel8portable15set_current_tcb17h8ba3eb419b1610b7E>:

pub fn set_current_tcb(tcb: Option<ListItemOwnerWeakLink>) {
    40001160:	711d                	addi	sp,sp,-96
    40001162:	ec86                	sd	ra,88(sp)
    40001164:	ec2a                	sd	a0,24(sp)
    unsafe {
        match tcb{
    40001166:	00a035b3          	snez	a1,a0
    4000116a:	4581                	li	a1,0
    4000116c:	00b50563          	beq	a0,a1,40001176 <_ZN13bare_freertos6kernel8portable15set_current_tcb17h8ba3eb419b1610b7E+0x16>
    40001170:	a009                	j	40001172 <_ZN13bare_freertos6kernel8portable15set_current_tcb17h8ba3eb419b1610b7E+0x12>
    40001172:	a821                	j	4000118a <_ZN13bare_freertos6kernel8portable15set_current_tcb17h8ba3eb419b1610b7E+0x2a>
    40001174:	0000                	unimp
    40001176:	4601                	li	a2,0
            Some(x)=>{
                pxCurrentTCB_=Some(&*(*x.into_raw()).read());
            }
            None=>{
                pxCurrentTCB_=None;
    40001178:	e0b2                	sd	a2,64(sp)
    4000117a:	6526                	ld	a0,72(sp)
    4000117c:	0000f597          	auipc	a1,0xf
    40001180:	f4c58593          	addi	a1,a1,-180 # 400100c8 <_ZN13bare_freertos6kernel8portable13pxCurrentTCB_17hf8e7b243035c95b7E>
    40001184:	e190                	sd	a2,0(a1)
    40001186:	e588                	sd	a0,8(a1)
            None=>{
    40001188:	a881                	j	400011d8 <_ZN13bare_freertos6kernel8portable15set_current_tcb17h8ba3eb419b1610b7E+0x78>
            Some(x)=>{
    4000118a:	6562                	ld	a0,24(sp)
    4000118c:	e8aa                	sd	a0,80(sp)
                pxCurrentTCB_=Some(&*(*x.into_raw()).read());
    4000118e:	00001097          	auipc	ra,0x1
    40001192:	e66080e7          	jalr	-410(ra) # 40001ff4 <_ZN5alloc4sync13Weak$LT$T$GT$8into_raw17h0904c86efe0071b9E>
    40001196:	e82a                	sd	a0,16(sp)
    40001198:	a009                	j	4000119a <_ZN13bare_freertos6kernel8portable15set_current_tcb17h8ba3eb419b1610b7E+0x3a>
    4000119a:	6542                	ld	a0,16(sp)
    4000119c:	00001097          	auipc	ra,0x1
    400011a0:	708080e7          	jalr	1800(ra) # 400028a4 <_ZN4spin7rw_lock15RwLock$LT$T$GT$4read17h373f0442302d04d5E>
    400011a4:	f82a                	sd	a0,48(sp)
    400011a6:	fc2e                	sd	a1,56(sp)
    400011a8:	a009                	j	400011aa <_ZN13bare_freertos6kernel8portable15set_current_tcb17h8ba3eb419b1610b7E+0x4a>
    400011aa:	1808                	addi	a0,sp,48
    400011ac:	00002097          	auipc	ra,0x2
    400011b0:	b80080e7          	jalr	-1152(ra) # 40002d2c <_ZN83_$LT$spin..rw_lock..RwLockReadGuard$LT$T$GT$$u20$as$u20$core..ops..deref..Deref$GT$5deref17hfcaa75dc10cbed60E>
    400011b4:	e42a                	sd	a0,8(sp)
    400011b6:	a009                	j	400011b8 <_ZN13bare_freertos6kernel8portable15set_current_tcb17h8ba3eb419b1610b7E+0x58>
    400011b8:	6522                	ld	a0,8(sp)
    400011ba:	f42a                	sd	a0,40(sp)
    400011bc:	4605                	li	a2,1
    400011be:	f032                	sd	a2,32(sp)
    400011c0:	0000f597          	auipc	a1,0xf
    400011c4:	f0858593          	addi	a1,a1,-248 # 400100c8 <_ZN13bare_freertos6kernel8portable13pxCurrentTCB_17hf8e7b243035c95b7E>
    400011c8:	e190                	sd	a2,0(a1)
    400011ca:	e588                	sd	a0,8(a1)
    400011cc:	1808                	addi	a0,sp,48
    400011ce:	fffff097          	auipc	ra,0xfffff
    400011d2:	33a080e7          	jalr	826(ra) # 40000508 <_ZN4core3ptr108drop_in_place$LT$spin..rw_lock..RwLockReadGuard$LT$bare_freertos..kernel..tasks..tskTaskControlBlock$GT$$GT$17h04c4dbfe207bfa49E>
    400011d6:	a009                	j	400011d8 <_ZN13bare_freertos6kernel8portable15set_current_tcb17h8ba3eb419b1610b7E+0x78>
            }
        }
    }
}
    400011d8:	60e6                	ld	ra,88(sp)
    400011da:	6125                	addi	sp,sp,96
    400011dc:	8082                	ret

00000000400011de <_ZN13bare_freertos6kernel8portable15get_current_tcb17h8a38df7fb2be09efE>:

pub fn get_current_tcb()->Option<&'static mut tskTaskControlBlock>{
    400011de:	1141                	addi	sp,sp,-16
    unsafe{
        match pxCurrentTCB_{
    400011e0:	0000f517          	auipc	a0,0xf
    400011e4:	ee850513          	addi	a0,a0,-280 # 400100c8 <_ZN13bare_freertos6kernel8portable13pxCurrentTCB_17hf8e7b243035c95b7E>
    400011e8:	6108                	ld	a0,0(a0)
    400011ea:	4581                	li	a1,0
    400011ec:	00b50563          	beq	a0,a1,400011f6 <_ZN13bare_freertos6kernel8portable15get_current_tcb17h8a38df7fb2be09efE+0x18>
    400011f0:	a009                	j	400011f2 <_ZN13bare_freertos6kernel8portable15get_current_tcb17h8a38df7fb2be09efE+0x14>
    400011f2:	a029                	j	400011fc <_ZN13bare_freertos6kernel8portable15get_current_tcb17h8a38df7fb2be09efE+0x1e>
    400011f4:	0000                	unimp
    400011f6:	4501                	li	a0,0
            Some(x)=>{
                Some(&mut *(x as *mut tskTaskControlBlock))
            }
            None=>{
                None
    400011f8:	e02a                	sd	a0,0(sp)
    400011fa:	a809                	j	4000120c <_ZN13bare_freertos6kernel8portable15get_current_tcb17h8a38df7fb2be09efE+0x2e>
    400011fc:	0000f517          	auipc	a0,0xf
    40001200:	ecc50513          	addi	a0,a0,-308 # 400100c8 <_ZN13bare_freertos6kernel8portable13pxCurrentTCB_17hf8e7b243035c95b7E>
            Some(x)=>{
    40001204:	6508                	ld	a0,8(a0)
    40001206:	e42a                	sd	a0,8(sp)
                Some(&mut *(x as *mut tskTaskControlBlock))
    40001208:	e02a                	sd	a0,0(sp)
            }
    4000120a:	a009                	j	4000120c <_ZN13bare_freertos6kernel8portable15get_current_tcb17h8a38df7fb2be09efE+0x2e>
            }
        }
    }
}
    4000120c:	6502                	ld	a0,0(sp)
    4000120e:	0141                	addi	sp,sp,16
    40001210:	8082                	ret

0000000040001212 <vTaskSwitchContext>:
    }
    
}

#[no_mangle]
pub extern "C" fn vTaskSwitchContext() {
    40001212:	1141                	addi	sp,sp,-16
    //todo
    // print("vTaskSwitchContext");
    //port_disable_interrupts!();
    taskSELECT_HIGHEST_PRIORITY_TASK();
    40001214:	e406                	sd	ra,8(sp)
    40001216:	00003097          	auipc	ra,0x3
    4000121a:	c84080e7          	jalr	-892(ra) # 40003e9a <_ZN13bare_freertos6kernel5tasks32taskSELECT_HIGHEST_PRIORITY_TASK17habb426634df9edc0E>
    4000121e:	a009                	j	40001220 <vTaskSwitchContext+0xe>
                set_current_tcb(Some(&*TCB1_p.read()));
            }
        }
        auto_set_currentTcb();
    }*/
}
    40001220:	60a2                	ld	ra,8(sp)
    40001222:	0141                	addi	sp,sp,16
    40001224:	8082                	ret

0000000040001226 <_ZN58_$LT$core..any..TypeId$u20$as$u20$core..cmp..PartialEq$GT$2eq17h7e3cd793899ea373E>:
    40001226:	1101                	addi	sp,sp,-32
    40001228:	e02a                	sd	a0,0(sp)
    4000122a:	e42e                	sd	a1,8(sp)
    4000122c:	e82e                	sd	a1,16(sp)
    4000122e:	ec2a                	sd	a0,24(sp)
    40001230:	6108                	ld	a0,0(a0)
    40001232:	618c                	ld	a1,0(a1)
    40001234:	8d2d                	xor	a0,a0,a1
    40001236:	00153513          	seqz	a0,a0
    4000123a:	6105                	addi	sp,sp,32
    4000123c:	8082                	ret

000000004000123e <_ZN5alloc5boxed16Box$LT$T$C$A$GT$4leak17h4aef6d8f7084be51E>:
    4000123e:	7139                	addi	sp,sp,-64
    40001240:	fc06                	sd	ra,56(sp)
    40001242:	ec2a                	sd	a0,24(sp)
    40001244:	f42a                	sd	a0,40(sp)
    40001246:	f02a                	sd	a0,32(sp)
    40001248:	e82a                	sd	a0,16(sp)
    4000124a:	a009                	j	4000124c <_ZN5alloc5boxed16Box$LT$T$C$A$GT$4leak17h4aef6d8f7084be51E+0xe>
    4000124c:	0808                	addi	a0,sp,16
    4000124e:	e42a                	sd	a0,8(sp)
    40001250:	f82a                	sd	a0,48(sp)
    40001252:	a009                	j	40001254 <_ZN5alloc5boxed16Box$LT$T$C$A$GT$4leak17h4aef6d8f7084be51E+0x16>
    40001254:	6522                	ld	a0,8(sp)
    40001256:	6108                	ld	a0,0(a0)
    40001258:	00002097          	auipc	ra,0x2
    4000125c:	c70080e7          	jalr	-912(ra) # 40002ec8 <_ZN4core3ptr6unique15Unique$LT$T$GT$6as_ptr17h1d9f8ec6dbb041a7E>
    40001260:	e02a                	sd	a0,0(sp)
    40001262:	a009                	j	40001264 <_ZN5alloc5boxed16Box$LT$T$C$A$GT$4leak17h4aef6d8f7084be51E+0x26>
    40001264:	6502                	ld	a0,0(sp)
    40001266:	70e2                	ld	ra,56(sp)
    40001268:	6121                	addi	sp,sp,64
    4000126a:	8082                	ret

000000004000126c <_ZN5alloc5boxed16Box$LT$T$C$A$GT$4leak17ha714824dbb04ae8dE>:
    4000126c:	7139                	addi	sp,sp,-64
    4000126e:	fc06                	sd	ra,56(sp)
    40001270:	ec2a                	sd	a0,24(sp)
    40001272:	f42a                	sd	a0,40(sp)
    40001274:	f02a                	sd	a0,32(sp)
    40001276:	e82a                	sd	a0,16(sp)
    40001278:	a009                	j	4000127a <_ZN5alloc5boxed16Box$LT$T$C$A$GT$4leak17ha714824dbb04ae8dE+0xe>
    4000127a:	0808                	addi	a0,sp,16
    4000127c:	e42a                	sd	a0,8(sp)
    4000127e:	f82a                	sd	a0,48(sp)
    40001280:	a009                	j	40001282 <_ZN5alloc5boxed16Box$LT$T$C$A$GT$4leak17ha714824dbb04ae8dE+0x16>
    40001282:	6522                	ld	a0,8(sp)
    40001284:	6108                	ld	a0,0(a0)
    40001286:	00002097          	auipc	ra,0x2
    4000128a:	c4a080e7          	jalr	-950(ra) # 40002ed0 <_ZN4core3ptr6unique15Unique$LT$T$GT$6as_ptr17h544f2f96872e8421E>
    4000128e:	e02a                	sd	a0,0(sp)
    40001290:	a009                	j	40001292 <_ZN5alloc5boxed16Box$LT$T$C$A$GT$4leak17ha714824dbb04ae8dE+0x26>
    40001292:	6502                	ld	a0,0(sp)
    40001294:	70e2                	ld	ra,56(sp)
    40001296:	6121                	addi	sp,sp,64
    40001298:	8082                	ret

000000004000129a <_ZN5alloc5boxed16Box$LT$T$C$A$GT$4leak17hbc0a7f1738cf04dcE>:
    4000129a:	7139                	addi	sp,sp,-64
    4000129c:	fc06                	sd	ra,56(sp)
    4000129e:	ec2a                	sd	a0,24(sp)
    400012a0:	f42a                	sd	a0,40(sp)
    400012a2:	f02a                	sd	a0,32(sp)
    400012a4:	e82a                	sd	a0,16(sp)
    400012a6:	a009                	j	400012a8 <_ZN5alloc5boxed16Box$LT$T$C$A$GT$4leak17hbc0a7f1738cf04dcE+0xe>
    400012a8:	0808                	addi	a0,sp,16
    400012aa:	e42a                	sd	a0,8(sp)
    400012ac:	f82a                	sd	a0,48(sp)
    400012ae:	a009                	j	400012b0 <_ZN5alloc5boxed16Box$LT$T$C$A$GT$4leak17hbc0a7f1738cf04dcE+0x16>
    400012b0:	6522                	ld	a0,8(sp)
    400012b2:	6108                	ld	a0,0(a0)
    400012b4:	00002097          	auipc	ra,0x2
    400012b8:	c2c080e7          	jalr	-980(ra) # 40002ee0 <_ZN4core3ptr6unique15Unique$LT$T$GT$6as_ptr17hba079e483f67e90dE>
    400012bc:	e02a                	sd	a0,0(sp)
    400012be:	a009                	j	400012c0 <_ZN5alloc5boxed16Box$LT$T$C$A$GT$4leak17hbc0a7f1738cf04dcE+0x26>
    400012c0:	6502                	ld	a0,0(sp)
    400012c2:	70e2                	ld	ra,56(sp)
    400012c4:	6121                	addi	sp,sp,64
    400012c6:	8082                	ret

00000000400012c8 <_ZN5alloc5boxed16Box$LT$T$C$A$GT$4leak17hef70a8b017c0be17E>:
    400012c8:	7139                	addi	sp,sp,-64
    400012ca:	fc06                	sd	ra,56(sp)
    400012cc:	ec2a                	sd	a0,24(sp)
    400012ce:	f42a                	sd	a0,40(sp)
    400012d0:	f02a                	sd	a0,32(sp)
    400012d2:	e82a                	sd	a0,16(sp)
    400012d4:	a009                	j	400012d6 <_ZN5alloc5boxed16Box$LT$T$C$A$GT$4leak17hef70a8b017c0be17E+0xe>
    400012d6:	0808                	addi	a0,sp,16
    400012d8:	e42a                	sd	a0,8(sp)
    400012da:	f82a                	sd	a0,48(sp)
    400012dc:	a009                	j	400012de <_ZN5alloc5boxed16Box$LT$T$C$A$GT$4leak17hef70a8b017c0be17E+0x16>
    400012de:	6522                	ld	a0,8(sp)
    400012e0:	6108                	ld	a0,0(a0)
    400012e2:	00002097          	auipc	ra,0x2
    400012e6:	c06080e7          	jalr	-1018(ra) # 40002ee8 <_ZN4core3ptr6unique15Unique$LT$T$GT$6as_ptr17hf5b09868968ba36aE>
    400012ea:	e02a                	sd	a0,0(sp)
    400012ec:	a009                	j	400012ee <_ZN5alloc5boxed16Box$LT$T$C$A$GT$4leak17hef70a8b017c0be17E+0x26>
    400012ee:	6502                	ld	a0,0(sp)
    400012f0:	70e2                	ld	ra,56(sp)
    400012f2:	6121                	addi	sp,sp,64
    400012f4:	8082                	ret

00000000400012f6 <_ZN4core5array75_$LT$impl$u20$core..default..Default$u20$for$u20$$u5b$T$u3b$$u20$_$u5d$$GT$7default17h903416dc0ca6768bE>:
    400012f6:	7135                	addi	sp,sp,-160
    400012f8:	ed06                	sd	ra,152(sp)
    400012fa:	e922                	sd	s0,144(sp)
    400012fc:	e526                	sd	s1,136(sp)
    400012fe:	fcaa                	sd	a0,120(sp)
    40001300:	00001097          	auipc	ra,0x1
    40001304:	f2c080e7          	jalr	-212(ra) # 4000222c <_ZN68_$LT$alloc..sync..Arc$LT$T$GT$$u20$as$u20$core..default..Default$GT$7default17hba93a43140b2bc16E>
    40001308:	e12a                	sd	a0,128(sp)
    4000130a:	a009                	j	4000130c <_ZN4core5array75_$LT$impl$u20$core..default..Default$u20$for$u20$$u5b$T$u3b$$u20$_$u5d$$GT$7default17h903416dc0ca6768bE+0x16>
    4000130c:	00001097          	auipc	ra,0x1
    40001310:	f20080e7          	jalr	-224(ra) # 4000222c <_ZN68_$LT$alloc..sync..Arc$LT$T$GT$$u20$as$u20$core..default..Default$GT$7default17hba93a43140b2bc16E>
    40001314:	f8aa                	sd	a0,112(sp)
    40001316:	a009                	j	40001318 <_ZN4core5array75_$LT$impl$u20$core..default..Default$u20$for$u20$$u5b$T$u3b$$u20$_$u5d$$GT$7default17h903416dc0ca6768bE+0x22>
    40001318:	00001097          	auipc	ra,0x1
    4000131c:	f14080e7          	jalr	-236(ra) # 4000222c <_ZN68_$LT$alloc..sync..Arc$LT$T$GT$$u20$as$u20$core..default..Default$GT$7default17hba93a43140b2bc16E>
    40001320:	f4aa                	sd	a0,104(sp)
    40001322:	a009                	j	40001324 <_ZN4core5array75_$LT$impl$u20$core..default..Default$u20$for$u20$$u5b$T$u3b$$u20$_$u5d$$GT$7default17h903416dc0ca6768bE+0x2e>
    40001324:	00001097          	auipc	ra,0x1
    40001328:	f08080e7          	jalr	-248(ra) # 4000222c <_ZN68_$LT$alloc..sync..Arc$LT$T$GT$$u20$as$u20$core..default..Default$GT$7default17hba93a43140b2bc16E>
    4000132c:	f0aa                	sd	a0,96(sp)
    4000132e:	a009                	j	40001330 <_ZN4core5array75_$LT$impl$u20$core..default..Default$u20$for$u20$$u5b$T$u3b$$u20$_$u5d$$GT$7default17h903416dc0ca6768bE+0x3a>
    40001330:	00001097          	auipc	ra,0x1
    40001334:	efc080e7          	jalr	-260(ra) # 4000222c <_ZN68_$LT$alloc..sync..Arc$LT$T$GT$$u20$as$u20$core..default..Default$GT$7default17hba93a43140b2bc16E>
    40001338:	ecaa                	sd	a0,88(sp)
    4000133a:	a009                	j	4000133c <_ZN4core5array75_$LT$impl$u20$core..default..Default$u20$for$u20$$u5b$T$u3b$$u20$_$u5d$$GT$7default17h903416dc0ca6768bE+0x46>
    4000133c:	00001097          	auipc	ra,0x1
    40001340:	ef0080e7          	jalr	-272(ra) # 4000222c <_ZN68_$LT$alloc..sync..Arc$LT$T$GT$$u20$as$u20$core..default..Default$GT$7default17hba93a43140b2bc16E>
    40001344:	e8aa                	sd	a0,80(sp)
    40001346:	a009                	j	40001348 <_ZN4core5array75_$LT$impl$u20$core..default..Default$u20$for$u20$$u5b$T$u3b$$u20$_$u5d$$GT$7default17h903416dc0ca6768bE+0x52>
    40001348:	00001097          	auipc	ra,0x1
    4000134c:	ee4080e7          	jalr	-284(ra) # 4000222c <_ZN68_$LT$alloc..sync..Arc$LT$T$GT$$u20$as$u20$core..default..Default$GT$7default17hba93a43140b2bc16E>
    40001350:	e4aa                	sd	a0,72(sp)
    40001352:	a009                	j	40001354 <_ZN4core5array75_$LT$impl$u20$core..default..Default$u20$for$u20$$u5b$T$u3b$$u20$_$u5d$$GT$7default17h903416dc0ca6768bE+0x5e>
    40001354:	00001097          	auipc	ra,0x1
    40001358:	ed8080e7          	jalr	-296(ra) # 4000222c <_ZN68_$LT$alloc..sync..Arc$LT$T$GT$$u20$as$u20$core..default..Default$GT$7default17hba93a43140b2bc16E>
    4000135c:	e0aa                	sd	a0,64(sp)
    4000135e:	a009                	j	40001360 <_ZN4core5array75_$LT$impl$u20$core..default..Default$u20$for$u20$$u5b$T$u3b$$u20$_$u5d$$GT$7default17h903416dc0ca6768bE+0x6a>
    40001360:	00001097          	auipc	ra,0x1
    40001364:	ecc080e7          	jalr	-308(ra) # 4000222c <_ZN68_$LT$alloc..sync..Arc$LT$T$GT$$u20$as$u20$core..default..Default$GT$7default17hba93a43140b2bc16E>
    40001368:	fc2a                	sd	a0,56(sp)
    4000136a:	a009                	j	4000136c <_ZN4core5array75_$LT$impl$u20$core..default..Default$u20$for$u20$$u5b$T$u3b$$u20$_$u5d$$GT$7default17h903416dc0ca6768bE+0x76>
    4000136c:	00001097          	auipc	ra,0x1
    40001370:	ec0080e7          	jalr	-320(ra) # 4000222c <_ZN68_$LT$alloc..sync..Arc$LT$T$GT$$u20$as$u20$core..default..Default$GT$7default17hba93a43140b2bc16E>
    40001374:	f82a                	sd	a0,48(sp)
    40001376:	a009                	j	40001378 <_ZN4core5array75_$LT$impl$u20$core..default..Default$u20$for$u20$$u5b$T$u3b$$u20$_$u5d$$GT$7default17h903416dc0ca6768bE+0x82>
    40001378:	00001097          	auipc	ra,0x1
    4000137c:	eb4080e7          	jalr	-332(ra) # 4000222c <_ZN68_$LT$alloc..sync..Arc$LT$T$GT$$u20$as$u20$core..default..Default$GT$7default17hba93a43140b2bc16E>
    40001380:	f42a                	sd	a0,40(sp)
    40001382:	a009                	j	40001384 <_ZN4core5array75_$LT$impl$u20$core..default..Default$u20$for$u20$$u5b$T$u3b$$u20$_$u5d$$GT$7default17h903416dc0ca6768bE+0x8e>
    40001384:	00001097          	auipc	ra,0x1
    40001388:	ea8080e7          	jalr	-344(ra) # 4000222c <_ZN68_$LT$alloc..sync..Arc$LT$T$GT$$u20$as$u20$core..default..Default$GT$7default17hba93a43140b2bc16E>
    4000138c:	f02a                	sd	a0,32(sp)
    4000138e:	a009                	j	40001390 <_ZN4core5array75_$LT$impl$u20$core..default..Default$u20$for$u20$$u5b$T$u3b$$u20$_$u5d$$GT$7default17h903416dc0ca6768bE+0x9a>
    40001390:	00001097          	auipc	ra,0x1
    40001394:	e9c080e7          	jalr	-356(ra) # 4000222c <_ZN68_$LT$alloc..sync..Arc$LT$T$GT$$u20$as$u20$core..default..Default$GT$7default17hba93a43140b2bc16E>
    40001398:	ec2a                	sd	a0,24(sp)
    4000139a:	a009                	j	4000139c <_ZN4core5array75_$LT$impl$u20$core..default..Default$u20$for$u20$$u5b$T$u3b$$u20$_$u5d$$GT$7default17h903416dc0ca6768bE+0xa6>
    4000139c:	00001097          	auipc	ra,0x1
    400013a0:	e90080e7          	jalr	-368(ra) # 4000222c <_ZN68_$LT$alloc..sync..Arc$LT$T$GT$$u20$as$u20$core..default..Default$GT$7default17hba93a43140b2bc16E>
    400013a4:	e82a                	sd	a0,16(sp)
    400013a6:	a009                	j	400013a8 <_ZN4core5array75_$LT$impl$u20$core..default..Default$u20$for$u20$$u5b$T$u3b$$u20$_$u5d$$GT$7default17h903416dc0ca6768bE+0xb2>
    400013a8:	00001097          	auipc	ra,0x1
    400013ac:	e84080e7          	jalr	-380(ra) # 4000222c <_ZN68_$LT$alloc..sync..Arc$LT$T$GT$$u20$as$u20$core..default..Default$GT$7default17hba93a43140b2bc16E>
    400013b0:	e42a                	sd	a0,8(sp)
    400013b2:	a009                	j	400013b4 <_ZN4core5array75_$LT$impl$u20$core..default..Default$u20$for$u20$$u5b$T$u3b$$u20$_$u5d$$GT$7default17h903416dc0ca6768bE+0xbe>
    400013b4:	00001097          	auipc	ra,0x1
    400013b8:	e78080e7          	jalr	-392(ra) # 4000222c <_ZN68_$LT$alloc..sync..Arc$LT$T$GT$$u20$as$u20$core..default..Default$GT$7default17hba93a43140b2bc16E>
    400013bc:	e02a                	sd	a0,0(sp)
    400013be:	a009                	j	400013c0 <_ZN4core5array75_$LT$impl$u20$core..default..Default$u20$for$u20$$u5b$T$u3b$$u20$_$u5d$$GT$7default17h903416dc0ca6768bE+0xca>
    400013c0:	6502                	ld	a0,0(sp)
    400013c2:	75e6                	ld	a1,120(sp)
    400013c4:	6622                	ld	a2,8(sp)
    400013c6:	66c2                	ld	a3,16(sp)
    400013c8:	6762                	ld	a4,24(sp)
    400013ca:	7782                	ld	a5,32(sp)
    400013cc:	7822                	ld	a6,40(sp)
    400013ce:	78c2                	ld	a7,48(sp)
    400013d0:	72e2                	ld	t0,56(sp)
    400013d2:	6306                	ld	t1,64(sp)
    400013d4:	63a6                	ld	t2,72(sp)
    400013d6:	6e46                	ld	t3,80(sp)
    400013d8:	6ee6                	ld	t4,88(sp)
    400013da:	7f06                	ld	t5,96(sp)
    400013dc:	7fa6                	ld	t6,104(sp)
    400013de:	7446                	ld	s0,112(sp)
    400013e0:	648a                	ld	s1,128(sp)
    400013e2:	e184                	sd	s1,0(a1)
    400013e4:	e580                	sd	s0,8(a1)
    400013e6:	01f5b823          	sd	t6,16(a1)
    400013ea:	01e5bc23          	sd	t5,24(a1)
    400013ee:	03d5b023          	sd	t4,32(a1)
    400013f2:	03c5b423          	sd	t3,40(a1)
    400013f6:	0275b823          	sd	t2,48(a1)
    400013fa:	0265bc23          	sd	t1,56(a1)
    400013fe:	0455b023          	sd	t0,64(a1)
    40001402:	0515b423          	sd	a7,72(a1)
    40001406:	0505b823          	sd	a6,80(a1)
    4000140a:	edbc                	sd	a5,88(a1)
    4000140c:	f1b8                	sd	a4,96(a1)
    4000140e:	f5b4                	sd	a3,104(a1)
    40001410:	f9b0                	sd	a2,112(a1)
    40001412:	fda8                	sd	a0,120(a1)
    40001414:	60ea                	ld	ra,152(sp)
    40001416:	644a                	ld	s0,144(sp)
    40001418:	64aa                	ld	s1,136(sp)
    4000141a:	610d                	addi	sp,sp,160
    4000141c:	8082                	ret

000000004000141e <_ZN50_$LT$T$u20$as$u20$core..convert..Into$LT$U$GT$$GT$4into17h531357f5f403a515E>:
    4000141e:	1101                	addi	sp,sp,-32
    40001420:	ec06                	sd	ra,24(sp)
    40001422:	e82a                	sd	a0,16(sp)
    40001424:	00001097          	auipc	ra,0x1
    40001428:	2ba080e7          	jalr	698(ra) # 400026de <_ZN98_$LT$core..ptr..non_null..NonNull$LT$T$GT$$u20$as$u20$core..convert..From$LT$$RF$mut$u20$T$GT$$GT$4from17h3bdd3b7f9b09973fE>
    4000142c:	e42a                	sd	a0,8(sp)
    4000142e:	a009                	j	40001430 <_ZN50_$LT$T$u20$as$u20$core..convert..Into$LT$U$GT$$GT$4into17h531357f5f403a515E+0x12>
    40001430:	6522                	ld	a0,8(sp)
    40001432:	60e2                	ld	ra,24(sp)
    40001434:	6105                	addi	sp,sp,32
    40001436:	8082                	ret

0000000040001438 <_ZN50_$LT$T$u20$as$u20$core..convert..Into$LT$U$GT$$GT$4into17h6698806ea55a6ffeE>:
    40001438:	1101                	addi	sp,sp,-32
    4000143a:	ec06                	sd	ra,24(sp)
    4000143c:	e82a                	sd	a0,16(sp)
    4000143e:	00001097          	auipc	ra,0x1
    40001442:	2b4080e7          	jalr	692(ra) # 400026f2 <_ZN98_$LT$core..ptr..non_null..NonNull$LT$T$GT$$u20$as$u20$core..convert..From$LT$$RF$mut$u20$T$GT$$GT$4from17hb40abee565f0dedcE>
    40001446:	e42a                	sd	a0,8(sp)
    40001448:	a009                	j	4000144a <_ZN50_$LT$T$u20$as$u20$core..convert..Into$LT$U$GT$$GT$4into17h6698806ea55a6ffeE+0x12>
    4000144a:	6522                	ld	a0,8(sp)
    4000144c:	60e2                	ld	ra,24(sp)
    4000144e:	6105                	addi	sp,sp,32
    40001450:	8082                	ret

0000000040001452 <_ZN50_$LT$T$u20$as$u20$core..convert..Into$LT$U$GT$$GT$4into17h821995d682aa3cd5E>:
    40001452:	1101                	addi	sp,sp,-32
    40001454:	ec06                	sd	ra,24(sp)
    40001456:	e82a                	sd	a0,16(sp)
    40001458:	00001097          	auipc	ra,0x1
    4000145c:	290080e7          	jalr	656(ra) # 400026e8 <_ZN98_$LT$core..ptr..non_null..NonNull$LT$T$GT$$u20$as$u20$core..convert..From$LT$$RF$mut$u20$T$GT$$GT$4from17hb133c824619aeebcE>
    40001460:	e42a                	sd	a0,8(sp)
    40001462:	a009                	j	40001464 <_ZN50_$LT$T$u20$as$u20$core..convert..Into$LT$U$GT$$GT$4into17h821995d682aa3cd5E+0x12>
    40001464:	6522                	ld	a0,8(sp)
    40001466:	60e2                	ld	ra,24(sp)
    40001468:	6105                	addi	sp,sp,32
    4000146a:	8082                	ret

000000004000146c <_ZN50_$LT$T$u20$as$u20$core..convert..Into$LT$U$GT$$GT$4into17he8410aab3a6398a1E>:
    4000146c:	1101                	addi	sp,sp,-32
    4000146e:	ec06                	sd	ra,24(sp)
    40001470:	e82a                	sd	a0,16(sp)
    40001472:	00001097          	auipc	ra,0x1
    40001476:	28a080e7          	jalr	650(ra) # 400026fc <_ZN98_$LT$core..ptr..non_null..NonNull$LT$T$GT$$u20$as$u20$core..convert..From$LT$$RF$mut$u20$T$GT$$GT$4from17hdea369e50244b4bbE>
    4000147a:	e42a                	sd	a0,8(sp)
    4000147c:	a009                	j	4000147e <_ZN50_$LT$T$u20$as$u20$core..convert..Into$LT$U$GT$$GT$4into17he8410aab3a6398a1E+0x12>
    4000147e:	6522                	ld	a0,8(sp)
    40001480:	60e2                	ld	ra,24(sp)
    40001482:	6105                	addi	sp,sp,32
    40001484:	8082                	ret

0000000040001486 <_ZN5alloc4sync12Arc$LT$T$GT$10from_inner17h1a78be649988aec6E>:
    40001486:	1141                	addi	sp,sp,-16
    40001488:	e42a                	sd	a0,8(sp)
    4000148a:	e02a                	sd	a0,0(sp)
    4000148c:	0141                	addi	sp,sp,16
    4000148e:	8082                	ret

0000000040001490 <_ZN5alloc4sync12Arc$LT$T$GT$10from_inner17h2967b49bc6f5b3c6E>:
    40001490:	1141                	addi	sp,sp,-16
    40001492:	e42a                	sd	a0,8(sp)
    40001494:	e02a                	sd	a0,0(sp)
    40001496:	0141                	addi	sp,sp,16
    40001498:	8082                	ret

000000004000149a <_ZN5alloc4sync12Arc$LT$T$GT$10from_inner17h7365bc9239d621c3E>:
    4000149a:	1141                	addi	sp,sp,-16
    4000149c:	e42a                	sd	a0,8(sp)
    4000149e:	e02a                	sd	a0,0(sp)
    400014a0:	0141                	addi	sp,sp,16
    400014a2:	8082                	ret

00000000400014a4 <_ZN5alloc4sync12Arc$LT$T$GT$10from_inner17hb41fff8464dfb0b9E>:
    400014a4:	1141                	addi	sp,sp,-16
    400014a6:	e42a                	sd	a0,8(sp)
    400014a8:	e02a                	sd	a0,0(sp)
    400014aa:	0141                	addi	sp,sp,16
    400014ac:	8082                	ret

00000000400014ae <_ZN5alloc4sync12Arc$LT$T$GT$17get_mut_unchecked17h2594dd7e5ebee9abE>:
    400014ae:	1101                	addi	sp,sp,-32
    400014b0:	ec06                	sd	ra,24(sp)
    400014b2:	e82a                	sd	a0,16(sp)
    400014b4:	6108                	ld	a0,0(a0)
    400014b6:	00001097          	auipc	ra,0x1
    400014ba:	0fa080e7          	jalr	250(ra) # 400025b0 <_ZN4core3ptr8non_null16NonNull$LT$T$GT$6as_ptr17hf57ca35c1e72da38E>
    400014be:	e42a                	sd	a0,8(sp)
    400014c0:	a009                	j	400014c2 <_ZN5alloc4sync12Arc$LT$T$GT$17get_mut_unchecked17h2594dd7e5ebee9abE+0x14>
    400014c2:	6522                	ld	a0,8(sp)
    400014c4:	0541                	addi	a0,a0,16
    400014c6:	60e2                	ld	ra,24(sp)
    400014c8:	6105                	addi	sp,sp,32
    400014ca:	8082                	ret

00000000400014cc <_ZN5alloc4sync12Arc$LT$T$GT$17get_mut_unchecked17h3a0e3be879669556E>:
    400014cc:	1101                	addi	sp,sp,-32
    400014ce:	ec06                	sd	ra,24(sp)
    400014d0:	e82a                	sd	a0,16(sp)
    400014d2:	6108                	ld	a0,0(a0)
    400014d4:	00001097          	auipc	ra,0x1
    400014d8:	0ac080e7          	jalr	172(ra) # 40002580 <_ZN4core3ptr8non_null16NonNull$LT$T$GT$6as_ptr17h3b56c91fe8670886E>
    400014dc:	e42a                	sd	a0,8(sp)
    400014de:	a009                	j	400014e0 <_ZN5alloc4sync12Arc$LT$T$GT$17get_mut_unchecked17h3a0e3be879669556E+0x14>
    400014e0:	6522                	ld	a0,8(sp)
    400014e2:	0541                	addi	a0,a0,16
    400014e4:	60e2                	ld	ra,24(sp)
    400014e6:	6105                	addi	sp,sp,32
    400014e8:	8082                	ret

00000000400014ea <_ZN5alloc4sync12Arc$LT$T$GT$17get_mut_unchecked17h6fd1ffa934f797bcE>:
    400014ea:	1101                	addi	sp,sp,-32
    400014ec:	ec06                	sd	ra,24(sp)
    400014ee:	e82a                	sd	a0,16(sp)
    400014f0:	6108                	ld	a0,0(a0)
    400014f2:	00001097          	auipc	ra,0x1
    400014f6:	0ae080e7          	jalr	174(ra) # 400025a0 <_ZN4core3ptr8non_null16NonNull$LT$T$GT$6as_ptr17hd2345c746c00bad7E>
    400014fa:	e42a                	sd	a0,8(sp)
    400014fc:	a009                	j	400014fe <_ZN5alloc4sync12Arc$LT$T$GT$17get_mut_unchecked17h6fd1ffa934f797bcE+0x14>
    400014fe:	6522                	ld	a0,8(sp)
    40001500:	0541                	addi	a0,a0,16
    40001502:	60e2                	ld	ra,24(sp)
    40001504:	6105                	addi	sp,sp,32
    40001506:	8082                	ret

0000000040001508 <_ZN5alloc4sync12Arc$LT$T$GT$17get_mut_unchecked17hf12b430d505941eeE>:
    40001508:	1101                	addi	sp,sp,-32
    4000150a:	ec06                	sd	ra,24(sp)
    4000150c:	e82a                	sd	a0,16(sp)
    4000150e:	6108                	ld	a0,0(a0)
    40001510:	00001097          	auipc	ra,0x1
    40001514:	080080e7          	jalr	128(ra) # 40002590 <_ZN4core3ptr8non_null16NonNull$LT$T$GT$6as_ptr17h7d0cf91b7e4d22cdE>
    40001518:	e42a                	sd	a0,8(sp)
    4000151a:	a009                	j	4000151c <_ZN5alloc4sync12Arc$LT$T$GT$17get_mut_unchecked17hf12b430d505941eeE+0x14>
    4000151c:	6522                	ld	a0,8(sp)
    4000151e:	0541                	addi	a0,a0,16
    40001520:	60e2                	ld	ra,24(sp)
    40001522:	6105                	addi	sp,sp,32
    40001524:	8082                	ret

0000000040001526 <_ZN5alloc4sync12Arc$LT$T$GT$3new17h37e5ef6a3b895540E>:
    40001526:	7131                	addi	sp,sp,-192
    40001528:	fd06                	sd	ra,184(sp)
    4000152a:	fc2a                	sd	a0,56(sp)
    4000152c:	05800513          	li	a0,88
    40001530:	45a1                	li	a1,8
    40001532:	00004097          	auipc	ra,0x4
    40001536:	ab4080e7          	jalr	-1356(ra) # 40004fe6 <_ZN5alloc5alloc15exchange_malloc17hd42230eac17c736cE>
    4000153a:	e0aa                	sd	a0,64(sp)
    4000153c:	a009                	j	4000153e <_ZN5alloc4sync12Arc$LT$T$GT$3new17h37e5ef6a3b895540E+0x18>
    4000153e:	6506                	ld	a0,64(sp)
    40001540:	f82a                	sd	a0,48(sp)
    40001542:	4505                	li	a0,1
    40001544:	fffff097          	auipc	ra,0xfffff
    40001548:	c08080e7          	jalr	-1016(ra) # 4000014c <_ZN4core4sync6atomic11AtomicUsize3new17h349a293f188f093cE>
    4000154c:	f12a                	sd	a0,160(sp)
    4000154e:	e4aa                	sd	a0,72(sp)
    40001550:	a009                	j	40001552 <_ZN5alloc4sync12Arc$LT$T$GT$3new17h37e5ef6a3b895540E+0x2c>
    40001552:	4505                	li	a0,1
    40001554:	fffff097          	auipc	ra,0xfffff
    40001558:	bf8080e7          	jalr	-1032(ra) # 4000014c <_ZN4core4sync6atomic11AtomicUsize3new17h349a293f188f093cE>
    4000155c:	f52a                	sd	a0,168(sp)
    4000155e:	e8aa                	sd	a0,80(sp)
    40001560:	a009                	j	40001562 <_ZN5alloc4sync12Arc$LT$T$GT$3new17h37e5ef6a3b895540E+0x3c>
    40001562:	75e2                	ld	a1,56(sp)
    40001564:	08a8                	addi	a0,sp,88
    40001566:	ec2a                	sd	a0,24(sp)
    40001568:	04800613          	li	a2,72
    4000156c:	f032                	sd	a2,32(sp)
    4000156e:	0000c097          	auipc	ra,0xc
    40001572:	2a0080e7          	jalr	672(ra) # 4000d80e <memcpy>
    40001576:	65e2                	ld	a1,24(sp)
    40001578:	7602                	ld	a2,32(sp)
    4000157a:	7542                	ld	a0,48(sp)
    4000157c:	66a6                	ld	a3,72(sp)
    4000157e:	e114                	sd	a3,0(a0)
    40001580:	66c6                	ld	a3,80(sp)
    40001582:	e514                	sd	a3,8(a0)
    40001584:	0541                	addi	a0,a0,16
    40001586:	0000c097          	auipc	ra,0xc
    4000158a:	288080e7          	jalr	648(ra) # 4000d80e <memcpy>
    4000158e:	7542                	ld	a0,48(sp)
    40001590:	f92a                	sd	a0,176(sp)
    40001592:	00000097          	auipc	ra,0x0
    40001596:	d36080e7          	jalr	-714(ra) # 400012c8 <_ZN5alloc5boxed16Box$LT$T$C$A$GT$4leak17hef70a8b017c0be17E>
    4000159a:	f42a                	sd	a0,40(sp)
    4000159c:	a009                	j	4000159e <_ZN5alloc4sync12Arc$LT$T$GT$3new17h37e5ef6a3b895540E+0x78>
    4000159e:	7522                	ld	a0,40(sp)
    400015a0:	00000097          	auipc	ra,0x0
    400015a4:	e7e080e7          	jalr	-386(ra) # 4000141e <_ZN50_$LT$T$u20$as$u20$core..convert..Into$LT$U$GT$$GT$4into17h531357f5f403a515E>
    400015a8:	e82a                	sd	a0,16(sp)
    400015aa:	a009                	j	400015ac <_ZN5alloc4sync12Arc$LT$T$GT$3new17h37e5ef6a3b895540E+0x86>
    400015ac:	6542                	ld	a0,16(sp)
    400015ae:	00000097          	auipc	ra,0x0
    400015b2:	eec080e7          	jalr	-276(ra) # 4000149a <_ZN5alloc4sync12Arc$LT$T$GT$10from_inner17h7365bc9239d621c3E>
    400015b6:	e42a                	sd	a0,8(sp)
    400015b8:	a009                	j	400015ba <_ZN5alloc4sync12Arc$LT$T$GT$3new17h37e5ef6a3b895540E+0x94>
    400015ba:	6522                	ld	a0,8(sp)
    400015bc:	70ea                	ld	ra,184(sp)
    400015be:	6129                	addi	sp,sp,192
    400015c0:	8082                	ret

00000000400015c2 <_ZN5alloc4sync12Arc$LT$T$GT$3new17h6fc3ab98ca5ccef6E>:
    400015c2:	7119                	addi	sp,sp,-128
    400015c4:	fc86                	sd	ra,120(sp)
    400015c6:	f42e                	sd	a1,40(sp)
    400015c8:	f82a                	sd	a0,48(sp)
    400015ca:	e8aa                	sd	a0,80(sp)
    400015cc:	ecae                	sd	a1,88(sp)
    400015ce:	02000513          	li	a0,32
    400015d2:	45a1                	li	a1,8
    400015d4:	00004097          	auipc	ra,0x4
    400015d8:	a12080e7          	jalr	-1518(ra) # 40004fe6 <_ZN5alloc5alloc15exchange_malloc17hd42230eac17c736cE>
    400015dc:	fc2a                	sd	a0,56(sp)
    400015de:	a009                	j	400015e0 <_ZN5alloc4sync12Arc$LT$T$GT$3new17h6fc3ab98ca5ccef6E+0x1e>
    400015e0:	7562                	ld	a0,56(sp)
    400015e2:	f02a                	sd	a0,32(sp)
    400015e4:	4505                	li	a0,1
    400015e6:	fffff097          	auipc	ra,0xfffff
    400015ea:	b66080e7          	jalr	-1178(ra) # 4000014c <_ZN4core4sync6atomic11AtomicUsize3new17h349a293f188f093cE>
    400015ee:	f0aa                	sd	a0,96(sp)
    400015f0:	e0aa                	sd	a0,64(sp)
    400015f2:	a009                	j	400015f4 <_ZN5alloc4sync12Arc$LT$T$GT$3new17h6fc3ab98ca5ccef6E+0x32>
    400015f4:	4505                	li	a0,1
    400015f6:	fffff097          	auipc	ra,0xfffff
    400015fa:	b56080e7          	jalr	-1194(ra) # 4000014c <_ZN4core4sync6atomic11AtomicUsize3new17h349a293f188f093cE>
    400015fe:	f4aa                	sd	a0,104(sp)
    40001600:	e4aa                	sd	a0,72(sp)
    40001602:	a009                	j	40001604 <_ZN5alloc4sync12Arc$LT$T$GT$3new17h6fc3ab98ca5ccef6E+0x42>
    40001604:	7502                	ld	a0,32(sp)
    40001606:	75a2                	ld	a1,40(sp)
    40001608:	7642                	ld	a2,48(sp)
    4000160a:	6686                	ld	a3,64(sp)
    4000160c:	e114                	sd	a3,0(a0)
    4000160e:	66a6                	ld	a3,72(sp)
    40001610:	e514                	sd	a3,8(a0)
    40001612:	e910                	sd	a2,16(a0)
    40001614:	ed0c                	sd	a1,24(a0)
    40001616:	f8aa                	sd	a0,112(sp)
    40001618:	00000097          	auipc	ra,0x0
    4000161c:	c54080e7          	jalr	-940(ra) # 4000126c <_ZN5alloc5boxed16Box$LT$T$C$A$GT$4leak17ha714824dbb04ae8dE>
    40001620:	ec2a                	sd	a0,24(sp)
    40001622:	a009                	j	40001624 <_ZN5alloc4sync12Arc$LT$T$GT$3new17h6fc3ab98ca5ccef6E+0x62>
    40001624:	6562                	ld	a0,24(sp)
    40001626:	00000097          	auipc	ra,0x0
    4000162a:	e46080e7          	jalr	-442(ra) # 4000146c <_ZN50_$LT$T$u20$as$u20$core..convert..Into$LT$U$GT$$GT$4into17he8410aab3a6398a1E>
    4000162e:	e82a                	sd	a0,16(sp)
    40001630:	a009                	j	40001632 <_ZN5alloc4sync12Arc$LT$T$GT$3new17h6fc3ab98ca5ccef6E+0x70>
    40001632:	6542                	ld	a0,16(sp)
    40001634:	00000097          	auipc	ra,0x0
    40001638:	e70080e7          	jalr	-400(ra) # 400014a4 <_ZN5alloc4sync12Arc$LT$T$GT$10from_inner17hb41fff8464dfb0b9E>
    4000163c:	e42a                	sd	a0,8(sp)
    4000163e:	a009                	j	40001640 <_ZN5alloc4sync12Arc$LT$T$GT$3new17h6fc3ab98ca5ccef6E+0x7e>
    40001640:	6522                	ld	a0,8(sp)
    40001642:	70e6                	ld	ra,120(sp)
    40001644:	6109                	addi	sp,sp,128
    40001646:	8082                	ret

0000000040001648 <_ZN5alloc4sync12Arc$LT$T$GT$3new17hc0c8d4ee18894068E>:
    40001648:	7119                	addi	sp,sp,-128
    4000164a:	fc86                	sd	ra,120(sp)
    4000164c:	f02a                	sd	a0,32(sp)
    4000164e:	03000513          	li	a0,48
    40001652:	45a1                	li	a1,8
    40001654:	00004097          	auipc	ra,0x4
    40001658:	992080e7          	jalr	-1646(ra) # 40004fe6 <_ZN5alloc5alloc15exchange_malloc17hd42230eac17c736cE>
    4000165c:	f42a                	sd	a0,40(sp)
    4000165e:	a009                	j	40001660 <_ZN5alloc4sync12Arc$LT$T$GT$3new17hc0c8d4ee18894068E+0x18>
    40001660:	7522                	ld	a0,40(sp)
    40001662:	ec2a                	sd	a0,24(sp)
    40001664:	4505                	li	a0,1
    40001666:	fffff097          	auipc	ra,0xfffff
    4000166a:	ae6080e7          	jalr	-1306(ra) # 4000014c <_ZN4core4sync6atomic11AtomicUsize3new17h349a293f188f093cE>
    4000166e:	f0aa                	sd	a0,96(sp)
    40001670:	f82a                	sd	a0,48(sp)
    40001672:	a009                	j	40001674 <_ZN5alloc4sync12Arc$LT$T$GT$3new17hc0c8d4ee18894068E+0x2c>
    40001674:	4505                	li	a0,1
    40001676:	fffff097          	auipc	ra,0xfffff
    4000167a:	ad6080e7          	jalr	-1322(ra) # 4000014c <_ZN4core4sync6atomic11AtomicUsize3new17h349a293f188f093cE>
    4000167e:	f4aa                	sd	a0,104(sp)
    40001680:	fc2a                	sd	a0,56(sp)
    40001682:	a009                	j	40001684 <_ZN5alloc4sync12Arc$LT$T$GT$3new17hc0c8d4ee18894068E+0x3c>
    40001684:	6562                	ld	a0,24(sp)
    40001686:	7582                	ld	a1,32(sp)
    40001688:	6d90                	ld	a2,24(a1)
    4000168a:	ecb2                	sd	a2,88(sp)
    4000168c:	6990                	ld	a2,16(a1)
    4000168e:	e8b2                	sd	a2,80(sp)
    40001690:	6590                	ld	a2,8(a1)
    40001692:	e4b2                	sd	a2,72(sp)
    40001694:	618c                	ld	a1,0(a1)
    40001696:	e0ae                	sd	a1,64(sp)
    40001698:	75c2                	ld	a1,48(sp)
    4000169a:	e10c                	sd	a1,0(a0)
    4000169c:	75e2                	ld	a1,56(sp)
    4000169e:	e50c                	sd	a1,8(a0)
    400016a0:	6586                	ld	a1,64(sp)
    400016a2:	e90c                	sd	a1,16(a0)
    400016a4:	65a6                	ld	a1,72(sp)
    400016a6:	ed0c                	sd	a1,24(a0)
    400016a8:	65c6                	ld	a1,80(sp)
    400016aa:	f10c                	sd	a1,32(a0)
    400016ac:	65e6                	ld	a1,88(sp)
    400016ae:	f50c                	sd	a1,40(a0)
    400016b0:	f8aa                	sd	a0,112(sp)
    400016b2:	00000097          	auipc	ra,0x0
    400016b6:	b8c080e7          	jalr	-1140(ra) # 4000123e <_ZN5alloc5boxed16Box$LT$T$C$A$GT$4leak17h4aef6d8f7084be51E>
    400016ba:	e82a                	sd	a0,16(sp)
    400016bc:	a009                	j	400016be <_ZN5alloc4sync12Arc$LT$T$GT$3new17hc0c8d4ee18894068E+0x76>
    400016be:	6542                	ld	a0,16(sp)
    400016c0:	00000097          	auipc	ra,0x0
    400016c4:	d78080e7          	jalr	-648(ra) # 40001438 <_ZN50_$LT$T$u20$as$u20$core..convert..Into$LT$U$GT$$GT$4into17h6698806ea55a6ffeE>
    400016c8:	e42a                	sd	a0,8(sp)
    400016ca:	a009                	j	400016cc <_ZN5alloc4sync12Arc$LT$T$GT$3new17hc0c8d4ee18894068E+0x84>
    400016cc:	6522                	ld	a0,8(sp)
    400016ce:	00000097          	auipc	ra,0x0
    400016d2:	db8080e7          	jalr	-584(ra) # 40001486 <_ZN5alloc4sync12Arc$LT$T$GT$10from_inner17h1a78be649988aec6E>
    400016d6:	e02a                	sd	a0,0(sp)
    400016d8:	a009                	j	400016da <_ZN5alloc4sync12Arc$LT$T$GT$3new17hc0c8d4ee18894068E+0x92>
    400016da:	6502                	ld	a0,0(sp)
    400016dc:	70e6                	ld	ra,120(sp)
    400016de:	6109                	addi	sp,sp,128
    400016e0:	8082                	ret

00000000400016e2 <_ZN5alloc4sync12Arc$LT$T$GT$3new17he18c594bba1253c6E>:
    400016e2:	7175                	addi	sp,sp,-144
    400016e4:	e506                	sd	ra,136(sp)
    400016e6:	f02a                	sd	a0,32(sp)
    400016e8:	04000513          	li	a0,64
    400016ec:	45a1                	li	a1,8
    400016ee:	00004097          	auipc	ra,0x4
    400016f2:	8f8080e7          	jalr	-1800(ra) # 40004fe6 <_ZN5alloc5alloc15exchange_malloc17hd42230eac17c736cE>
    400016f6:	f42a                	sd	a0,40(sp)
    400016f8:	a009                	j	400016fa <_ZN5alloc4sync12Arc$LT$T$GT$3new17he18c594bba1253c6E+0x18>
    400016fa:	7522                	ld	a0,40(sp)
    400016fc:	ec2a                	sd	a0,24(sp)
    400016fe:	4505                	li	a0,1
    40001700:	fffff097          	auipc	ra,0xfffff
    40001704:	a4c080e7          	jalr	-1460(ra) # 4000014c <_ZN4core4sync6atomic11AtomicUsize3new17h349a293f188f093cE>
    40001708:	f8aa                	sd	a0,112(sp)
    4000170a:	f82a                	sd	a0,48(sp)
    4000170c:	a009                	j	4000170e <_ZN5alloc4sync12Arc$LT$T$GT$3new17he18c594bba1253c6E+0x2c>
    4000170e:	4505                	li	a0,1
    40001710:	fffff097          	auipc	ra,0xfffff
    40001714:	a3c080e7          	jalr	-1476(ra) # 4000014c <_ZN4core4sync6atomic11AtomicUsize3new17h349a293f188f093cE>
    40001718:	fcaa                	sd	a0,120(sp)
    4000171a:	fc2a                	sd	a0,56(sp)
    4000171c:	a009                	j	4000171e <_ZN5alloc4sync12Arc$LT$T$GT$3new17he18c594bba1253c6E+0x3c>
    4000171e:	6562                	ld	a0,24(sp)
    40001720:	7582                	ld	a1,32(sp)
    40001722:	7590                	ld	a2,40(a1)
    40001724:	f4b2                	sd	a2,104(sp)
    40001726:	7190                	ld	a2,32(a1)
    40001728:	f0b2                	sd	a2,96(sp)
    4000172a:	6d90                	ld	a2,24(a1)
    4000172c:	ecb2                	sd	a2,88(sp)
    4000172e:	6990                	ld	a2,16(a1)
    40001730:	e8b2                	sd	a2,80(sp)
    40001732:	6590                	ld	a2,8(a1)
    40001734:	e4b2                	sd	a2,72(sp)
    40001736:	618c                	ld	a1,0(a1)
    40001738:	e0ae                	sd	a1,64(sp)
    4000173a:	75c2                	ld	a1,48(sp)
    4000173c:	e10c                	sd	a1,0(a0)
    4000173e:	75e2                	ld	a1,56(sp)
    40001740:	e50c                	sd	a1,8(a0)
    40001742:	6586                	ld	a1,64(sp)
    40001744:	e90c                	sd	a1,16(a0)
    40001746:	65a6                	ld	a1,72(sp)
    40001748:	ed0c                	sd	a1,24(a0)
    4000174a:	65c6                	ld	a1,80(sp)
    4000174c:	f10c                	sd	a1,32(a0)
    4000174e:	65e6                	ld	a1,88(sp)
    40001750:	f50c                	sd	a1,40(a0)
    40001752:	7586                	ld	a1,96(sp)
    40001754:	f90c                	sd	a1,48(a0)
    40001756:	75a6                	ld	a1,104(sp)
    40001758:	fd0c                	sd	a1,56(a0)
    4000175a:	e12a                	sd	a0,128(sp)
    4000175c:	00000097          	auipc	ra,0x0
    40001760:	b3e080e7          	jalr	-1218(ra) # 4000129a <_ZN5alloc5boxed16Box$LT$T$C$A$GT$4leak17hbc0a7f1738cf04dcE>
    40001764:	e82a                	sd	a0,16(sp)
    40001766:	a009                	j	40001768 <_ZN5alloc4sync12Arc$LT$T$GT$3new17he18c594bba1253c6E+0x86>
    40001768:	6542                	ld	a0,16(sp)
    4000176a:	00000097          	auipc	ra,0x0
    4000176e:	ce8080e7          	jalr	-792(ra) # 40001452 <_ZN50_$LT$T$u20$as$u20$core..convert..Into$LT$U$GT$$GT$4into17h821995d682aa3cd5E>
    40001772:	e42a                	sd	a0,8(sp)
    40001774:	a009                	j	40001776 <_ZN5alloc4sync12Arc$LT$T$GT$3new17he18c594bba1253c6E+0x94>
    40001776:	6522                	ld	a0,8(sp)
    40001778:	00000097          	auipc	ra,0x0
    4000177c:	d18080e7          	jalr	-744(ra) # 40001490 <_ZN5alloc4sync12Arc$LT$T$GT$10from_inner17h2967b49bc6f5b3c6E>
    40001780:	e02a                	sd	a0,0(sp)
    40001782:	a009                	j	40001784 <_ZN5alloc4sync12Arc$LT$T$GT$3new17he18c594bba1253c6E+0xa2>
    40001784:	6502                	ld	a0,0(sp)
    40001786:	60aa                	ld	ra,136(sp)
    40001788:	6149                	addi	sp,sp,144
    4000178a:	8082                	ret

000000004000178c <_ZN5alloc4sync12Arc$LT$T$GT$5inner17h5dde84270ee7e717E>:
    4000178c:	1101                	addi	sp,sp,-32
    4000178e:	ec06                	sd	ra,24(sp)
    40001790:	e82a                	sd	a0,16(sp)
    40001792:	00001097          	auipc	ra,0x1
    40001796:	ece080e7          	jalr	-306(ra) # 40002660 <_ZN4core3ptr8non_null16NonNull$LT$T$GT$6as_ref17hb229efb56a42f29aE>
    4000179a:	e42a                	sd	a0,8(sp)
    4000179c:	a009                	j	4000179e <_ZN5alloc4sync12Arc$LT$T$GT$5inner17h5dde84270ee7e717E+0x12>
    4000179e:	6522                	ld	a0,8(sp)
    400017a0:	60e2                	ld	ra,24(sp)
    400017a2:	6105                	addi	sp,sp,32
    400017a4:	8082                	ret

00000000400017a6 <_ZN5alloc4sync12Arc$LT$T$GT$5inner17h96932ab6be3a577cE>:
    400017a6:	1101                	addi	sp,sp,-32
    400017a8:	ec06                	sd	ra,24(sp)
    400017aa:	e82a                	sd	a0,16(sp)
    400017ac:	00001097          	auipc	ra,0x1
    400017b0:	e28080e7          	jalr	-472(ra) # 400025d4 <_ZN4core3ptr8non_null16NonNull$LT$T$GT$6as_ref17h492a5ff5f82eb9e4E>
    400017b4:	e42a                	sd	a0,8(sp)
    400017b6:	a009                	j	400017b8 <_ZN5alloc4sync12Arc$LT$T$GT$5inner17h96932ab6be3a577cE+0x12>
    400017b8:	6522                	ld	a0,8(sp)
    400017ba:	60e2                	ld	ra,24(sp)
    400017bc:	6105                	addi	sp,sp,32
    400017be:	8082                	ret

00000000400017c0 <_ZN5alloc4sync12Arc$LT$T$GT$5inner17haf562a9866012f50E>:
    400017c0:	1101                	addi	sp,sp,-32
    400017c2:	ec06                	sd	ra,24(sp)
    400017c4:	e82a                	sd	a0,16(sp)
    400017c6:	00001097          	auipc	ra,0x1
    400017ca:	e2a080e7          	jalr	-470(ra) # 400025f0 <_ZN4core3ptr8non_null16NonNull$LT$T$GT$6as_ref17h5d69692540d22191E>
    400017ce:	e42a                	sd	a0,8(sp)
    400017d0:	a009                	j	400017d2 <_ZN5alloc4sync12Arc$LT$T$GT$5inner17haf562a9866012f50E+0x12>
    400017d2:	6522                	ld	a0,8(sp)
    400017d4:	60e2                	ld	ra,24(sp)
    400017d6:	6105                	addi	sp,sp,32
    400017d8:	8082                	ret

00000000400017da <_ZN5alloc4sync12Arc$LT$T$GT$5inner17he41cb5b8c0b172e7E>:
    400017da:	1101                	addi	sp,sp,-32
    400017dc:	ec06                	sd	ra,24(sp)
    400017de:	e82a                	sd	a0,16(sp)
    400017e0:	00001097          	auipc	ra,0x1
    400017e4:	e64080e7          	jalr	-412(ra) # 40002644 <_ZN4core3ptr8non_null16NonNull$LT$T$GT$6as_ref17h950d4260dc2f9a13E>
    400017e8:	e42a                	sd	a0,8(sp)
    400017ea:	a009                	j	400017ec <_ZN5alloc4sync12Arc$LT$T$GT$5inner17he41cb5b8c0b172e7E+0x12>
    400017ec:	6522                	ld	a0,8(sp)
    400017ee:	60e2                	ld	ra,24(sp)
    400017f0:	6105                	addi	sp,sp,32
    400017f2:	8082                	ret

00000000400017f4 <_ZN5alloc4sync12Arc$LT$T$GT$9downgrade17h164fdb8c917e5ab2E>:
    400017f4:	7159                	addi	sp,sp,-112
    400017f6:	f486                	sd	ra,104(sp)
    400017f8:	ec2a                	sd	a0,24(sp)
    400017fa:	ecaa                	sd	a0,88(sp)
    400017fc:	00000097          	auipc	ra,0x0
    40001800:	f90080e7          	jalr	-112(ra) # 4000178c <_ZN5alloc4sync12Arc$LT$T$GT$5inner17h5dde84270ee7e717E>
    40001804:	f02a                	sd	a0,32(sp)
    40001806:	a009                	j	40001808 <_ZN5alloc4sync12Arc$LT$T$GT$9downgrade17h164fdb8c917e5ab2E+0x14>
    40001808:	7502                	ld	a0,32(sp)
    4000180a:	0521                	addi	a0,a0,8
    4000180c:	4581                	li	a1,0
    4000180e:	02b10f23          	sb	a1,62(sp)
    40001812:	fffff097          	auipc	ra,0xfffff
    40001816:	94e080e7          	jalr	-1714(ra) # 40000160 <_ZN4core4sync6atomic11AtomicUsize4load17h67a5aebe396ba4fbE>
    4000181a:	f82a                	sd	a0,48(sp)
    4000181c:	a009                	j	4000181e <_ZN5alloc4sync12Arc$LT$T$GT$9downgrade17h164fdb8c917e5ab2E+0x2a>
    4000181e:	a009                	j	40001820 <_ZN5alloc4sync12Arc$LT$T$GT$9downgrade17h164fdb8c917e5ab2E+0x2c>
    40001820:	7542                	ld	a0,48(sp)
    40001822:	55fd                	li	a1,-1
    40001824:	00b50a63          	beq	a0,a1,40001838 <_ZN5alloc4sync12Arc$LT$T$GT$9downgrade17h164fdb8c917e5ab2E+0x44>
    40001828:	a009                	j	4000182a <_ZN5alloc4sync12Arc$LT$T$GT$9downgrade17h164fdb8c917e5ab2E+0x36>
    4000182a:	6562                	ld	a0,24(sp)
    4000182c:	00000097          	auipc	ra,0x0
    40001830:	f60080e7          	jalr	-160(ra) # 4000178c <_ZN5alloc4sync12Arc$LT$T$GT$5inner17h5dde84270ee7e717E>
    40001834:	e82a                	sd	a0,16(sp)
    40001836:	a81d                	j	4000186c <_ZN5alloc4sync12Arc$LT$T$GT$9downgrade17h164fdb8c917e5ab2E+0x78>
    40001838:	00005097          	auipc	ra,0x5
    4000183c:	282080e7          	jalr	642(ra) # 40006aba <_ZN4core4hint9spin_loop17hba09d073062188a7E>
    40001840:	a009                	j	40001842 <_ZN5alloc4sync12Arc$LT$T$GT$9downgrade17h164fdb8c917e5ab2E+0x4e>
    40001842:	6562                	ld	a0,24(sp)
    40001844:	00000097          	auipc	ra,0x0
    40001848:	f48080e7          	jalr	-184(ra) # 4000178c <_ZN5alloc4sync12Arc$LT$T$GT$5inner17h5dde84270ee7e717E>
    4000184c:	e42a                	sd	a0,8(sp)
    4000184e:	a009                	j	40001850 <_ZN5alloc4sync12Arc$LT$T$GT$9downgrade17h164fdb8c917e5ab2E+0x5c>
    40001850:	6522                	ld	a0,8(sp)
    40001852:	0521                	addi	a0,a0,8
    40001854:	4581                	li	a1,0
    40001856:	02b10fa3          	sb	a1,63(sp)
    4000185a:	fffff097          	auipc	ra,0xfffff
    4000185e:	906080e7          	jalr	-1786(ra) # 40000160 <_ZN4core4sync6atomic11AtomicUsize4load17h67a5aebe396ba4fbE>
    40001862:	e02a                	sd	a0,0(sp)
    40001864:	a009                	j	40001866 <_ZN5alloc4sync12Arc$LT$T$GT$9downgrade17h164fdb8c917e5ab2E+0x72>
    40001866:	6502                	ld	a0,0(sp)
    40001868:	f82a                	sd	a0,48(sp)
#![no_std]
    4000186a:	bf5d                	j	40001820 <_ZN5alloc4sync12Arc$LT$T$GT$9downgrade17h164fdb8c917e5ab2E+0x2c>
    4000186c:	6542                	ld	a0,16(sp)
    4000186e:	0521                	addi	a0,a0,8
    40001870:	75c2                	ld	a1,48(sp)
    40001872:	00158613          	addi	a2,a1,1
    40001876:	4689                	li	a3,2
    40001878:	04d10b23          	sb	a3,86(sp)
    4000187c:	4701                	li	a4,0
    4000187e:	04e10ba3          	sb	a4,87(sp)
    40001882:	fffff097          	auipc	ra,0xfffff
    40001886:	882080e7          	jalr	-1918(ra) # 40000104 <_ZN4core4sync6atomic11AtomicUsize21compare_exchange_weak17hbb5a74d0adc7a34cE>
    4000188a:	e0aa                	sd	a0,64(sp)
    4000188c:	e4ae                	sd	a1,72(sp)
    4000188e:	a009                	j	40001890 <_ZN5alloc4sync12Arc$LT$T$GT$9downgrade17h164fdb8c917e5ab2E+0x9c>
    40001890:	6506                	ld	a0,64(sp)
    40001892:	4581                	li	a1,0
    40001894:	00b50563          	beq	a0,a1,4000189e <_ZN5alloc4sync12Arc$LT$T$GT$9downgrade17h164fdb8c917e5ab2E+0xaa>
    40001898:	a009                	j	4000189a <_ZN5alloc4sync12Arc$LT$T$GT$9downgrade17h164fdb8c917e5ab2E+0xa6>
    4000189a:	a801                	j	400018aa <_ZN5alloc4sync12Arc$LT$T$GT$9downgrade17h164fdb8c917e5ab2E+0xb6>
    4000189c:	0000                	unimp
    4000189e:	6562                	ld	a0,24(sp)
    400018a0:	6108                	ld	a0,0(a0)
    400018a2:	f42a                	sd	a0,40(sp)
    400018a4:	70a6                	ld	ra,104(sp)
    400018a6:	6165                	addi	sp,sp,112
    400018a8:	8082                	ret
    400018aa:	6526                	ld	a0,72(sp)
    400018ac:	f0aa                	sd	a0,96(sp)
    400018ae:	f82a                	sd	a0,48(sp)
    400018b0:	bf85                	j	40001820 <_ZN5alloc4sync12Arc$LT$T$GT$9downgrade17h164fdb8c917e5ab2E+0x2c>

00000000400018b2 <_ZN5alloc4sync12Arc$LT$T$GT$9downgrade17h431ecb4a7040c16eE>:
    400018b2:	7159                	addi	sp,sp,-112
    400018b4:	f486                	sd	ra,104(sp)
    400018b6:	ec2a                	sd	a0,24(sp)
    400018b8:	ecaa                	sd	a0,88(sp)
    400018ba:	00000097          	auipc	ra,0x0
    400018be:	f20080e7          	jalr	-224(ra) # 400017da <_ZN5alloc4sync12Arc$LT$T$GT$5inner17he41cb5b8c0b172e7E>
    400018c2:	f02a                	sd	a0,32(sp)
    400018c4:	a009                	j	400018c6 <_ZN5alloc4sync12Arc$LT$T$GT$9downgrade17h431ecb4a7040c16eE+0x14>
    400018c6:	7502                	ld	a0,32(sp)
    400018c8:	0521                	addi	a0,a0,8
    400018ca:	4581                	li	a1,0
    400018cc:	02b10f23          	sb	a1,62(sp)
    400018d0:	fffff097          	auipc	ra,0xfffff
    400018d4:	890080e7          	jalr	-1904(ra) # 40000160 <_ZN4core4sync6atomic11AtomicUsize4load17h67a5aebe396ba4fbE>
    400018d8:	f82a                	sd	a0,48(sp)
    400018da:	a009                	j	400018dc <_ZN5alloc4sync12Arc$LT$T$GT$9downgrade17h431ecb4a7040c16eE+0x2a>
    400018dc:	a009                	j	400018de <_ZN5alloc4sync12Arc$LT$T$GT$9downgrade17h431ecb4a7040c16eE+0x2c>
    400018de:	7542                	ld	a0,48(sp)
    400018e0:	55fd                	li	a1,-1
    400018e2:	00b50a63          	beq	a0,a1,400018f6 <_ZN5alloc4sync12Arc$LT$T$GT$9downgrade17h431ecb4a7040c16eE+0x44>
    400018e6:	a009                	j	400018e8 <_ZN5alloc4sync12Arc$LT$T$GT$9downgrade17h431ecb4a7040c16eE+0x36>
    400018e8:	6562                	ld	a0,24(sp)
    400018ea:	00000097          	auipc	ra,0x0
    400018ee:	ef0080e7          	jalr	-272(ra) # 400017da <_ZN5alloc4sync12Arc$LT$T$GT$5inner17he41cb5b8c0b172e7E>
    400018f2:	e82a                	sd	a0,16(sp)
    400018f4:	a81d                	j	4000192a <_ZN5alloc4sync12Arc$LT$T$GT$9downgrade17h431ecb4a7040c16eE+0x78>
    400018f6:	00005097          	auipc	ra,0x5
    400018fa:	1c4080e7          	jalr	452(ra) # 40006aba <_ZN4core4hint9spin_loop17hba09d073062188a7E>
    400018fe:	a009                	j	40001900 <_ZN5alloc4sync12Arc$LT$T$GT$9downgrade17h431ecb4a7040c16eE+0x4e>
    40001900:	6562                	ld	a0,24(sp)
    40001902:	00000097          	auipc	ra,0x0
    40001906:	ed8080e7          	jalr	-296(ra) # 400017da <_ZN5alloc4sync12Arc$LT$T$GT$5inner17he41cb5b8c0b172e7E>
    4000190a:	e42a                	sd	a0,8(sp)
    4000190c:	a009                	j	4000190e <_ZN5alloc4sync12Arc$LT$T$GT$9downgrade17h431ecb4a7040c16eE+0x5c>
    4000190e:	6522                	ld	a0,8(sp)
    40001910:	0521                	addi	a0,a0,8
    40001912:	4581                	li	a1,0
    40001914:	02b10fa3          	sb	a1,63(sp)
    40001918:	fffff097          	auipc	ra,0xfffff
    4000191c:	848080e7          	jalr	-1976(ra) # 40000160 <_ZN4core4sync6atomic11AtomicUsize4load17h67a5aebe396ba4fbE>
    40001920:	e02a                	sd	a0,0(sp)
    40001922:	a009                	j	40001924 <_ZN5alloc4sync12Arc$LT$T$GT$9downgrade17h431ecb4a7040c16eE+0x72>
    40001924:	6502                	ld	a0,0(sp)
    40001926:	f82a                	sd	a0,48(sp)
    40001928:	bf5d                	j	400018de <_ZN5alloc4sync12Arc$LT$T$GT$9downgrade17h431ecb4a7040c16eE+0x2c>
    4000192a:	6542                	ld	a0,16(sp)
    4000192c:	0521                	addi	a0,a0,8
    4000192e:	75c2                	ld	a1,48(sp)
    40001930:	00158613          	addi	a2,a1,1
    40001934:	4689                	li	a3,2
    40001936:	04d10b23          	sb	a3,86(sp)
    4000193a:	4701                	li	a4,0
    4000193c:	04e10ba3          	sb	a4,87(sp)
    40001940:	ffffe097          	auipc	ra,0xffffe
    40001944:	7c4080e7          	jalr	1988(ra) # 40000104 <_ZN4core4sync6atomic11AtomicUsize21compare_exchange_weak17hbb5a74d0adc7a34cE>
    40001948:	e0aa                	sd	a0,64(sp)
    4000194a:	e4ae                	sd	a1,72(sp)
    4000194c:	a009                	j	4000194e <_ZN5alloc4sync12Arc$LT$T$GT$9downgrade17h431ecb4a7040c16eE+0x9c>
    4000194e:	6506                	ld	a0,64(sp)
    40001950:	4581                	li	a1,0
    40001952:	00b50563          	beq	a0,a1,4000195c <_ZN5alloc4sync12Arc$LT$T$GT$9downgrade17h431ecb4a7040c16eE+0xaa>
    40001956:	a009                	j	40001958 <_ZN5alloc4sync12Arc$LT$T$GT$9downgrade17h431ecb4a7040c16eE+0xa6>
    40001958:	a801                	j	40001968 <_ZN5alloc4sync12Arc$LT$T$GT$9downgrade17h431ecb4a7040c16eE+0xb6>
    4000195a:	0000                	unimp
    4000195c:	6562                	ld	a0,24(sp)
    4000195e:	6108                	ld	a0,0(a0)
    40001960:	f42a                	sd	a0,40(sp)
    40001962:	70a6                	ld	ra,104(sp)
    40001964:	6165                	addi	sp,sp,112
    40001966:	8082                	ret
    40001968:	6526                	ld	a0,72(sp)
    4000196a:	f0aa                	sd	a0,96(sp)
    4000196c:	f82a                	sd	a0,48(sp)
    4000196e:	bf85                	j	400018de <_ZN5alloc4sync12Arc$LT$T$GT$9downgrade17h431ecb4a7040c16eE+0x2c>

0000000040001970 <_ZN5alloc4sync12Arc$LT$T$GT$9downgrade17h444bcf5d9ef8f293E>:
    40001970:	7159                	addi	sp,sp,-112
    40001972:	f486                	sd	ra,104(sp)
    40001974:	ec2a                	sd	a0,24(sp)
    40001976:	ecaa                	sd	a0,88(sp)
    40001978:	00000097          	auipc	ra,0x0
    4000197c:	e48080e7          	jalr	-440(ra) # 400017c0 <_ZN5alloc4sync12Arc$LT$T$GT$5inner17haf562a9866012f50E>
    40001980:	f02a                	sd	a0,32(sp)
    40001982:	a009                	j	40001984 <_ZN5alloc4sync12Arc$LT$T$GT$9downgrade17h444bcf5d9ef8f293E+0x14>
    40001984:	7502                	ld	a0,32(sp)
    40001986:	0521                	addi	a0,a0,8
    40001988:	4581                	li	a1,0
    4000198a:	02b10f23          	sb	a1,62(sp)
    4000198e:	ffffe097          	auipc	ra,0xffffe
    40001992:	7d2080e7          	jalr	2002(ra) # 40000160 <_ZN4core4sync6atomic11AtomicUsize4load17h67a5aebe396ba4fbE>
    40001996:	f82a                	sd	a0,48(sp)
    40001998:	a009                	j	4000199a <_ZN5alloc4sync12Arc$LT$T$GT$9downgrade17h444bcf5d9ef8f293E+0x2a>
    4000199a:	a009                	j	4000199c <_ZN5alloc4sync12Arc$LT$T$GT$9downgrade17h444bcf5d9ef8f293E+0x2c>
    4000199c:	7542                	ld	a0,48(sp)
    4000199e:	55fd                	li	a1,-1
    400019a0:	00b50a63          	beq	a0,a1,400019b4 <_ZN5alloc4sync12Arc$LT$T$GT$9downgrade17h444bcf5d9ef8f293E+0x44>
    400019a4:	a009                	j	400019a6 <_ZN5alloc4sync12Arc$LT$T$GT$9downgrade17h444bcf5d9ef8f293E+0x36>
    400019a6:	6562                	ld	a0,24(sp)
    400019a8:	00000097          	auipc	ra,0x0
    400019ac:	e18080e7          	jalr	-488(ra) # 400017c0 <_ZN5alloc4sync12Arc$LT$T$GT$5inner17haf562a9866012f50E>
    400019b0:	e82a                	sd	a0,16(sp)
    400019b2:	a81d                	j	400019e8 <_ZN5alloc4sync12Arc$LT$T$GT$9downgrade17h444bcf5d9ef8f293E+0x78>
    400019b4:	00005097          	auipc	ra,0x5
    400019b8:	106080e7          	jalr	262(ra) # 40006aba <_ZN4core4hint9spin_loop17hba09d073062188a7E>
    400019bc:	a009                	j	400019be <_ZN5alloc4sync12Arc$LT$T$GT$9downgrade17h444bcf5d9ef8f293E+0x4e>
    400019be:	6562                	ld	a0,24(sp)
    400019c0:	00000097          	auipc	ra,0x0
    400019c4:	e00080e7          	jalr	-512(ra) # 400017c0 <_ZN5alloc4sync12Arc$LT$T$GT$5inner17haf562a9866012f50E>
    400019c8:	e42a                	sd	a0,8(sp)
    400019ca:	a009                	j	400019cc <_ZN5alloc4sync12Arc$LT$T$GT$9downgrade17h444bcf5d9ef8f293E+0x5c>
    400019cc:	6522                	ld	a0,8(sp)
    400019ce:	0521                	addi	a0,a0,8
    400019d0:	4581                	li	a1,0
    400019d2:	02b10fa3          	sb	a1,63(sp)
    400019d6:	ffffe097          	auipc	ra,0xffffe
    400019da:	78a080e7          	jalr	1930(ra) # 40000160 <_ZN4core4sync6atomic11AtomicUsize4load17h67a5aebe396ba4fbE>
    400019de:	e02a                	sd	a0,0(sp)
    400019e0:	a009                	j	400019e2 <_ZN5alloc4sync12Arc$LT$T$GT$9downgrade17h444bcf5d9ef8f293E+0x72>
    400019e2:	6502                	ld	a0,0(sp)
    400019e4:	f82a                	sd	a0,48(sp)
    400019e6:	bf5d                	j	4000199c <_ZN5alloc4sync12Arc$LT$T$GT$9downgrade17h444bcf5d9ef8f293E+0x2c>
    400019e8:	6542                	ld	a0,16(sp)
    400019ea:	0521                	addi	a0,a0,8
    400019ec:	75c2                	ld	a1,48(sp)
    400019ee:	00158613          	addi	a2,a1,1
    400019f2:	4689                	li	a3,2
    400019f4:	04d10b23          	sb	a3,86(sp)
    400019f8:	4701                	li	a4,0
    400019fa:	04e10ba3          	sb	a4,87(sp)
    400019fe:	ffffe097          	auipc	ra,0xffffe
    40001a02:	706080e7          	jalr	1798(ra) # 40000104 <_ZN4core4sync6atomic11AtomicUsize21compare_exchange_weak17hbb5a74d0adc7a34cE>
    40001a06:	e0aa                	sd	a0,64(sp)
    40001a08:	e4ae                	sd	a1,72(sp)
    40001a0a:	a009                	j	40001a0c <_ZN5alloc4sync12Arc$LT$T$GT$9downgrade17h444bcf5d9ef8f293E+0x9c>
    40001a0c:	6506                	ld	a0,64(sp)
    40001a0e:	4581                	li	a1,0
    40001a10:	00b50563          	beq	a0,a1,40001a1a <_ZN5alloc4sync12Arc$LT$T$GT$9downgrade17h444bcf5d9ef8f293E+0xaa>
    40001a14:	a009                	j	40001a16 <_ZN5alloc4sync12Arc$LT$T$GT$9downgrade17h444bcf5d9ef8f293E+0xa6>
    40001a16:	a801                	j	40001a26 <_ZN5alloc4sync12Arc$LT$T$GT$9downgrade17h444bcf5d9ef8f293E+0xb6>
    40001a18:	0000                	unimp
    40001a1a:	6562                	ld	a0,24(sp)
    40001a1c:	6108                	ld	a0,0(a0)
    40001a1e:	f42a                	sd	a0,40(sp)
    40001a20:	70a6                	ld	ra,104(sp)
    40001a22:	6165                	addi	sp,sp,112
    40001a24:	8082                	ret
    40001a26:	6526                	ld	a0,72(sp)
    40001a28:	f0aa                	sd	a0,96(sp)
    40001a2a:	f82a                	sd	a0,48(sp)
    40001a2c:	bf85                	j	4000199c <_ZN5alloc4sync12Arc$LT$T$GT$9downgrade17h444bcf5d9ef8f293E+0x2c>

0000000040001a2e <_ZN5alloc4sync12Arc$LT$T$GT$9drop_slow17h4a2768b499ccdc27E>:
    40001a2e:	7179                	addi	sp,sp,-48
    40001a30:	f406                	sd	ra,40(sp)
    40001a32:	e42a                	sd	a0,8(sp)
    40001a34:	f02a                	sd	a0,32(sp)
    40001a36:	00000097          	auipc	ra,0x0
    40001a3a:	ab4080e7          	jalr	-1356(ra) # 400014ea <_ZN5alloc4sync12Arc$LT$T$GT$17get_mut_unchecked17h6fd1ffa934f797bcE>
    40001a3e:	e82a                	sd	a0,16(sp)
    40001a40:	a009                	j	40001a42 <_ZN5alloc4sync12Arc$LT$T$GT$9drop_slow17h4a2768b499ccdc27E+0x14>
    40001a42:	6542                	ld	a0,16(sp)
    40001a44:	fffff097          	auipc	ra,0xfffff
    40001a48:	dc6080e7          	jalr	-570(ra) # 4000080a <_ZN4core3ptr91drop_in_place$LT$spin..rw_lock..RwLock$LT$bare_freertos..kernel..linked_list..XList$GT$$GT$17he0024edd434bae28E>
    40001a4c:	a009                	j	40001a4e <_ZN5alloc4sync12Arc$LT$T$GT$9drop_slow17h4a2768b499ccdc27E+0x20>
    40001a4e:	6522                	ld	a0,8(sp)
    40001a50:	6108                	ld	a0,0(a0)
    40001a52:	ec2a                	sd	a0,24(sp)
    40001a54:	00003097          	auipc	ra,0x3
    40001a58:	4da080e7          	jalr	1242(ra) # 40004f2e <_ZN4core3mem4drop17h4d45cadc1319632cE>
    40001a5c:	a009                	j	40001a5e <_ZN5alloc4sync12Arc$LT$T$GT$9drop_slow17h4a2768b499ccdc27E+0x30>
    40001a5e:	70a2                	ld	ra,40(sp)
    40001a60:	6145                	addi	sp,sp,48
    40001a62:	8082                	ret

0000000040001a64 <_ZN5alloc4sync12Arc$LT$T$GT$9drop_slow17h8e9b17e5db94950bE>:
    40001a64:	7179                	addi	sp,sp,-48
    40001a66:	f406                	sd	ra,40(sp)
    40001a68:	e42a                	sd	a0,8(sp)
    40001a6a:	f02a                	sd	a0,32(sp)
    40001a6c:	00000097          	auipc	ra,0x0
    40001a70:	a60080e7          	jalr	-1440(ra) # 400014cc <_ZN5alloc4sync12Arc$LT$T$GT$17get_mut_unchecked17h3a0e3be879669556E>
    40001a74:	e82a                	sd	a0,16(sp)
    40001a76:	a009                	j	40001a78 <_ZN5alloc4sync12Arc$LT$T$GT$9drop_slow17h8e9b17e5db94950bE+0x14>
    40001a78:	6542                	ld	a0,16(sp)
    40001a7a:	fffff097          	auipc	ra,0xfffff
    40001a7e:	e02080e7          	jalr	-510(ra) # 4000087c <_ZN4core3ptr99drop_in_place$LT$spin..rw_lock..RwLock$LT$bare_freertos..kernel..tasks..tskTaskControlBlock$GT$$GT$17h9b5dde0d6eeac659E>
    40001a82:	a009                	j	40001a84 <_ZN5alloc4sync12Arc$LT$T$GT$9drop_slow17h8e9b17e5db94950bE+0x20>
    40001a84:	6522                	ld	a0,8(sp)
    40001a86:	6108                	ld	a0,0(a0)
    40001a88:	ec2a                	sd	a0,24(sp)
    40001a8a:	00003097          	auipc	ra,0x3
    40001a8e:	4bc080e7          	jalr	1212(ra) # 40004f46 <_ZN4core3mem4drop17h83f93fa520627e30E>
    40001a92:	a009                	j	40001a94 <_ZN5alloc4sync12Arc$LT$T$GT$9drop_slow17h8e9b17e5db94950bE+0x30>
    40001a94:	70a2                	ld	ra,40(sp)
    40001a96:	6145                	addi	sp,sp,48
    40001a98:	8082                	ret

0000000040001a9a <_ZN5alloc4sync12Arc$LT$T$GT$9drop_slow17hdc069c342a5ccef3E>:
    40001a9a:	7179                	addi	sp,sp,-48
    40001a9c:	f406                	sd	ra,40(sp)
    40001a9e:	e42a                	sd	a0,8(sp)
    40001aa0:	f02a                	sd	a0,32(sp)
    40001aa2:	00000097          	auipc	ra,0x0
    40001aa6:	a66080e7          	jalr	-1434(ra) # 40001508 <_ZN5alloc4sync12Arc$LT$T$GT$17get_mut_unchecked17hf12b430d505941eeE>
    40001aaa:	e82a                	sd	a0,16(sp)
    40001aac:	a009                	j	40001aae <_ZN5alloc4sync12Arc$LT$T$GT$9drop_slow17hdc069c342a5ccef3E+0x14>
    40001aae:	6542                	ld	a0,16(sp)
    40001ab0:	fffff097          	auipc	ra,0xfffff
    40001ab4:	d88080e7          	jalr	-632(ra) # 40000838 <_ZN4core3ptr95drop_in_place$LT$spin..rw_lock..RwLock$LT$bare_freertos..kernel..linked_list..XListItem$GT$$GT$17heaf26bcc9af68d33E>
    40001ab8:	a009                	j	40001aba <_ZN5alloc4sync12Arc$LT$T$GT$9drop_slow17hdc069c342a5ccef3E+0x20>
    40001aba:	6522                	ld	a0,8(sp)
    40001abc:	6108                	ld	a0,0(a0)
    40001abe:	ec2a                	sd	a0,24(sp)
    40001ac0:	00003097          	auipc	ra,0x3
    40001ac4:	4b6080e7          	jalr	1206(ra) # 40004f76 <_ZN4core3mem4drop17heda079c077181cacE>
    40001ac8:	a009                	j	40001aca <_ZN5alloc4sync12Arc$LT$T$GT$9drop_slow17hdc069c342a5ccef3E+0x30>
    40001aca:	70a2                	ld	ra,40(sp)
    40001acc:	6145                	addi	sp,sp,48
    40001ace:	8082                	ret

0000000040001ad0 <_ZN5alloc4sync12Arc$LT$T$GT$9drop_slow17hfa8b617a19258aacE>:
    40001ad0:	1101                	addi	sp,sp,-32
    40001ad2:	ec06                	sd	ra,24(sp)
    40001ad4:	e02a                	sd	a0,0(sp)
    40001ad6:	e82a                	sd	a0,16(sp)
    40001ad8:	00000097          	auipc	ra,0x0
    40001adc:	9d6080e7          	jalr	-1578(ra) # 400014ae <_ZN5alloc4sync12Arc$LT$T$GT$17get_mut_unchecked17h2594dd7e5ebee9abE>
    40001ae0:	a009                	j	40001ae2 <_ZN5alloc4sync12Arc$LT$T$GT$9drop_slow17hfa8b617a19258aacE+0x12>
    40001ae2:	a009                	j	40001ae4 <_ZN5alloc4sync12Arc$LT$T$GT$9drop_slow17hfa8b617a19258aacE+0x14>
    40001ae4:	6502                	ld	a0,0(sp)
    40001ae6:	6108                	ld	a0,0(a0)
    40001ae8:	e42a                	sd	a0,8(sp)
    40001aea:	00003097          	auipc	ra,0x3
    40001aee:	474080e7          	jalr	1140(ra) # 40004f5e <_ZN4core3mem4drop17h8e3de1365368837bE>
    40001af2:	a009                	j	40001af4 <_ZN5alloc4sync12Arc$LT$T$GT$9drop_slow17hfa8b617a19258aacE+0x24>
    40001af4:	60e2                	ld	ra,24(sp)
    40001af6:	6105                	addi	sp,sp,32
    40001af8:	8082                	ret

0000000040001afa <_ZN5alloc4sync13Weak$LT$T$GT$3new17h09b761cdd484fa4dE>:
    40001afa:	1101                	addi	sp,sp,-32
    40001afc:	ec06                	sd	ra,24(sp)
    40001afe:	557d                	li	a0,-1
    40001b00:	00001097          	auipc	ra,0x1
    40001b04:	94e080e7          	jalr	-1714(ra) # 4000244e <_ZN4core3ptr8non_null16NonNull$LT$T$GT$13new_unchecked17h88cfef9a5542d04eE>
    40001b08:	e42a                	sd	a0,8(sp)
    40001b0a:	a009                	j	40001b0c <_ZN5alloc4sync13Weak$LT$T$GT$3new17h09b761cdd484fa4dE+0x12>
    40001b0c:	6522                	ld	a0,8(sp)
    40001b0e:	e82a                	sd	a0,16(sp)
    40001b10:	60e2                	ld	ra,24(sp)
    40001b12:	6105                	addi	sp,sp,32
    40001b14:	8082                	ret

0000000040001b16 <_ZN5alloc4sync13Weak$LT$T$GT$3new17h7e77f206fb339894E>:
    40001b16:	1101                	addi	sp,sp,-32
    40001b18:	ec06                	sd	ra,24(sp)
    40001b1a:	557d                	li	a0,-1
    40001b1c:	00001097          	auipc	ra,0x1
    40001b20:	914080e7          	jalr	-1772(ra) # 40002430 <_ZN4core3ptr8non_null16NonNull$LT$T$GT$13new_unchecked17h3bc8b5b5dc34fb1fE>
    40001b24:	e42a                	sd	a0,8(sp)
    40001b26:	a009                	j	40001b28 <_ZN5alloc4sync13Weak$LT$T$GT$3new17h7e77f206fb339894E+0x12>
    40001b28:	6522                	ld	a0,8(sp)
    40001b2a:	e82a                	sd	a0,16(sp)
    40001b2c:	60e2                	ld	ra,24(sp)
    40001b2e:	6105                	addi	sp,sp,32
    40001b30:	8082                	ret

0000000040001b32 <_ZN5alloc4sync13Weak$LT$T$GT$3new17hef9c3324c972371aE>:
    40001b32:	1101                	addi	sp,sp,-32
    40001b34:	ec06                	sd	ra,24(sp)
    40001b36:	557d                	li	a0,-1
    40001b38:	00001097          	auipc	ra,0x1
    40001b3c:	902080e7          	jalr	-1790(ra) # 4000243a <_ZN4core3ptr8non_null16NonNull$LT$T$GT$13new_unchecked17h464daa2e0ff26b11E>
    40001b40:	e42a                	sd	a0,8(sp)
    40001b42:	a009                	j	40001b44 <_ZN5alloc4sync13Weak$LT$T$GT$3new17hef9c3324c972371aE+0x12>
    40001b44:	6522                	ld	a0,8(sp)
    40001b46:	e82a                	sd	a0,16(sp)
    40001b48:	60e2                	ld	ra,24(sp)
    40001b4a:	6105                	addi	sp,sp,32
    40001b4c:	8082                	ret

0000000040001b4e <_ZN5alloc4sync13Weak$LT$T$GT$5inner17h1635089628a8e5a0E>:
    40001b4e:	711d                	addi	sp,sp,-96
    40001b50:	ec86                	sd	ra,88(sp)
    40001b52:	ec2a                	sd	a0,24(sp)
    40001b54:	e4aa                	sd	a0,72(sp)
    40001b56:	6108                	ld	a0,0(a0)
    40001b58:	00001097          	auipc	ra,0x1
    40001b5c:	a28080e7          	jalr	-1496(ra) # 40002580 <_ZN4core3ptr8non_null16NonNull$LT$T$GT$6as_ptr17h3b56c91fe8670886E>
    40001b60:	f02a                	sd	a0,32(sp)
    40001b62:	a009                	j	40001b64 <_ZN5alloc4sync13Weak$LT$T$GT$5inner17h1635089628a8e5a0E+0x16>
    40001b64:	7502                	ld	a0,32(sp)
    40001b66:	00005097          	auipc	ra,0x5
    40001b6a:	23e080e7          	jalr	574(ra) # 40006da4 <_ZN5alloc2rc11is_dangling17h5b7492be7ba957beE>
    40001b6e:	e82a                	sd	a0,16(sp)
    40001b70:	a009                	j	40001b72 <_ZN5alloc4sync13Weak$LT$T$GT$5inner17h1635089628a8e5a0E+0x24>
    40001b72:	6542                	ld	a0,16(sp)
    40001b74:	4581                	li	a1,0
    40001b76:	00b51d63          	bne	a0,a1,40001b90 <_ZN5alloc4sync13Weak$LT$T$GT$5inner17h1635089628a8e5a0E+0x42>
    40001b7a:	a009                	j	40001b7c <_ZN5alloc4sync13Weak$LT$T$GT$5inner17h1635089628a8e5a0E+0x2e>
    40001b7c:	6562                	ld	a0,24(sp)
    40001b7e:	6108                	ld	a0,0(a0)
    40001b80:	00001097          	auipc	ra,0x1
    40001b84:	a00080e7          	jalr	-1536(ra) # 40002580 <_ZN4core3ptr8non_null16NonNull$LT$T$GT$6as_ptr17h3b56c91fe8670886E>
    40001b88:	85aa                	mv	a1,a0
    40001b8a:	e42e                	sd	a1,8(sp)
    40001b8c:	e8aa                	sd	a0,80(sp)
    40001b8e:	a809                	j	40001ba0 <_ZN5alloc4sync13Weak$LT$T$GT$5inner17h1635089628a8e5a0E+0x52>
    40001b90:	4501                	li	a0,0
    40001b92:	f42a                	sd	a0,40(sp)
    40001b94:	a009                	j	40001b96 <_ZN5alloc4sync13Weak$LT$T$GT$5inner17h1635089628a8e5a0E+0x48>
    40001b96:	7522                	ld	a0,40(sp)
    40001b98:	75c2                	ld	a1,48(sp)
    40001b9a:	60e6                	ld	ra,88(sp)
    40001b9c:	6125                	addi	sp,sp,96
    40001b9e:	8082                	ret
    40001ba0:	6522                	ld	a0,8(sp)
    40001ba2:	00850593          	addi	a1,a0,8
    40001ba6:	fc2e                	sd	a1,56(sp)
    40001ba8:	e0aa                	sd	a0,64(sp)
    40001baa:	f42e                	sd	a1,40(sp)
    40001bac:	f82a                	sd	a0,48(sp)
    40001bae:	b7e5                	j	40001b96 <_ZN5alloc4sync13Weak$LT$T$GT$5inner17h1635089628a8e5a0E+0x48>

0000000040001bb0 <_ZN5alloc4sync13Weak$LT$T$GT$5inner17h2c4953d20cd91706E>:
    40001bb0:	711d                	addi	sp,sp,-96
    40001bb2:	ec86                	sd	ra,88(sp)
    40001bb4:	ec2a                	sd	a0,24(sp)
    40001bb6:	e4aa                	sd	a0,72(sp)
    40001bb8:	6108                	ld	a0,0(a0)
    40001bba:	00001097          	auipc	ra,0x1
    40001bbe:	9d6080e7          	jalr	-1578(ra) # 40002590 <_ZN4core3ptr8non_null16NonNull$LT$T$GT$6as_ptr17h7d0cf91b7e4d22cdE>
    40001bc2:	f02a                	sd	a0,32(sp)
    40001bc4:	a009                	j	40001bc6 <_ZN5alloc4sync13Weak$LT$T$GT$5inner17h2c4953d20cd91706E+0x16>
    40001bc6:	7502                	ld	a0,32(sp)
    40001bc8:	00005097          	auipc	ra,0x5
    40001bcc:	20c080e7          	jalr	524(ra) # 40006dd4 <_ZN5alloc2rc11is_dangling17hc7dd78c2de3cbe8bE>
    40001bd0:	e82a                	sd	a0,16(sp)
    40001bd2:	a009                	j	40001bd4 <_ZN5alloc4sync13Weak$LT$T$GT$5inner17h2c4953d20cd91706E+0x24>
    40001bd4:	6542                	ld	a0,16(sp)
    40001bd6:	4581                	li	a1,0
    40001bd8:	00b51d63          	bne	a0,a1,40001bf2 <_ZN5alloc4sync13Weak$LT$T$GT$5inner17h2c4953d20cd91706E+0x42>
    40001bdc:	a009                	j	40001bde <_ZN5alloc4sync13Weak$LT$T$GT$5inner17h2c4953d20cd91706E+0x2e>
    40001bde:	6562                	ld	a0,24(sp)
    40001be0:	6108                	ld	a0,0(a0)
    40001be2:	00001097          	auipc	ra,0x1
    40001be6:	9ae080e7          	jalr	-1618(ra) # 40002590 <_ZN4core3ptr8non_null16NonNull$LT$T$GT$6as_ptr17h7d0cf91b7e4d22cdE>
    40001bea:	85aa                	mv	a1,a0
    40001bec:	e42e                	sd	a1,8(sp)
    40001bee:	e8aa                	sd	a0,80(sp)
    40001bf0:	a809                	j	40001c02 <_ZN5alloc4sync13Weak$LT$T$GT$5inner17h2c4953d20cd91706E+0x52>
    40001bf2:	4501                	li	a0,0
    40001bf4:	f42a                	sd	a0,40(sp)
    40001bf6:	a009                	j	40001bf8 <_ZN5alloc4sync13Weak$LT$T$GT$5inner17h2c4953d20cd91706E+0x48>
    40001bf8:	7522                	ld	a0,40(sp)
    40001bfa:	75c2                	ld	a1,48(sp)
    40001bfc:	60e6                	ld	ra,88(sp)
    40001bfe:	6125                	addi	sp,sp,96
    40001c00:	8082                	ret
    40001c02:	6522                	ld	a0,8(sp)
    40001c04:	00850593          	addi	a1,a0,8
    40001c08:	fc2e                	sd	a1,56(sp)
    40001c0a:	e0aa                	sd	a0,64(sp)
    40001c0c:	f42e                	sd	a1,40(sp)
    40001c0e:	f82a                	sd	a0,48(sp)
    40001c10:	b7e5                	j	40001bf8 <_ZN5alloc4sync13Weak$LT$T$GT$5inner17h2c4953d20cd91706E+0x48>

0000000040001c12 <_ZN5alloc4sync13Weak$LT$T$GT$5inner17h5f47443d394aa5ebE>:
    40001c12:	711d                	addi	sp,sp,-96
    40001c14:	ec86                	sd	ra,88(sp)
    40001c16:	ec2a                	sd	a0,24(sp)
    40001c18:	e4aa                	sd	a0,72(sp)
    40001c1a:	6108                	ld	a0,0(a0)
    40001c1c:	00001097          	auipc	ra,0x1
    40001c20:	984080e7          	jalr	-1660(ra) # 400025a0 <_ZN4core3ptr8non_null16NonNull$LT$T$GT$6as_ptr17hd2345c746c00bad7E>
    40001c24:	f02a                	sd	a0,32(sp)
    40001c26:	a009                	j	40001c28 <_ZN5alloc4sync13Weak$LT$T$GT$5inner17h5f47443d394aa5ebE+0x16>
    40001c28:	7502                	ld	a0,32(sp)
    40001c2a:	00005097          	auipc	ra,0x5
    40001c2e:	18a080e7          	jalr	394(ra) # 40006db4 <_ZN5alloc2rc11is_dangling17h9cfa7182c6399fabE>
    40001c32:	e82a                	sd	a0,16(sp)
    40001c34:	a009                	j	40001c36 <_ZN5alloc4sync13Weak$LT$T$GT$5inner17h5f47443d394aa5ebE+0x24>
    40001c36:	6542                	ld	a0,16(sp)
    40001c38:	4581                	li	a1,0
    40001c3a:	00b51d63          	bne	a0,a1,40001c54 <_ZN5alloc4sync13Weak$LT$T$GT$5inner17h5f47443d394aa5ebE+0x42>
    40001c3e:	a009                	j	40001c40 <_ZN5alloc4sync13Weak$LT$T$GT$5inner17h5f47443d394aa5ebE+0x2e>
    40001c40:	6562                	ld	a0,24(sp)
    40001c42:	6108                	ld	a0,0(a0)
    40001c44:	00001097          	auipc	ra,0x1
    40001c48:	95c080e7          	jalr	-1700(ra) # 400025a0 <_ZN4core3ptr8non_null16NonNull$LT$T$GT$6as_ptr17hd2345c746c00bad7E>
    40001c4c:	85aa                	mv	a1,a0
    40001c4e:	e42e                	sd	a1,8(sp)
    40001c50:	e8aa                	sd	a0,80(sp)
    40001c52:	a809                	j	40001c64 <_ZN5alloc4sync13Weak$LT$T$GT$5inner17h5f47443d394aa5ebE+0x52>
    40001c54:	4501                	li	a0,0
    40001c56:	f42a                	sd	a0,40(sp)
    40001c58:	a009                	j	40001c5a <_ZN5alloc4sync13Weak$LT$T$GT$5inner17h5f47443d394aa5ebE+0x48>
    40001c5a:	7522                	ld	a0,40(sp)
    40001c5c:	75c2                	ld	a1,48(sp)
    40001c5e:	60e6                	ld	ra,88(sp)
    40001c60:	6125                	addi	sp,sp,96
    40001c62:	8082                	ret
    40001c64:	6522                	ld	a0,8(sp)
    40001c66:	00850593          	addi	a1,a0,8
    40001c6a:	fc2e                	sd	a1,56(sp)
    40001c6c:	e0aa                	sd	a0,64(sp)
    40001c6e:	f42e                	sd	a1,40(sp)
    40001c70:	f82a                	sd	a0,48(sp)
    40001c72:	b7e5                	j	40001c5a <_ZN5alloc4sync13Weak$LT$T$GT$5inner17h5f47443d394aa5ebE+0x48>

0000000040001c74 <_ZN5alloc4sync13Weak$LT$T$GT$5inner17hd7521c2e5beee7caE>:
    40001c74:	711d                	addi	sp,sp,-96
    40001c76:	ec86                	sd	ra,88(sp)
    40001c78:	ec2a                	sd	a0,24(sp)
    40001c7a:	e4aa                	sd	a0,72(sp)
    40001c7c:	6108                	ld	a0,0(a0)
    40001c7e:	00001097          	auipc	ra,0x1
    40001c82:	932080e7          	jalr	-1742(ra) # 400025b0 <_ZN4core3ptr8non_null16NonNull$LT$T$GT$6as_ptr17hf57ca35c1e72da38E>
    40001c86:	f02a                	sd	a0,32(sp)
    40001c88:	a009                	j	40001c8a <_ZN5alloc4sync13Weak$LT$T$GT$5inner17hd7521c2e5beee7caE+0x16>
    40001c8a:	7502                	ld	a0,32(sp)
    40001c8c:	00005097          	auipc	ra,0x5
    40001c90:	138080e7          	jalr	312(ra) # 40006dc4 <_ZN5alloc2rc11is_dangling17haf0f90f7f32771bbE>
    40001c94:	e82a                	sd	a0,16(sp)
    40001c96:	a009                	j	40001c98 <_ZN5alloc4sync13Weak$LT$T$GT$5inner17hd7521c2e5beee7caE+0x24>
    40001c98:	6542                	ld	a0,16(sp)
    40001c9a:	4581                	li	a1,0
    40001c9c:	00b51d63          	bne	a0,a1,40001cb6 <_ZN5alloc4sync13Weak$LT$T$GT$5inner17hd7521c2e5beee7caE+0x42>
    40001ca0:	a009                	j	40001ca2 <_ZN5alloc4sync13Weak$LT$T$GT$5inner17hd7521c2e5beee7caE+0x2e>
    40001ca2:	6562                	ld	a0,24(sp)
    40001ca4:	6108                	ld	a0,0(a0)
    40001ca6:	00001097          	auipc	ra,0x1
    40001caa:	90a080e7          	jalr	-1782(ra) # 400025b0 <_ZN4core3ptr8non_null16NonNull$LT$T$GT$6as_ptr17hf57ca35c1e72da38E>
    40001cae:	85aa                	mv	a1,a0
    40001cb0:	e42e                	sd	a1,8(sp)
    40001cb2:	e8aa                	sd	a0,80(sp)
    40001cb4:	a809                	j	40001cc6 <_ZN5alloc4sync13Weak$LT$T$GT$5inner17hd7521c2e5beee7caE+0x52>
    40001cb6:	4501                	li	a0,0
    40001cb8:	f42a                	sd	a0,40(sp)
    40001cba:	a009                	j	40001cbc <_ZN5alloc4sync13Weak$LT$T$GT$5inner17hd7521c2e5beee7caE+0x48>
    40001cbc:	7522                	ld	a0,40(sp)
    40001cbe:	75c2                	ld	a1,48(sp)
    40001cc0:	60e6                	ld	ra,88(sp)
    40001cc2:	6125                	addi	sp,sp,96
    40001cc4:	8082                	ret
    40001cc6:	6522                	ld	a0,8(sp)
    40001cc8:	00850593          	addi	a1,a0,8
    40001ccc:	fc2e                	sd	a1,56(sp)
    40001cce:	e0aa                	sd	a0,64(sp)
    40001cd0:	f42e                	sd	a1,40(sp)
    40001cd2:	f82a                	sd	a0,48(sp)
    40001cd4:	b7e5                	j	40001cbc <_ZN5alloc4sync13Weak$LT$T$GT$5inner17hd7521c2e5beee7caE+0x48>

0000000040001cd6 <_ZN5alloc4sync13Weak$LT$T$GT$6as_ptr17h47864591d1b50ab3E>:
    40001cd6:	7179                	addi	sp,sp,-48
    40001cd8:	f406                	sd	ra,40(sp)
    40001cda:	ec2a                	sd	a0,24(sp)
    40001cdc:	6108                	ld	a0,0(a0)
    40001cde:	00001097          	auipc	ra,0x1
    40001ce2:	8a2080e7          	jalr	-1886(ra) # 40002580 <_ZN4core3ptr8non_null16NonNull$LT$T$GT$6as_ptr17h3b56c91fe8670886E>
    40001ce6:	85aa                	mv	a1,a0
    40001ce8:	e42e                	sd	a1,8(sp)
    40001cea:	f02a                	sd	a0,32(sp)
    40001cec:	a009                	j	40001cee <_ZN5alloc4sync13Weak$LT$T$GT$6as_ptr17h47864591d1b50ab3E+0x18>
    40001cee:	6522                	ld	a0,8(sp)
    40001cf0:	00005097          	auipc	ra,0x5
    40001cf4:	0b4080e7          	jalr	180(ra) # 40006da4 <_ZN5alloc2rc11is_dangling17h5b7492be7ba957beE>
    40001cf8:	e02a                	sd	a0,0(sp)
    40001cfa:	a009                	j	40001cfc <_ZN5alloc4sync13Weak$LT$T$GT$6as_ptr17h47864591d1b50ab3E+0x26>
    40001cfc:	6502                	ld	a0,0(sp)
    40001cfe:	4581                	li	a1,0
    40001d00:	00b51763          	bne	a0,a1,40001d0e <_ZN5alloc4sync13Weak$LT$T$GT$6as_ptr17h47864591d1b50ab3E+0x38>
    40001d04:	a009                	j	40001d06 <_ZN5alloc4sync13Weak$LT$T$GT$6as_ptr17h47864591d1b50ab3E+0x30>
    40001d06:	6522                	ld	a0,8(sp)
    40001d08:	0541                	addi	a0,a0,16
    40001d0a:	e82a                	sd	a0,16(sp)
    40001d0c:	a021                	j	40001d14 <_ZN5alloc4sync13Weak$LT$T$GT$6as_ptr17h47864591d1b50ab3E+0x3e>
    40001d0e:	6522                	ld	a0,8(sp)
    40001d10:	e82a                	sd	a0,16(sp)
    40001d12:	a009                	j	40001d14 <_ZN5alloc4sync13Weak$LT$T$GT$6as_ptr17h47864591d1b50ab3E+0x3e>
    40001d14:	6542                	ld	a0,16(sp)
    40001d16:	70a2                	ld	ra,40(sp)
    40001d18:	6145                	addi	sp,sp,48
    40001d1a:	8082                	ret

0000000040001d1c <_ZN5alloc4sync13Weak$LT$T$GT$6ptr_eq17h467f7a427dec1e78E>:
    40001d1c:	7179                	addi	sp,sp,-48
    40001d1e:	f406                	sd	ra,40(sp)
    40001d20:	e42e                	sd	a1,8(sp)
    40001d22:	ec2a                	sd	a0,24(sp)
    40001d24:	f02e                	sd	a1,32(sp)
    40001d26:	6108                	ld	a0,0(a0)
    40001d28:	00001097          	auipc	ra,0x1
    40001d2c:	868080e7          	jalr	-1944(ra) # 40002590 <_ZN4core3ptr8non_null16NonNull$LT$T$GT$6as_ptr17h7d0cf91b7e4d22cdE>
    40001d30:	e82a                	sd	a0,16(sp)
    40001d32:	a009                	j	40001d34 <_ZN5alloc4sync13Weak$LT$T$GT$6ptr_eq17h467f7a427dec1e78E+0x18>
    40001d34:	6522                	ld	a0,8(sp)
    40001d36:	6108                	ld	a0,0(a0)
    40001d38:	00001097          	auipc	ra,0x1
    40001d3c:	858080e7          	jalr	-1960(ra) # 40002590 <_ZN4core3ptr8non_null16NonNull$LT$T$GT$6as_ptr17h7d0cf91b7e4d22cdE>
    40001d40:	e02a                	sd	a0,0(sp)
    40001d42:	a009                	j	40001d44 <_ZN5alloc4sync13Weak$LT$T$GT$6ptr_eq17h467f7a427dec1e78E+0x28>
    40001d44:	6542                	ld	a0,16(sp)
    40001d46:	6582                	ld	a1,0(sp)
    40001d48:	8d2d                	xor	a0,a0,a1
    40001d4a:	00153513          	seqz	a0,a0
    40001d4e:	70a2                	ld	ra,40(sp)
    40001d50:	6145                	addi	sp,sp,48
    40001d52:	8082                	ret

0000000040001d54 <_ZN5alloc4sync13Weak$LT$T$GT$7upgrade17h047f6bd723a26b4cE>:
    40001d54:	7171                	addi	sp,sp,-176
    40001d56:	f506                	sd	ra,168(sp)
    40001d58:	ec2a                	sd	a0,24(sp)
    40001d5a:	f8aa                	sd	a0,112(sp)
    40001d5c:	00000097          	auipc	ra,0x0
    40001d60:	e54080e7          	jalr	-428(ra) # 40001bb0 <_ZN5alloc4sync13Weak$LT$T$GT$5inner17h2c4953d20cd91706E>
    40001d64:	f02a                	sd	a0,32(sp)
    40001d66:	f42e                	sd	a1,40(sp)
    40001d68:	a009                	j	40001d6a <_ZN5alloc4sync13Weak$LT$T$GT$7upgrade17h047f6bd723a26b4cE+0x16>
    40001d6a:	75a2                	ld	a1,40(sp)
    40001d6c:	7502                	ld	a0,32(sp)
    40001d6e:	00009097          	auipc	ra,0x9
    40001d72:	04c080e7          	jalr	76(ra) # 4000adba <_ZN75_$LT$core..option..Option$LT$T$GT$$u20$as$u20$core..ops..try_trait..Try$GT$6branch17hc7f3e2b56aede40eE>
    40001d76:	fc2a                	sd	a0,56(sp)
    40001d78:	e0ae                	sd	a1,64(sp)
    40001d7a:	a009                	j	40001d7c <_ZN5alloc4sync13Weak$LT$T$GT$7upgrade17h047f6bd723a26b4cE+0x28>
    40001d7c:	7562                	ld	a0,56(sp)
    40001d7e:	00153593          	seqz	a1,a0
    40001d82:	4581                	li	a1,0
    40001d84:	00b51563          	bne	a0,a1,40001d8e <_ZN5alloc4sync13Weak$LT$T$GT$7upgrade17h047f6bd723a26b4cE+0x3a>
    40001d88:	a009                	j	40001d8a <_ZN5alloc4sync13Weak$LT$T$GT$7upgrade17h047f6bd723a26b4cE+0x36>
    40001d8a:	a015                	j	40001dae <_ZN5alloc4sync13Weak$LT$T$GT$7upgrade17h047f6bd723a26b4cE+0x5a>
    40001d8c:	0000                	unimp
    40001d8e:	75e2                	ld	a1,56(sp)
    40001d90:	6506                	ld	a0,64(sp)
    40001d92:	e82a                	sd	a0,16(sp)
    40001d94:	e12e                	sd	a1,128(sp)
    40001d96:	e52a                	sd	a0,136(sp)
    40001d98:	e92e                	sd	a1,144(sp)
    40001d9a:	ed2a                	sd	a0,152(sp)
    40001d9c:	4581                	li	a1,0
    40001d9e:	04b10ba3          	sb	a1,87(sp)
    40001da2:	ffffe097          	auipc	ra,0xffffe
    40001da6:	3be080e7          	jalr	958(ra) # 40000160 <_ZN4core4sync6atomic11AtomicUsize4load17h67a5aebe396ba4fbE>
    40001daa:	e4aa                	sd	a0,72(sp)
    40001dac:	a821                	j	40001dc4 <_ZN5alloc4sync13Weak$LT$T$GT$7upgrade17h047f6bd723a26b4cE+0x70>
    40001dae:	00009097          	auipc	ra,0x9
    40001db2:	052080e7          	jalr	82(ra) # 4000ae00 <_ZN84_$LT$core..option..Option$LT$T$GT$$u20$as$u20$core..ops..try_trait..FromResidual$GT$13from_residual17ha96f35c49093ff09E>
    40001db6:	f82a                	sd	a0,48(sp)
    40001db8:	a009                	j	40001dba <_ZN5alloc4sync13Weak$LT$T$GT$7upgrade17h047f6bd723a26b4cE+0x66>
    40001dba:	a009                	j	40001dbc <_ZN5alloc4sync13Weak$LT$T$GT$7upgrade17h047f6bd723a26b4cE+0x68>
    40001dbc:	7542                	ld	a0,48(sp)
    40001dbe:	70aa                	ld	ra,168(sp)
    40001dc0:	614d                	addi	sp,sp,176
    40001dc2:	8082                	ret
    40001dc4:	a009                	j	40001dc6 <_ZN5alloc4sync13Weak$LT$T$GT$7upgrade17h047f6bd723a26b4cE+0x72>
    40001dc6:	6526                	ld	a0,72(sp)
    40001dc8:	4581                	li	a1,0
    40001dca:	00b51663          	bne	a0,a1,40001dd6 <_ZN5alloc4sync13Weak$LT$T$GT$7upgrade17h047f6bd723a26b4cE+0x82>
    40001dce:	a009                	j	40001dd0 <_ZN5alloc4sync13Weak$LT$T$GT$7upgrade17h047f6bd723a26b4cE+0x7c>
    40001dd0:	4501                	li	a0,0
    40001dd2:	f82a                	sd	a0,48(sp)
    40001dd4:	a8b9                	j	40001e32 <_ZN5alloc4sync13Weak$LT$T$GT$7upgrade17h047f6bd723a26b4cE+0xde>
    40001dd6:	6526                	ld	a0,72(sp)
    40001dd8:	4581                	li	a1,0
    40001dda:	02b54463          	blt	a0,a1,40001e02 <_ZN5alloc4sync13Weak$LT$T$GT$7upgrade17h047f6bd723a26b4cE+0xae>
    40001dde:	a009                	j	40001de0 <_ZN5alloc4sync13Weak$LT$T$GT$7upgrade17h047f6bd723a26b4cE+0x8c>
    40001de0:	6542                	ld	a0,16(sp)
    40001de2:	65a6                	ld	a1,72(sp)
    40001de4:	00158613          	addi	a2,a1,1
    40001de8:	4689                	li	a3,2
    40001dea:	06d10723          	sb	a3,110(sp)
    40001dee:	4701                	li	a4,0
    40001df0:	06e107a3          	sb	a4,111(sp)
    40001df4:	ffffe097          	auipc	ra,0xffffe
    40001df8:	310080e7          	jalr	784(ra) # 40000104 <_ZN4core4sync6atomic11AtomicUsize21compare_exchange_weak17hbb5a74d0adc7a34cE>
    40001dfc:	ecaa                	sd	a0,88(sp)
    40001dfe:	f0ae                	sd	a1,96(sp)
    40001e00:	a019                	j	40001e06 <_ZN5alloc4sync13Weak$LT$T$GT$7upgrade17h047f6bd723a26b4cE+0xb2>
    40001e02:	0000                	unimp
    40001e04:	0000                	unimp
    40001e06:	6566                	ld	a0,88(sp)
    40001e08:	4581                	li	a1,0
    40001e0a:	00b50563          	beq	a0,a1,40001e14 <_ZN5alloc4sync13Weak$LT$T$GT$7upgrade17h047f6bd723a26b4cE+0xc0>
    40001e0e:	a009                	j	40001e10 <_ZN5alloc4sync13Weak$LT$T$GT$7upgrade17h047f6bd723a26b4cE+0xbc>
    40001e10:	a811                	j	40001e24 <_ZN5alloc4sync13Weak$LT$T$GT$7upgrade17h047f6bd723a26b4cE+0xd0>
    40001e12:	0000                	unimp
    40001e14:	6562                	ld	a0,24(sp)
    40001e16:	6108                	ld	a0,0(a0)
    40001e18:	fffff097          	auipc	ra,0xfffff
    40001e1c:	678080e7          	jalr	1656(ra) # 40001490 <_ZN5alloc4sync12Arc$LT$T$GT$10from_inner17h2967b49bc6f5b3c6E>
    40001e20:	e42a                	sd	a0,8(sp)
    40001e22:	a029                	j	40001e2c <_ZN5alloc4sync13Weak$LT$T$GT$7upgrade17h047f6bd723a26b4cE+0xd8>
    40001e24:	7506                	ld	a0,96(sp)
    40001e26:	f12a                	sd	a0,160(sp)
    40001e28:	e4aa                	sd	a0,72(sp)
    40001e2a:	bf71                	j	40001dc6 <_ZN5alloc4sync13Weak$LT$T$GT$7upgrade17h047f6bd723a26b4cE+0x72>
    40001e2c:	6522                	ld	a0,8(sp)
    40001e2e:	f82a                	sd	a0,48(sp)
    40001e30:	a009                	j	40001e32 <_ZN5alloc4sync13Weak$LT$T$GT$7upgrade17h047f6bd723a26b4cE+0xde>
    40001e32:	b769                	j	40001dbc <_ZN5alloc4sync13Weak$LT$T$GT$7upgrade17h047f6bd723a26b4cE+0x68>

0000000040001e34 <_ZN5alloc4sync13Weak$LT$T$GT$7upgrade17h662794c43119c503E>:
    40001e34:	7171                	addi	sp,sp,-176
    40001e36:	f506                	sd	ra,168(sp)
    40001e38:	ec2a                	sd	a0,24(sp)
    40001e3a:	f8aa                	sd	a0,112(sp)
    40001e3c:	00000097          	auipc	ra,0x0
    40001e40:	d12080e7          	jalr	-750(ra) # 40001b4e <_ZN5alloc4sync13Weak$LT$T$GT$5inner17h1635089628a8e5a0E>
    40001e44:	f02a                	sd	a0,32(sp)
    40001e46:	f42e                	sd	a1,40(sp)
    40001e48:	a009                	j	40001e4a <_ZN5alloc4sync13Weak$LT$T$GT$7upgrade17h662794c43119c503E+0x16>
    40001e4a:	75a2                	ld	a1,40(sp)
    40001e4c:	7502                	ld	a0,32(sp)
    40001e4e:	00009097          	auipc	ra,0x9
    40001e52:	f6c080e7          	jalr	-148(ra) # 4000adba <_ZN75_$LT$core..option..Option$LT$T$GT$$u20$as$u20$core..ops..try_trait..Try$GT$6branch17hc7f3e2b56aede40eE>
    40001e56:	fc2a                	sd	a0,56(sp)
    40001e58:	e0ae                	sd	a1,64(sp)
    40001e5a:	a009                	j	40001e5c <_ZN5alloc4sync13Weak$LT$T$GT$7upgrade17h662794c43119c503E+0x28>
    40001e5c:	7562                	ld	a0,56(sp)
    40001e5e:	00153593          	seqz	a1,a0
    40001e62:	4581                	li	a1,0
    40001e64:	00b51563          	bne	a0,a1,40001e6e <_ZN5alloc4sync13Weak$LT$T$GT$7upgrade17h662794c43119c503E+0x3a>
    40001e68:	a009                	j	40001e6a <_ZN5alloc4sync13Weak$LT$T$GT$7upgrade17h662794c43119c503E+0x36>
    40001e6a:	a015                	j	40001e8e <_ZN5alloc4sync13Weak$LT$T$GT$7upgrade17h662794c43119c503E+0x5a>
    40001e6c:	0000                	unimp
    40001e6e:	75e2                	ld	a1,56(sp)
    40001e70:	6506                	ld	a0,64(sp)
    40001e72:	e82a                	sd	a0,16(sp)
    40001e74:	e12e                	sd	a1,128(sp)
    40001e76:	e52a                	sd	a0,136(sp)
    40001e78:	e92e                	sd	a1,144(sp)
    40001e7a:	ed2a                	sd	a0,152(sp)
    40001e7c:	4581                	li	a1,0
    40001e7e:	04b10ba3          	sb	a1,87(sp)
    40001e82:	ffffe097          	auipc	ra,0xffffe
    40001e86:	2de080e7          	jalr	734(ra) # 40000160 <_ZN4core4sync6atomic11AtomicUsize4load17h67a5aebe396ba4fbE>
    40001e8a:	e4aa                	sd	a0,72(sp)
    40001e8c:	a821                	j	40001ea4 <_ZN5alloc4sync13Weak$LT$T$GT$7upgrade17h662794c43119c503E+0x70>
    40001e8e:	00009097          	auipc	ra,0x9
    40001e92:	f68080e7          	jalr	-152(ra) # 4000adf6 <_ZN84_$LT$core..option..Option$LT$T$GT$$u20$as$u20$core..ops..try_trait..FromResidual$GT$13from_residual17h68e39250081197b6E>
    40001e96:	f82a                	sd	a0,48(sp)
    40001e98:	a009                	j	40001e9a <_ZN5alloc4sync13Weak$LT$T$GT$7upgrade17h662794c43119c503E+0x66>
    40001e9a:	a009                	j	40001e9c <_ZN5alloc4sync13Weak$LT$T$GT$7upgrade17h662794c43119c503E+0x68>
    40001e9c:	7542                	ld	a0,48(sp)
    40001e9e:	70aa                	ld	ra,168(sp)
    40001ea0:	614d                	addi	sp,sp,176
    40001ea2:	8082                	ret
    40001ea4:	a009                	j	40001ea6 <_ZN5alloc4sync13Weak$LT$T$GT$7upgrade17h662794c43119c503E+0x72>
    40001ea6:	6526                	ld	a0,72(sp)
    40001ea8:	4581                	li	a1,0
    40001eaa:	00b51663          	bne	a0,a1,40001eb6 <_ZN5alloc4sync13Weak$LT$T$GT$7upgrade17h662794c43119c503E+0x82>
    40001eae:	a009                	j	40001eb0 <_ZN5alloc4sync13Weak$LT$T$GT$7upgrade17h662794c43119c503E+0x7c>
    40001eb0:	4501                	li	a0,0
    40001eb2:	f82a                	sd	a0,48(sp)
    40001eb4:	a8b9                	j	40001f12 <_ZN5alloc4sync13Weak$LT$T$GT$7upgrade17h662794c43119c503E+0xde>
    40001eb6:	6526                	ld	a0,72(sp)
    40001eb8:	4581                	li	a1,0
    40001eba:	02b54463          	blt	a0,a1,40001ee2 <_ZN5alloc4sync13Weak$LT$T$GT$7upgrade17h662794c43119c503E+0xae>
    40001ebe:	a009                	j	40001ec0 <_ZN5alloc4sync13Weak$LT$T$GT$7upgrade17h662794c43119c503E+0x8c>
    40001ec0:	6542                	ld	a0,16(sp)
    40001ec2:	65a6                	ld	a1,72(sp)
    40001ec4:	00158613          	addi	a2,a1,1
    40001ec8:	4689                	li	a3,2
    40001eca:	06d10723          	sb	a3,110(sp)
    40001ece:	4701                	li	a4,0
    40001ed0:	06e107a3          	sb	a4,111(sp)
    40001ed4:	ffffe097          	auipc	ra,0xffffe
    40001ed8:	230080e7          	jalr	560(ra) # 40000104 <_ZN4core4sync6atomic11AtomicUsize21compare_exchange_weak17hbb5a74d0adc7a34cE>
    40001edc:	ecaa                	sd	a0,88(sp)
    40001ede:	f0ae                	sd	a1,96(sp)
    40001ee0:	a019                	j	40001ee6 <_ZN5alloc4sync13Weak$LT$T$GT$7upgrade17h662794c43119c503E+0xb2>
    40001ee2:	0000                	unimp
    40001ee4:	0000                	unimp
    40001ee6:	6566                	ld	a0,88(sp)
    40001ee8:	4581                	li	a1,0
    40001eea:	00b50563          	beq	a0,a1,40001ef4 <_ZN5alloc4sync13Weak$LT$T$GT$7upgrade17h662794c43119c503E+0xc0>
    40001eee:	a009                	j	40001ef0 <_ZN5alloc4sync13Weak$LT$T$GT$7upgrade17h662794c43119c503E+0xbc>
    40001ef0:	a811                	j	40001f04 <_ZN5alloc4sync13Weak$LT$T$GT$7upgrade17h662794c43119c503E+0xd0>
    40001ef2:	0000                	unimp
    40001ef4:	6562                	ld	a0,24(sp)
    40001ef6:	6108                	ld	a0,0(a0)
    40001ef8:	fffff097          	auipc	ra,0xfffff
    40001efc:	5a2080e7          	jalr	1442(ra) # 4000149a <_ZN5alloc4sync12Arc$LT$T$GT$10from_inner17h7365bc9239d621c3E>
    40001f00:	e42a                	sd	a0,8(sp)
    40001f02:	a029                	j	40001f0c <_ZN5alloc4sync13Weak$LT$T$GT$7upgrade17h662794c43119c503E+0xd8>
    40001f04:	7506                	ld	a0,96(sp)
    40001f06:	f12a                	sd	a0,160(sp)
    40001f08:	e4aa                	sd	a0,72(sp)
    40001f0a:	bf71                	j	40001ea6 <_ZN5alloc4sync13Weak$LT$T$GT$7upgrade17h662794c43119c503E+0x72>
    40001f0c:	6522                	ld	a0,8(sp)
    40001f0e:	f82a                	sd	a0,48(sp)
    40001f10:	a009                	j	40001f12 <_ZN5alloc4sync13Weak$LT$T$GT$7upgrade17h662794c43119c503E+0xde>
    40001f12:	b769                	j	40001e9c <_ZN5alloc4sync13Weak$LT$T$GT$7upgrade17h662794c43119c503E+0x68>

0000000040001f14 <_ZN5alloc4sync13Weak$LT$T$GT$7upgrade17ha351fdc9d2d06086E>:
    40001f14:	7171                	addi	sp,sp,-176
    40001f16:	f506                	sd	ra,168(sp)
    40001f18:	ec2a                	sd	a0,24(sp)
    40001f1a:	f8aa                	sd	a0,112(sp)
    40001f1c:	00000097          	auipc	ra,0x0
    40001f20:	cf6080e7          	jalr	-778(ra) # 40001c12 <_ZN5alloc4sync13Weak$LT$T$GT$5inner17h5f47443d394aa5ebE>
    40001f24:	f02a                	sd	a0,32(sp)
    40001f26:	f42e                	sd	a1,40(sp)
    40001f28:	a009                	j	40001f2a <_ZN5alloc4sync13Weak$LT$T$GT$7upgrade17ha351fdc9d2d06086E+0x16>
    40001f2a:	75a2                	ld	a1,40(sp)
    40001f2c:	7502                	ld	a0,32(sp)
    40001f2e:	00009097          	auipc	ra,0x9
    40001f32:	e8c080e7          	jalr	-372(ra) # 4000adba <_ZN75_$LT$core..option..Option$LT$T$GT$$u20$as$u20$core..ops..try_trait..Try$GT$6branch17hc7f3e2b56aede40eE>
    40001f36:	fc2a                	sd	a0,56(sp)
    40001f38:	e0ae                	sd	a1,64(sp)
    40001f3a:	a009                	j	40001f3c <_ZN5alloc4sync13Weak$LT$T$GT$7upgrade17ha351fdc9d2d06086E+0x28>
    40001f3c:	7562                	ld	a0,56(sp)
    40001f3e:	00153593          	seqz	a1,a0
    40001f42:	4581                	li	a1,0
    40001f44:	00b51563          	bne	a0,a1,40001f4e <_ZN5alloc4sync13Weak$LT$T$GT$7upgrade17ha351fdc9d2d06086E+0x3a>
    40001f48:	a009                	j	40001f4a <_ZN5alloc4sync13Weak$LT$T$GT$7upgrade17ha351fdc9d2d06086E+0x36>
    40001f4a:	a015                	j	40001f6e <_ZN5alloc4sync13Weak$LT$T$GT$7upgrade17ha351fdc9d2d06086E+0x5a>
    40001f4c:	0000                	unimp
    40001f4e:	75e2                	ld	a1,56(sp)
    40001f50:	6506                	ld	a0,64(sp)
    40001f52:	e82a                	sd	a0,16(sp)
    40001f54:	e12e                	sd	a1,128(sp)
    40001f56:	e52a                	sd	a0,136(sp)
    40001f58:	e92e                	sd	a1,144(sp)
    40001f5a:	ed2a                	sd	a0,152(sp)
    40001f5c:	4581                	li	a1,0
    40001f5e:	04b10ba3          	sb	a1,87(sp)
    40001f62:	ffffe097          	auipc	ra,0xffffe
    40001f66:	1fe080e7          	jalr	510(ra) # 40000160 <_ZN4core4sync6atomic11AtomicUsize4load17h67a5aebe396ba4fbE>
    40001f6a:	e4aa                	sd	a0,72(sp)
    40001f6c:	a821                	j	40001f84 <_ZN5alloc4sync13Weak$LT$T$GT$7upgrade17ha351fdc9d2d06086E+0x70>
    40001f6e:	00009097          	auipc	ra,0x9
    40001f72:	e7e080e7          	jalr	-386(ra) # 4000adec <_ZN84_$LT$core..option..Option$LT$T$GT$$u20$as$u20$core..ops..try_trait..FromResidual$GT$13from_residual17h66629befaec96aaaE>
    40001f76:	f82a                	sd	a0,48(sp)
    40001f78:	a009                	j	40001f7a <_ZN5alloc4sync13Weak$LT$T$GT$7upgrade17ha351fdc9d2d06086E+0x66>
    40001f7a:	a009                	j	40001f7c <_ZN5alloc4sync13Weak$LT$T$GT$7upgrade17ha351fdc9d2d06086E+0x68>
    40001f7c:	7542                	ld	a0,48(sp)
    40001f7e:	70aa                	ld	ra,168(sp)
    40001f80:	614d                	addi	sp,sp,176
    40001f82:	8082                	ret
    40001f84:	a009                	j	40001f86 <_ZN5alloc4sync13Weak$LT$T$GT$7upgrade17ha351fdc9d2d06086E+0x72>
    40001f86:	6526                	ld	a0,72(sp)
    40001f88:	4581                	li	a1,0
    40001f8a:	00b51663          	bne	a0,a1,40001f96 <_ZN5alloc4sync13Weak$LT$T$GT$7upgrade17ha351fdc9d2d06086E+0x82>
    40001f8e:	a009                	j	40001f90 <_ZN5alloc4sync13Weak$LT$T$GT$7upgrade17ha351fdc9d2d06086E+0x7c>
    40001f90:	4501                	li	a0,0
    40001f92:	f82a                	sd	a0,48(sp)
    40001f94:	a8b9                	j	40001ff2 <_ZN5alloc4sync13Weak$LT$T$GT$7upgrade17ha351fdc9d2d06086E+0xde>
    40001f96:	6526                	ld	a0,72(sp)
    40001f98:	4581                	li	a1,0
    40001f9a:	02b54463          	blt	a0,a1,40001fc2 <_ZN5alloc4sync13Weak$LT$T$GT$7upgrade17ha351fdc9d2d06086E+0xae>
    40001f9e:	a009                	j	40001fa0 <_ZN5alloc4sync13Weak$LT$T$GT$7upgrade17ha351fdc9d2d06086E+0x8c>
    40001fa0:	6542                	ld	a0,16(sp)
    40001fa2:	65a6                	ld	a1,72(sp)
    40001fa4:	00158613          	addi	a2,a1,1
    40001fa8:	4689                	li	a3,2
    40001faa:	06d10723          	sb	a3,110(sp)
    40001fae:	4701                	li	a4,0
    40001fb0:	06e107a3          	sb	a4,111(sp)
    40001fb4:	ffffe097          	auipc	ra,0xffffe
    40001fb8:	150080e7          	jalr	336(ra) # 40000104 <_ZN4core4sync6atomic11AtomicUsize21compare_exchange_weak17hbb5a74d0adc7a34cE>
    40001fbc:	ecaa                	sd	a0,88(sp)
    40001fbe:	f0ae                	sd	a1,96(sp)
    40001fc0:	a019                	j	40001fc6 <_ZN5alloc4sync13Weak$LT$T$GT$7upgrade17ha351fdc9d2d06086E+0xb2>
    40001fc2:	0000                	unimp
    40001fc4:	0000                	unimp
    40001fc6:	6566                	ld	a0,88(sp)
    40001fc8:	4581                	li	a1,0
    40001fca:	00b50563          	beq	a0,a1,40001fd4 <_ZN5alloc4sync13Weak$LT$T$GT$7upgrade17ha351fdc9d2d06086E+0xc0>
    40001fce:	a009                	j	40001fd0 <_ZN5alloc4sync13Weak$LT$T$GT$7upgrade17ha351fdc9d2d06086E+0xbc>
    40001fd0:	a811                	j	40001fe4 <_ZN5alloc4sync13Weak$LT$T$GT$7upgrade17ha351fdc9d2d06086E+0xd0>
    40001fd2:	0000                	unimp
    40001fd4:	6562                	ld	a0,24(sp)
    40001fd6:	6108                	ld	a0,0(a0)
    40001fd8:	fffff097          	auipc	ra,0xfffff
    40001fdc:	4ae080e7          	jalr	1198(ra) # 40001486 <_ZN5alloc4sync12Arc$LT$T$GT$10from_inner17h1a78be649988aec6E>
    40001fe0:	e42a                	sd	a0,8(sp)
    40001fe2:	a029                	j	40001fec <_ZN5alloc4sync13Weak$LT$T$GT$7upgrade17ha351fdc9d2d06086E+0xd8>
    40001fe4:	7506                	ld	a0,96(sp)
    40001fe6:	f12a                	sd	a0,160(sp)
    40001fe8:	e4aa                	sd	a0,72(sp)
    40001fea:	bf71                	j	40001f86 <_ZN5alloc4sync13Weak$LT$T$GT$7upgrade17ha351fdc9d2d06086E+0x72>
    40001fec:	6522                	ld	a0,8(sp)
    40001fee:	f82a                	sd	a0,48(sp)
    40001ff0:	a009                	j	40001ff2 <_ZN5alloc4sync13Weak$LT$T$GT$7upgrade17ha351fdc9d2d06086E+0xde>
    40001ff2:	b769                	j	40001f7c <_ZN5alloc4sync13Weak$LT$T$GT$7upgrade17ha351fdc9d2d06086E+0x68>

0000000040001ff4 <_ZN5alloc4sync13Weak$LT$T$GT$8into_raw17h0904c86efe0071b9E>:
    40001ff4:	1101                	addi	sp,sp,-32
    40001ff6:	ec06                	sd	ra,24(sp)
    40001ff8:	e42a                	sd	a0,8(sp)
    40001ffa:	0028                	addi	a0,sp,8
    40001ffc:	00000097          	auipc	ra,0x0
    40002000:	cda080e7          	jalr	-806(ra) # 40001cd6 <_ZN5alloc4sync13Weak$LT$T$GT$6as_ptr17h47864591d1b50ab3E>
    40002004:	85aa                	mv	a1,a0
    40002006:	e02e                	sd	a1,0(sp)
    40002008:	e82a                	sd	a0,16(sp)
    4000200a:	a009                	j	4000200c <_ZN5alloc4sync13Weak$LT$T$GT$8into_raw17h0904c86efe0071b9E+0x18>
    4000200c:	6522                	ld	a0,8(sp)
    4000200e:	00003097          	auipc	ra,0x3
    40002012:	f8e080e7          	jalr	-114(ra) # 40004f9c <_ZN4core3mem6forget17hed9120ffeeacd484E>
    40002016:	a009                	j	40002018 <_ZN5alloc4sync13Weak$LT$T$GT$8into_raw17h0904c86efe0071b9E+0x24>
    40002018:	6502                	ld	a0,0(sp)
    4000201a:	60e2                	ld	ra,24(sp)
    4000201c:	6105                	addi	sp,sp,32
    4000201e:	8082                	ret

0000000040002020 <_ZN64_$LT$alloc..sync..Arc$LT$T$GT$$u20$as$u20$core..clone..Clone$GT$5clone17h82c0b060dea08c7fE>:
    40002020:	7139                	addi	sp,sp,-64
    40002022:	fc06                	sd	ra,56(sp)
    40002024:	e82a                	sd	a0,16(sp)
    40002026:	f42a                	sd	a0,40(sp)
    40002028:	fffff097          	auipc	ra,0xfffff
    4000202c:	798080e7          	jalr	1944(ra) # 400017c0 <_ZN5alloc4sync12Arc$LT$T$GT$5inner17haf562a9866012f50E>
    40002030:	ec2a                	sd	a0,24(sp)
    40002032:	a009                	j	40002034 <_ZN64_$LT$alloc..sync..Arc$LT$T$GT$$u20$as$u20$core..clone..Clone$GT$5clone17h82c0b060dea08c7fE+0x14>
    40002034:	6562                	ld	a0,24(sp)
    40002036:	4601                	li	a2,0
    40002038:	02c103a3          	sb	a2,39(sp)
    4000203c:	4585                	li	a1,1
    4000203e:	ffffe097          	auipc	ra,0xffffe
    40002042:	180080e7          	jalr	384(ra) # 400001be <_ZN4core4sync6atomic11AtomicUsize9fetch_add17h2a579f006298460dE>
    40002046:	85aa                	mv	a1,a0
    40002048:	e42e                	sd	a1,8(sp)
    4000204a:	f82a                	sd	a0,48(sp)
    4000204c:	a009                	j	4000204e <_ZN64_$LT$alloc..sync..Arc$LT$T$GT$$u20$as$u20$core..clone..Clone$GT$5clone17h82c0b060dea08c7fE+0x2e>
    4000204e:	6522                	ld	a0,8(sp)
    40002050:	4581                	li	a1,0
    40002052:	00b54b63          	blt	a0,a1,40002068 <_ZN64_$LT$alloc..sync..Arc$LT$T$GT$$u20$as$u20$core..clone..Clone$GT$5clone17h82c0b060dea08c7fE+0x48>
    40002056:	a009                	j	40002058 <_ZN64_$LT$alloc..sync..Arc$LT$T$GT$$u20$as$u20$core..clone..Clone$GT$5clone17h82c0b060dea08c7fE+0x38>
    40002058:	6542                	ld	a0,16(sp)
    4000205a:	6108                	ld	a0,0(a0)
    4000205c:	fffff097          	auipc	ra,0xfffff
    40002060:	434080e7          	jalr	1076(ra) # 40001490 <_ZN5alloc4sync12Arc$LT$T$GT$10from_inner17h2967b49bc6f5b3c6E>
    40002064:	e02a                	sd	a0,0(sp)
    40002066:	a019                	j	4000206c <_ZN64_$LT$alloc..sync..Arc$LT$T$GT$$u20$as$u20$core..clone..Clone$GT$5clone17h82c0b060dea08c7fE+0x4c>
    40002068:	0000                	unimp
    4000206a:	0000                	unimp
    4000206c:	6502                	ld	a0,0(sp)
    4000206e:	70e2                	ld	ra,56(sp)
    40002070:	6121                	addi	sp,sp,64
    40002072:	8082                	ret

0000000040002074 <_ZN64_$LT$alloc..sync..Arc$LT$T$GT$$u20$as$u20$core..clone..Clone$GT$5clone17hdc681540f5e49b3eE>:
    40002074:	7139                	addi	sp,sp,-64
    40002076:	fc06                	sd	ra,56(sp)
    40002078:	e82a                	sd	a0,16(sp)
    4000207a:	f42a                	sd	a0,40(sp)
    4000207c:	fffff097          	auipc	ra,0xfffff
    40002080:	75e080e7          	jalr	1886(ra) # 400017da <_ZN5alloc4sync12Arc$LT$T$GT$5inner17he41cb5b8c0b172e7E>
    40002084:	ec2a                	sd	a0,24(sp)
    40002086:	a009                	j	40002088 <_ZN64_$LT$alloc..sync..Arc$LT$T$GT$$u20$as$u20$core..clone..Clone$GT$5clone17hdc681540f5e49b3eE+0x14>
    40002088:	6562                	ld	a0,24(sp)
    4000208a:	4601                	li	a2,0
    4000208c:	02c103a3          	sb	a2,39(sp)
    40002090:	4585                	li	a1,1
    40002092:	ffffe097          	auipc	ra,0xffffe
    40002096:	12c080e7          	jalr	300(ra) # 400001be <_ZN4core4sync6atomic11AtomicUsize9fetch_add17h2a579f006298460dE>
    4000209a:	85aa                	mv	a1,a0
    4000209c:	e42e                	sd	a1,8(sp)
    4000209e:	f82a                	sd	a0,48(sp)
    400020a0:	a009                	j	400020a2 <_ZN64_$LT$alloc..sync..Arc$LT$T$GT$$u20$as$u20$core..clone..Clone$GT$5clone17hdc681540f5e49b3eE+0x2e>
    400020a2:	6522                	ld	a0,8(sp)
    400020a4:	4581                	li	a1,0
    400020a6:	00b54b63          	blt	a0,a1,400020bc <_ZN64_$LT$alloc..sync..Arc$LT$T$GT$$u20$as$u20$core..clone..Clone$GT$5clone17hdc681540f5e49b3eE+0x48>
    400020aa:	a009                	j	400020ac <_ZN64_$LT$alloc..sync..Arc$LT$T$GT$$u20$as$u20$core..clone..Clone$GT$5clone17hdc681540f5e49b3eE+0x38>
    400020ac:	6542                	ld	a0,16(sp)
    400020ae:	6108                	ld	a0,0(a0)
    400020b0:	fffff097          	auipc	ra,0xfffff
    400020b4:	3ea080e7          	jalr	1002(ra) # 4000149a <_ZN5alloc4sync12Arc$LT$T$GT$10from_inner17h7365bc9239d621c3E>
    400020b8:	e02a                	sd	a0,0(sp)
    400020ba:	a019                	j	400020c0 <_ZN64_$LT$alloc..sync..Arc$LT$T$GT$$u20$as$u20$core..clone..Clone$GT$5clone17hdc681540f5e49b3eE+0x4c>
    400020bc:	0000                	unimp
    400020be:	0000                	unimp
    400020c0:	6502                	ld	a0,0(sp)
    400020c2:	70e2                	ld	ra,56(sp)
    400020c4:	6121                	addi	sp,sp,64
    400020c6:	8082                	ret

00000000400020c8 <_ZN65_$LT$alloc..sync..Weak$LT$T$GT$$u20$as$u20$core..clone..Clone$GT$5clone17h3f1ba984c96c45e6E>:
    400020c8:	7159                	addi	sp,sp,-112
